ARM GAS  C:\Users\user\AppData\Local\Temp\ccreuSL2.s 			page 1


   1              		.cpu cortex-m4
   2              		.eabi_attribute 27, 1
   3              		.eabi_attribute 28, 1
   4              		.eabi_attribute 20, 1
   5              		.eabi_attribute 21, 1
   6              		.eabi_attribute 23, 3
   7              		.eabi_attribute 24, 1
   8              		.eabi_attribute 25, 1
   9              		.eabi_attribute 26, 1
  10              		.eabi_attribute 30, 1
  11              		.eabi_attribute 34, 1
  12              		.eabi_attribute 18, 4
  13              		.file	"main.c"
  14              		.text
  15              	.Ltext0:
  16              		.cfi_sections	.debug_frame
  17              		.section	.text.MX_GPIO_Init,"ax",%progbits
  18              		.align	1
  19              		.arch armv7e-m
  20              		.syntax unified
  21              		.thumb
  22              		.thumb_func
  23              		.fpu fpv4-sp-d16
  25              	MX_GPIO_Init:
  26              	.LFB139:
  27              		.file 1 "Core/Src/main.c"
   1:Core/Src/main.c **** /* USER CODE BEGIN Header */
   2:Core/Src/main.c **** /**
   3:Core/Src/main.c ****   ******************************************************************************
   4:Core/Src/main.c ****   * @file           : main.c
   5:Core/Src/main.c ****   * @brief          : Main program body
   6:Core/Src/main.c ****   ******************************************************************************
   7:Core/Src/main.c ****   * @attention
   8:Core/Src/main.c ****   *
   9:Core/Src/main.c ****   * <h2><center>&copy; Copyright (c) 2021 STMicroelectronics.
  10:Core/Src/main.c ****   * All rights reserved.</center></h2>
  11:Core/Src/main.c ****   *
  12:Core/Src/main.c ****   * This software component is licensed by ST under BSD 3-Clause license,
  13:Core/Src/main.c ****   * the "License"; You may not use this file except in compliance with the
  14:Core/Src/main.c ****   * License. You may obtain a copy of the License at:
  15:Core/Src/main.c ****   *                        opensource.org/licenses/BSD-3-Clause
  16:Core/Src/main.c ****   *
  17:Core/Src/main.c ****   ******************************************************************************
  18:Core/Src/main.c ****   */
  19:Core/Src/main.c **** /* USER CODE END Header */
  20:Core/Src/main.c **** /* Includes ------------------------------------------------------------------*/
  21:Core/Src/main.c **** #include "main.h"
  22:Core/Src/main.c **** #include <locale.h>
  23:Core/Src/main.c **** /* Private includes ----------------------------------------------------------*/
  24:Core/Src/main.c **** /* USER CODE BEGIN Includes */
  25:Core/Src/main.c **** #include "NOS_Lib.h"
  26:Core/Src/main.c **** /* USER CODE END Includes */
  27:Core/Src/main.c **** 
  28:Core/Src/main.c **** /* Private typedef -----------------------------------------------------------*/
  29:Core/Src/main.c **** /* USER CODE BEGIN PTD */
  30:Core/Src/main.c **** uint32_t Time = 0;
  31:Core/Src/main.c **** /* USER CODE END PTD */
ARM GAS  C:\Users\user\AppData\Local\Temp\ccreuSL2.s 			page 2


  32:Core/Src/main.c **** 
  33:Core/Src/main.c **** /* Private define ------------------------------------------------------------*/
  34:Core/Src/main.c **** /* USER CODE BEGIN PD */
  35:Core/Src/main.c **** /* USER CODE END PD */
  36:Core/Src/main.c **** 
  37:Core/Src/main.c **** /* Private macro -------------------------------------------------------------*/
  38:Core/Src/main.c **** /* USER CODE BEGIN PM */
  39:Core/Src/main.c **** 
  40:Core/Src/main.c **** /* USER CODE END PM */
  41:Core/Src/main.c **** 
  42:Core/Src/main.c **** /* Private variables ---------------------------------------------------------*/
  43:Core/Src/main.c **** RTC_HandleTypeDef hrtc;
  44:Core/Src/main.c **** 
  45:Core/Src/main.c **** TIM_HandleTypeDef htim6;
  46:Core/Src/main.c **** 
  47:Core/Src/main.c **** UART_HandleTypeDef huart1;
  48:Core/Src/main.c **** UART_HandleTypeDef huart2;
  49:Core/Src/main.c **** 
  50:Core/Src/main.c **** /* USER CODE BEGIN PV */
  51:Core/Src/main.c **** MatrixSize msA = {96,8};
  52:Core/Src/main.c **** MatrixSize msB = {64,8};
  53:Core/Src/main.c **** MatrixSize msC = {32,8};
  54:Core/Src/main.c **** 
  55:Core/Src/main.c **** RealTime realtime = {0};
  56:Core/Src/main.c **** 
  57:Core/Src/main.c **** extern uint8_t frameBuffer1[3*8*96];
  58:Core/Src/main.c **** extern uint8_t frameBuffer2[3*8*64];
  59:Core/Src/main.c **** extern uint8_t frameBuffer3[3*8*32];
  60:Core/Src/main.c **** 
  61:Core/Src/main.c **** WS2812B_Matrix matrixA = {0};
  62:Core/Src/main.c **** WS2812B_Matrix matrixB = {0};
  63:Core/Src/main.c **** WS2812B_Matrix matrixC = {0};
  64:Core/Src/main.c **** 
  65:Core/Src/main.c **** PixelColor red = {255,0x00,0x00};
  66:Core/Src/main.c **** PixelColor green = {0x00,255,0x00};
  67:Core/Src/main.c **** PixelColor yellow = {255,255,0x00};
  68:Core/Src/main.c **** PixelColor white = {255,255,255};
  69:Core/Src/main.c **** PixelColor blue = {0x00,0x00,255};
  70:Core/Src/main.c **** PixelColor fone = {0,0,0};
  71:Core/Src/main.c **** 
  72:Core/Src/main.c **** Symvol matrixAsymc[15];
  73:Core/Src/main.c **** Symvol matrixBsymc[10];
  74:Core/Src/main.c **** Symvol matrixCsymc[5];
  75:Core/Src/main.c **** 
  76:Core/Src/main.c **** uint8_t x = 1;
  77:Core/Src/main.c **** uint16_t y = 1;
  78:Core/Src/main.c **** uint32_t coun = 0;
  79:Core/Src/main.c **** int num = 0;
  80:Core/Src/main.c **** 
  81:Core/Src/main.c **** float uSv_Value = 0.11f;
  82:Core/Src/main.c **** float first_danger = 0.25f;
  83:Core/Src/main.c **** float second_danger = 1.25f;
  84:Core/Src/main.c **** int16_t temperature = 25;
  85:Core/Src/main.c **** 
  86:Core/Src/main.c **** uint32_t UpdateFrameTime = 10;
  87:Core/Src/main.c **** Language language = English;
  88:Core/Src/main.c **** RTC_TimeTypeDef sTime = {0};
ARM GAS  C:\Users\user\AppData\Local\Temp\ccreuSL2.s 			page 3


  89:Core/Src/main.c **** ModBus_Struct ModBus;
  90:Core/Src/main.c **** GPIO_PIN PA1;
  91:Core/Src/main.c **** uint8_t rx_buff[16];
  92:Core/Src/main.c **** uint8_t tx_buff[16];
  93:Core/Src/main.c **** URE_Detector detector = {0};
  94:Core/Src/main.c **** ModBus_State mbState = Free;
  95:Core/Src/main.c **** uint8_t messageLenght = 0;
  96:Core/Src/main.c **** bool rx_flag;
  97:Core/Src/main.c **** bool tx_flag;
  98:Core/Src/main.c **** bool AddressOK = false;
  99:Core/Src/main.c **** uint8_t TIaddr = 102;
 100:Core/Src/main.c **** uint8_t currCommand = 0;
 101:Core/Src/main.c **** uint8_t expectedMessageLenght = 0;
 102:Core/Src/main.c **** uint8_t TxCommandCounter = 0;
 103:Core/Src/main.c **** uint8_t currMessageLenght = 0;
 104:Core/Src/main.c **** static uint8_t fuckBuff[1024] = {0};
 105:Core/Src/main.c **** static uint16_t fuckIndex = 0;
 106:Core/Src/main.c **** uint16_t timelastReceiveMessage = 0;
 107:Core/Src/main.c **** /* USER CODE END PV */
 108:Core/Src/main.c **** 
 109:Core/Src/main.c **** /* Private function prototypes -----------------------------------------------*/
 110:Core/Src/main.c **** void SystemClock_Config(void);
 111:Core/Src/main.c **** static void MX_GPIO_Init(void);
 112:Core/Src/main.c **** static void MX_RTC_Init(void);
 113:Core/Src/main.c **** static void MX_USART1_UART_Init(void);
 114:Core/Src/main.c **** static void MX_USART2_UART_Init(void);
 115:Core/Src/main.c **** static void MX_TIM6_Init(void);
 116:Core/Src/main.c **** /* USER CODE BEGIN PFP */
 117:Core/Src/main.c **** /* USER CODE END PFP */
 118:Core/Src/main.c **** 
 119:Core/Src/main.c **** /* Private user code ---------------------------------------------------------*/
 120:Core/Src/main.c **** /* USER CODE BEGIN 0 */
 121:Core/Src/main.c **** void HAL_UART_RxCpltCallback (UART_HandleTypeDef* huart) {
 122:Core/Src/main.c ****   //NOS_ModBus_ReceiveHandler(&ModBus);
 123:Core/Src/main.c **** static uint8_t* rx_buff_ptr = rx_buff;
 124:Core/Src/main.c **** 
 125:Core/Src/main.c **** fuckBuff[fuckIndex] = *rx_buff_ptr;
 126:Core/Src/main.c **** fuckIndex++;
 127:Core/Src/main.c **** if(fuckIndex > 1023)
 128:Core/Src/main.c **** {
 129:Core/Src/main.c ****   fuckIndex = 0;
 130:Core/Src/main.c **** }
 131:Core/Src/main.c **** 
 132:Core/Src/main.c **** if(*rx_buff_ptr == 101 && !AddressOK)
 133:Core/Src/main.c **** {
 134:Core/Src/main.c ****   AddressOK = true;
 135:Core/Src/main.c ****   currMessageLenght = 0;
 136:Core/Src/main.c **** }
 137:Core/Src/main.c **** 
 138:Core/Src/main.c **** if(currMessageLenght == 2 && AddressOK)
 139:Core/Src/main.c **** {
 140:Core/Src/main.c ****   expectedMessageLenght = *rx_buff_ptr + 4;
 141:Core/Src/main.c **** }
 142:Core/Src/main.c **** 
 143:Core/Src/main.c **** if(currMessageLenght > 10 || currMessageLenght > expectedMessageLenght && expectedMessageLenght != 
 144:Core/Src/main.c **** {
 145:Core/Src/main.c ****   rx_buff_ptr = rx_buff;
ARM GAS  C:\Users\user\AppData\Local\Temp\ccreuSL2.s 			page 4


 146:Core/Src/main.c ****   currMessageLenght = 0;
 147:Core/Src/main.c ****   AddressOK = false;
 148:Core/Src/main.c ****   for(int i = 0; i < 10; i++)
 149:Core/Src/main.c ****   {
 150:Core/Src/main.c ****     rx_buff[i] = 0;
 151:Core/Src/main.c ****   }
 152:Core/Src/main.c **** }
 153:Core/Src/main.c **** 
 154:Core/Src/main.c **** if(AddressOK && currMessageLenght == expectedMessageLenght && expectedMessageLenght != 0)
 155:Core/Src/main.c **** {
 156:Core/Src/main.c ****   rx_buff_ptr = rx_buff;
 157:Core/Src/main.c ****   AddressOK = false;
 158:Core/Src/main.c ****   currMessageLenght = 0;
 159:Core/Src/main.c ****   rx_flag = true;
 160:Core/Src/main.c **** }
 161:Core/Src/main.c **** else
 162:Core/Src/main.c **** {
 163:Core/Src/main.c ****   rx_buff[currMessageLenght] = *rx_buff_ptr;
 164:Core/Src/main.c ****   ++rx_buff_ptr;
 165:Core/Src/main.c ****   currMessageLenght++;
 166:Core/Src/main.c **** }
 167:Core/Src/main.c ****     HAL_UART_Receive_IT (&huart2, rx_buff_ptr, 1); 
 168:Core/Src/main.c **** }
 169:Core/Src/main.c **** 
 170:Core/Src/main.c **** 
 171:Core/Src/main.c **** void NOS_ModBus_SendMasterCommand(ModBus_Struct* mb)
 172:Core/Src/main.c **** {
 173:Core/Src/main.c ****    uint8_t message[16];
 174:Core/Src/main.c ****    NOS_Short _CRC;
 175:Core/Src/main.c ****    message[0] = mb->master.Addr;
 176:Core/Src/main.c ****    message[1] = mb->master.Command;
 177:Core/Src/main.c ****    message[2] = mb->master.Reg_Addr.bytes[1];
 178:Core/Src/main.c ****    message[3] = mb->master.Reg_Addr.bytes[0];
 179:Core/Src/main.c ****    message[4] = mb->master.Reg_Count.bytes[1];
 180:Core/Src/main.c ****    message[5] = mb->master.Reg_Count.bytes[0];
 181:Core/Src/main.c **** 
 182:Core/Src/main.c ****    _CRC.data = GetCRC16(&message,6);
 183:Core/Src/main.c **** 
 184:Core/Src/main.c ****    message[6] = _CRC.bytes[0];
 185:Core/Src/main.c ****    message[7] = _CRC.bytes[1];
 186:Core/Src/main.c **** 
 187:Core/Src/main.c ****    HAL_UART_Transmit(&huart2,&message,8,1000);
 188:Core/Src/main.c **** }
 189:Core/Src/main.c **** 
 190:Core/Src/main.c **** /* USER CODE END 0 */
 191:Core/Src/main.c **** 
 192:Core/Src/main.c **** /**
 193:Core/Src/main.c ****   * @brief  The application entry point.
 194:Core/Src/main.c ****   * @retval int
 195:Core/Src/main.c ****   */
 196:Core/Src/main.c **** int main(void)
 197:Core/Src/main.c **** {
 198:Core/Src/main.c ****   /* USER CODE BEGIN 1 */
 199:Core/Src/main.c ****   setlocale(LC_ALL, "Rus");
 200:Core/Src/main.c ****   /* USER CODE END 1 */
 201:Core/Src/main.c **** 
 202:Core/Src/main.c ****   /* MCU Configuration--------------------------------------------------------*/
ARM GAS  C:\Users\user\AppData\Local\Temp\ccreuSL2.s 			page 5


 203:Core/Src/main.c **** 
 204:Core/Src/main.c ****   /* Reset of all peripherals, Initializes the Flash interface and the Systick. */
 205:Core/Src/main.c ****   HAL_Init();
 206:Core/Src/main.c **** 
 207:Core/Src/main.c ****   /* USER CODE BEGIN Init */
 208:Core/Src/main.c **** 
 209:Core/Src/main.c ****   /* USER CODE END Init */
 210:Core/Src/main.c **** 
 211:Core/Src/main.c ****   /* Configure the system clock */
 212:Core/Src/main.c ****   SystemClock_Config();
 213:Core/Src/main.c **** 
 214:Core/Src/main.c ****   /* USER CODE BEGIN SysInit */
 215:Core/Src/main.c **** 
 216:Core/Src/main.c ****   /* USER CODE END SysInit */
 217:Core/Src/main.c **** 
 218:Core/Src/main.c ****   /* Initialize all configured peripherals */
 219:Core/Src/main.c ****   MX_GPIO_Init();
 220:Core/Src/main.c **** //MX_RTC_Init();
 221:Core/Src/main.c ****  // MX_USART1_UART_Init();
 222:Core/Src/main.c ****   MX_USART2_UART_Init();
 223:Core/Src/main.c ****   HAL_UART_Receive_IT(&huart2,rx_buff,1);
 224:Core/Src/main.c ****   MX_TIM6_Init();
 225:Core/Src/main.c ****   visInit();
 226:Core/Src/main.c ****   /* USER CODE BEGIN 2 */
 227:Core/Src/main.c **** 
 228:Core/Src/main.c ****   NOS_WS2812B_Matrix_FullInit(&matrixA,&frameBuffer1,&msA,&red,&fone,&matrixAsymc,40);
 229:Core/Src/main.c ****   NOS_WS2812B_Matrix_FullInit(&matrixB,&frameBuffer2,&msB,&yellow,&fone,&matrixBsymc,40);
 230:Core/Src/main.c ****   NOS_WS2812B_Matrix_FullInit(&matrixC,&frameBuffer3,&msC,&blue,&fone,&matrixCsymc,40);
 231:Core/Src/main.c ****   //NOS_ModBus_InitStruct(&ModBus,&huart2,NULL,PA1);
 232:Core/Src/main.c ****   //NOS_GPIO_PinInit(&PA1,GPIOA,GPIO_PIN_1,Output);
 233:Core/Src/main.c ****   uSv_Value = 1.26f;
 234:Core/Src/main.c ****   realtime.format = Hour24;
 235:Core/Src/main.c ****   detector.Address = 101;
 236:Core/Src/main.c ****   detector.value.data = 0.15f;
 237:Core/Src/main.c ****   detector.first_danger.data = 0.25f;
 238:Core/Src/main.c ****   detector.second_danger.data = 1.25f;
 239:Core/Src/main.c ****   for(int i = 0; i < 1023; i++)
 240:Core/Src/main.c ****   {
 241:Core/Src/main.c ****     fuckBuff[i] = 15;
 242:Core/Src/main.c ****   }
 243:Core/Src/main.c ****   /* USER CODE END 2 */
 244:Core/Src/main.c **** 
 245:Core/Src/main.c ****   /* Infinite loop */
 246:Core/Src/main.c ****   /* USER CODE BEGIN WHILE */
 247:Core/Src/main.c ****   while (1)
 248:Core/Src/main.c ****   {
 249:Core/Src/main.c ****     if(fuckBuff[10] == 12)
 250:Core/Src/main.c ****     {
 251:Core/Src/main.c **** 
 252:Core/Src/main.c ****     }
 253:Core/Src/main.c **** 
 254:Core/Src/main.c ****     if(rx_flag)
 255:Core/Src/main.c ****     {
 256:Core/Src/main.c ****       if(ModBus.state == ReceiveFromMaster)
 257:Core/Src/main.c ****       {
 258:Core/Src/main.c ****         NOS_ModBus_ParseMasterCommand(&ModBus.master,rx_buff,0);
 259:Core/Src/main.c ****       }
ARM GAS  C:\Users\user\AppData\Local\Temp\ccreuSL2.s 			page 6


 260:Core/Src/main.c **** 
 261:Core/Src/main.c ****       if(ModBus.state == ReceiveFromSlave)
 262:Core/Src/main.c ****       {
 263:Core/Src/main.c ****         NOS_ModBus_ParseSlaveCommand(&ModBus.slave,rx_buff,0);
 264:Core/Src/main.c ****         switch (ModBus.master.Reg_Addr.data)
 265:Core/Src/main.c ****         {
 266:Core/Src/main.c ****         case 0x0001:
 267:Core/Src/main.c ****           detector.temperature.data = ModBus.slave.ShortValue.data;
 268:Core/Src/main.c ****           break;
 269:Core/Src/main.c **** 
 270:Core/Src/main.c ****         case 0x0002:
 271:Core/Src/main.c ****           detector.value.data = ModBus.slave.FloatValue.data;
 272:Core/Src/main.c ****           break;
 273:Core/Src/main.c **** 
 274:Core/Src/main.c ****         case 0x0004:
 275:Core/Src/main.c ****           detector.voltage = ModBus.slave.ShortValue.data;
 276:Core/Src/main.c ****           break;
 277:Core/Src/main.c **** 
 278:Core/Src/main.c ****         case 0x0005:
 279:Core/Src/main.c ****           detector.first_danger.data = ModBus.slave.FloatValue.data;
 280:Core/Src/main.c ****           break;
 281:Core/Src/main.c **** 
 282:Core/Src/main.c ****         case 0x0007:
 283:Core/Src/main.c ****           detector.second_danger.data = ModBus.slave.FloatValue.data;
 284:Core/Src/main.c ****           break;
 285:Core/Src/main.c **** 
 286:Core/Src/main.c ****         default:
 287:Core/Src/main.c **** 
 288:Core/Src/main.c ****           break;
 289:Core/Src/main.c ****         }
 290:Core/Src/main.c ****       }
 291:Core/Src/main.c ****       timelastReceiveMessage = 0;
 292:Core/Src/main.c ****       rx_flag = false;
 293:Core/Src/main.c ****       if(timelastReceiveMessage >= 20)
 294:Core/Src/main.c ****       {
 295:Core/Src/main.c ****  //        tx_flag = true;
 296:Core/Src/main.c ****       }
 297:Core/Src/main.c ****       timelastReceiveMessage = 0;
 298:Core/Src/main.c ****     }
 299:Core/Src/main.c ****     
 300:Core/Src/main.c ****     if(tx_flag)
 301:Core/Src/main.c ****     {
 302:Core/Src/main.c ****       if(fuckBuff[5] == 167)
 303:Core/Src/main.c ****       {
 304:Core/Src/main.c **** 
 305:Core/Src/main.c ****       }
 306:Core/Src/main.c ****       HAL_GPIO_WritePin(GPIOA,GPIO_PIN_1,1);
 307:Core/Src/main.c ****       ModBus.master.Addr = 0x65;
 308:Core/Src/main.c ****       ModBus.master.Command = 0x03; 
 309:Core/Src/main.c ****       switch(TxCommandCounter)
 310:Core/Src/main.c ****       {
 311:Core/Src/main.c ****         case 0:
 312:Core/Src/main.c ****         ModBus.master.Reg_Addr.data = 0x0001;
 313:Core/Src/main.c ****         ModBus.master.Reg_Count.data = 0x0001;
 314:Core/Src/main.c ****         break;
 315:Core/Src/main.c ****         
 316:Core/Src/main.c ****         case 1:
ARM GAS  C:\Users\user\AppData\Local\Temp\ccreuSL2.s 			page 7


 317:Core/Src/main.c ****         ModBus.master.Reg_Addr.data = 0x0002;
 318:Core/Src/main.c ****         ModBus.master.Reg_Count.data = 0x0002;
 319:Core/Src/main.c ****         break;
 320:Core/Src/main.c **** 
 321:Core/Src/main.c ****         case 2:
 322:Core/Src/main.c ****         ModBus.master.Reg_Addr.data = 0x0004;
 323:Core/Src/main.c ****         ModBus.master.Reg_Count.data = 0x0001;
 324:Core/Src/main.c ****         break;
 325:Core/Src/main.c **** 
 326:Core/Src/main.c ****         case 3:
 327:Core/Src/main.c ****         ModBus.master.Reg_Addr.data = 0x0005;
 328:Core/Src/main.c ****         ModBus.master.Reg_Count.data = 0x0002;
 329:Core/Src/main.c ****         break;
 330:Core/Src/main.c **** 
 331:Core/Src/main.c ****         case 4:
 332:Core/Src/main.c ****         ModBus.master.Reg_Addr.data = 0x0007;
 333:Core/Src/main.c ****         ModBus.master.Reg_Count.data = 0x0002;
 334:Core/Src/main.c ****         break;
 335:Core/Src/main.c **** 
 336:Core/Src/main.c ****         default:
 337:Core/Src/main.c ****         TxCommandCounter = 0;
 338:Core/Src/main.c ****         break;
 339:Core/Src/main.c ****       }
 340:Core/Src/main.c ****       
 341:Core/Src/main.c ****         NOS_ModBus_SendMasterCommand(&ModBus);
 342:Core/Src/main.c ****         tx_flag = false;
 343:Core/Src/main.c ****       
 344:Core/Src/main.c ****       HAL_GPIO_WritePin(GPIOA,GPIO_PIN_1,0);
 345:Core/Src/main.c ****       TxCommandCounter++;
 346:Core/Src/main.c ****     }
 347:Core/Src/main.c **** 
 348:Core/Src/main.c ****     if(Time > UpdateFrameTime)
 349:Core/Src/main.c ****     {
 350:Core/Src/main.c ****        NOS_WS2812B_Matrix_PrintDetectorValue(&matrixA,&detector,language,&red,&yellow,&green);  
 351:Core/Src/main.c ****        NOS_WS2812B_Matrix_PrintRealTime(&matrixB,realtime);
 352:Core/Src/main.c ****        NOS_WS2812B_Matrix_PrintTemperature(&matrixC,temperature);
 353:Core/Src/main.c ****       //NOS_WS2812B_Matrix_FillColor(&matrixC,&white);
 354:Core/Src/main.c **** 
 355:Core/Src/main.c ****        NOS_WS2812B_Matrix_Update(&matrixA,0);
 356:Core/Src/main.c ****        NOS_WS2812B_Matrix_Update(&matrixB,0);
 357:Core/Src/main.c ****        NOS_WS2812B_Matrix_Update(&matrixC,0);
 358:Core/Src/main.c **** 
 359:Core/Src/main.c ****        visHandle();
 360:Core/Src/main.c ****        Time = 0;
 361:Core/Src/main.c ****     }
 362:Core/Src/main.c ****         /* USER CODE END WHILE */
 363:Core/Src/main.c ****     /* USER CODE BEGIN 3 */
 364:Core/Src/main.c ****   }
 365:Core/Src/main.c ****   /* USER CODE END 3 */
 366:Core/Src/main.c **** }
 367:Core/Src/main.c **** 
 368:Core/Src/main.c **** void SysTick_Handler(void)
 369:Core/Src/main.c **** {
 370:Core/Src/main.c ****   /* USER CODE BEGIN SysTick_IRQn 0 */
 371:Core/Src/main.c **** 
 372:Core/Src/main.c ****   /* USER CODE END SysTick_IRQn 0 */
 373:Core/Src/main.c ****   HAL_IncTick();
ARM GAS  C:\Users\user\AppData\Local\Temp\ccreuSL2.s 			page 8


 374:Core/Src/main.c ****   /* USER CODE BEGIN SysTick_IRQn 1 */
 375:Core/Src/main.c ****   timelastReceiveMessage++;
 376:Core/Src/main.c ****   if(timelastReceiveMessage >= 5000)
 377:Core/Src/main.c ****   {
 378:Core/Src/main.c ****     timelastReceiveMessage = 0;
 379:Core/Src/main.c ****     tx_flag = true;
 380:Core/Src/main.c ****   }
 381:Core/Src/main.c ****   Time++;
 382:Core/Src/main.c ****   NOS_RealTime_Handler(&realtime);
 383:Core/Src/main.c ****   /* USER CODE END SysTick_IRQn 1 */
 384:Core/Src/main.c **** }
 385:Core/Src/main.c **** 
 386:Core/Src/main.c **** /**
 387:Core/Src/main.c ****   * @brief System Clock Configuration
 388:Core/Src/main.c ****   * @retval None
 389:Core/Src/main.c ****   */
 390:Core/Src/main.c **** void SystemClock_Config(void)
 391:Core/Src/main.c **** {
 392:Core/Src/main.c ****   RCC_OscInitTypeDef RCC_OscInitStruct = {0};
 393:Core/Src/main.c ****   RCC_ClkInitTypeDef RCC_ClkInitStruct = {0};
 394:Core/Src/main.c **** 
 395:Core/Src/main.c ****   /** Configure the main internal regulator output voltage
 396:Core/Src/main.c ****   */
 397:Core/Src/main.c ****   __HAL_RCC_PWR_CLK_ENABLE();
 398:Core/Src/main.c ****   __HAL_PWR_VOLTAGESCALING_CONFIG(PWR_REGULATOR_VOLTAGE_SCALE1);
 399:Core/Src/main.c ****   /** Initializes the RCC Oscillators according to the specified parameters
 400:Core/Src/main.c ****   * in the RCC_OscInitTypeDef structure.
 401:Core/Src/main.c ****   */
 402:Core/Src/main.c ****   RCC_OscInitStruct.OscillatorType = RCC_OSCILLATORTYPE_HSI|RCC_OSCILLATORTYPE_LSI;
 403:Core/Src/main.c ****   RCC_OscInitStruct.HSIState = RCC_HSI_ON;
 404:Core/Src/main.c ****   RCC_OscInitStruct.HSICalibrationValue = RCC_HSICALIBRATION_DEFAULT;
 405:Core/Src/main.c ****   RCC_OscInitStruct.LSIState = RCC_LSI_ON;
 406:Core/Src/main.c ****   RCC_OscInitStruct.PLL.PLLState = RCC_PLL_ON;
 407:Core/Src/main.c ****   RCC_OscInitStruct.PLL.PLLSource = RCC_PLLSOURCE_HSI;
 408:Core/Src/main.c ****   RCC_OscInitStruct.PLL.PLLM = 8;
 409:Core/Src/main.c ****   RCC_OscInitStruct.PLL.PLLN = 168;
 410:Core/Src/main.c ****   RCC_OscInitStruct.PLL.PLLP = RCC_PLLP_DIV2;
 411:Core/Src/main.c ****   RCC_OscInitStruct.PLL.PLLQ = 4;
 412:Core/Src/main.c ****   if (HAL_RCC_OscConfig(&RCC_OscInitStruct) != HAL_OK)
 413:Core/Src/main.c ****   {
 414:Core/Src/main.c ****     Error_Handler();
 415:Core/Src/main.c ****   }
 416:Core/Src/main.c ****   /** Initializes the CPU, AHB and APB buses clocks
 417:Core/Src/main.c ****   */
 418:Core/Src/main.c ****   RCC_ClkInitStruct.ClockType = RCC_CLOCKTYPE_HCLK|RCC_CLOCKTYPE_SYSCLK
 419:Core/Src/main.c ****                               |RCC_CLOCKTYPE_PCLK1|RCC_CLOCKTYPE_PCLK2;
 420:Core/Src/main.c ****   RCC_ClkInitStruct.SYSCLKSource = RCC_SYSCLKSOURCE_PLLCLK;
 421:Core/Src/main.c ****   RCC_ClkInitStruct.AHBCLKDivider = RCC_SYSCLK_DIV1;
 422:Core/Src/main.c ****   RCC_ClkInitStruct.APB1CLKDivider = RCC_HCLK_DIV4;
 423:Core/Src/main.c ****   RCC_ClkInitStruct.APB2CLKDivider = RCC_HCLK_DIV2;
 424:Core/Src/main.c **** 
 425:Core/Src/main.c ****   if (HAL_RCC_ClockConfig(&RCC_ClkInitStruct, FLASH_LATENCY_5) != HAL_OK)
 426:Core/Src/main.c ****   {
 427:Core/Src/main.c ****     Error_Handler();
 428:Core/Src/main.c ****   }
 429:Core/Src/main.c **** }
 430:Core/Src/main.c **** 
ARM GAS  C:\Users\user\AppData\Local\Temp\ccreuSL2.s 			page 9


 431:Core/Src/main.c **** /**
 432:Core/Src/main.c ****   * @brief RTC Initialization Function
 433:Core/Src/main.c ****   * @param None
 434:Core/Src/main.c ****   * @retval None
 435:Core/Src/main.c ****   */
 436:Core/Src/main.c **** static void MX_RTC_Init(void)
 437:Core/Src/main.c **** {
 438:Core/Src/main.c **** 
 439:Core/Src/main.c ****   /* USER CODE BEGIN RTC_Init 0 */
 440:Core/Src/main.c **** 
 441:Core/Src/main.c ****   /* USER CODE END RTC_Init 0 */
 442:Core/Src/main.c **** 
 443:Core/Src/main.c ****  // RTC_TimeTypeDef sTime = {0};
 444:Core/Src/main.c ****   RTC_DateTypeDef sDate = {0};
 445:Core/Src/main.c **** 
 446:Core/Src/main.c ****   /* USER CODE BEGIN RTC_Init 1 */
 447:Core/Src/main.c **** 
 448:Core/Src/main.c ****   /* USER CODE END RTC_Init 1 */
 449:Core/Src/main.c ****   /** Initialize RTC Only
 450:Core/Src/main.c ****   */
 451:Core/Src/main.c ****   hrtc.Instance = RTC;
 452:Core/Src/main.c ****   hrtc.Init.HourFormat = RTC_HOURFORMAT_24;
 453:Core/Src/main.c ****   hrtc.Init.AsynchPrediv = 127;
 454:Core/Src/main.c ****   hrtc.Init.SynchPrediv = 255;
 455:Core/Src/main.c ****   hrtc.Init.OutPut = RTC_OUTPUT_DISABLE;
 456:Core/Src/main.c ****   hrtc.Init.OutPutPolarity = RTC_OUTPUT_POLARITY_HIGH;
 457:Core/Src/main.c ****   hrtc.Init.OutPutType = RTC_OUTPUT_TYPE_OPENDRAIN;
 458:Core/Src/main.c ****   if (HAL_RTC_Init(&hrtc) != HAL_OK)
 459:Core/Src/main.c ****   {
 460:Core/Src/main.c ****     Error_Handler();
 461:Core/Src/main.c ****   }
 462:Core/Src/main.c **** 
 463:Core/Src/main.c ****   /* USER CODE BEGIN Check_RTC_BKUP */
 464:Core/Src/main.c **** 
 465:Core/Src/main.c ****   /* USER CODE END Check_RTC_BKUP */
 466:Core/Src/main.c **** 
 467:Core/Src/main.c ****   /** Initialize RTC and set the Time and Date
 468:Core/Src/main.c ****   */
 469:Core/Src/main.c ****   sTime.Hours = 10;
 470:Core/Src/main.c ****   sTime.Minutes = 23;
 471:Core/Src/main.c ****   sTime.Seconds = 0x0;
 472:Core/Src/main.c ****   sTime.DayLightSaving = RTC_DAYLIGHTSAVING_NONE;
 473:Core/Src/main.c ****   sTime.StoreOperation = RTC_STOREOPERATION_RESET;
 474:Core/Src/main.c ****   if (HAL_RTC_SetTime(&hrtc, &sTime, RTC_FORMAT_BCD) != HAL_OK)
 475:Core/Src/main.c ****   {
 476:Core/Src/main.c ****     Error_Handler();
 477:Core/Src/main.c ****   }
 478:Core/Src/main.c ****   sDate.WeekDay = RTC_WEEKDAY_MONDAY;
 479:Core/Src/main.c ****   sDate.Month = RTC_MONTH_JANUARY;
 480:Core/Src/main.c ****   sDate.Date = 0x1;
 481:Core/Src/main.c ****   sDate.Year = 0x0;
 482:Core/Src/main.c **** 
 483:Core/Src/main.c ****   if (HAL_RTC_SetDate(&hrtc, &sDate, RTC_FORMAT_BCD) != HAL_OK)
 484:Core/Src/main.c ****   {
 485:Core/Src/main.c ****     Error_Handler();
 486:Core/Src/main.c ****   }
 487:Core/Src/main.c ****   /* USER CODE BEGIN RTC_Init 2 */
ARM GAS  C:\Users\user\AppData\Local\Temp\ccreuSL2.s 			page 10


 488:Core/Src/main.c **** 
 489:Core/Src/main.c ****   /* USER CODE END RTC_Init 2 */
 490:Core/Src/main.c **** 
 491:Core/Src/main.c **** }
 492:Core/Src/main.c **** 
 493:Core/Src/main.c **** /**
 494:Core/Src/main.c ****   * @brief TIM6 Initialization Function
 495:Core/Src/main.c ****   * @param None
 496:Core/Src/main.c ****   * @retval None
 497:Core/Src/main.c ****   */
 498:Core/Src/main.c **** static void MX_TIM6_Init(void)
 499:Core/Src/main.c **** {
 500:Core/Src/main.c **** 
 501:Core/Src/main.c ****   /* USER CODE BEGIN TIM6_Init 0 */
 502:Core/Src/main.c **** 
 503:Core/Src/main.c ****   /* USER CODE END TIM6_Init 0 */
 504:Core/Src/main.c **** 
 505:Core/Src/main.c ****   TIM_MasterConfigTypeDef sMasterConfig = {0};
 506:Core/Src/main.c **** 
 507:Core/Src/main.c ****   /* USER CODE BEGIN TIM6_Init 1 */
 508:Core/Src/main.c **** 
 509:Core/Src/main.c ****   /* USER CODE END TIM6_Init 1 */
 510:Core/Src/main.c ****   htim6.Instance = TIM6;
 511:Core/Src/main.c ****   htim6.Init.Prescaler = 0;
 512:Core/Src/main.c ****   htim6.Init.CounterMode = TIM_COUNTERMODE_UP;
 513:Core/Src/main.c ****   htim6.Init.Period = 65535;
 514:Core/Src/main.c ****   htim6.Init.AutoReloadPreload = TIM_AUTORELOAD_PRELOAD_DISABLE;
 515:Core/Src/main.c ****   if (HAL_TIM_Base_Init(&htim6) != HAL_OK)
 516:Core/Src/main.c ****   {
 517:Core/Src/main.c ****     Error_Handler();
 518:Core/Src/main.c ****   }
 519:Core/Src/main.c ****   sMasterConfig.MasterOutputTrigger = TIM_TRGO_RESET;
 520:Core/Src/main.c ****   sMasterConfig.MasterSlaveMode = TIM_MASTERSLAVEMODE_DISABLE;
 521:Core/Src/main.c ****   if (HAL_TIMEx_MasterConfigSynchronization(&htim6, &sMasterConfig) != HAL_OK)
 522:Core/Src/main.c ****   {
 523:Core/Src/main.c ****     Error_Handler();
 524:Core/Src/main.c ****   }
 525:Core/Src/main.c ****   /* USER CODE BEGIN TIM6_Init 2 */
 526:Core/Src/main.c **** 
 527:Core/Src/main.c ****   /* USER CODE END TIM6_Init 2 */
 528:Core/Src/main.c **** 
 529:Core/Src/main.c **** }
 530:Core/Src/main.c **** 
 531:Core/Src/main.c **** /**
 532:Core/Src/main.c ****   * @brief USART1 Initialization Function
 533:Core/Src/main.c ****   * @param None
 534:Core/Src/main.c ****   * @retval None
 535:Core/Src/main.c ****   */
 536:Core/Src/main.c **** static void MX_USART1_UART_Init(void)
 537:Core/Src/main.c **** {
 538:Core/Src/main.c **** 
 539:Core/Src/main.c ****   /* USER CODE BEGIN USART1_Init 0 */
 540:Core/Src/main.c **** 
 541:Core/Src/main.c ****   /* USER CODE END USART1_Init 0 */
 542:Core/Src/main.c **** 
 543:Core/Src/main.c ****   /* USER CODE BEGIN USART1_Init 1 */
 544:Core/Src/main.c **** 
ARM GAS  C:\Users\user\AppData\Local\Temp\ccreuSL2.s 			page 11


 545:Core/Src/main.c ****   /* USER CODE END USART1_Init 1 */
 546:Core/Src/main.c ****   huart1.Instance = USART1;
 547:Core/Src/main.c ****   huart1.Init.BaudRate = 9600;
 548:Core/Src/main.c ****   huart1.Init.WordLength = UART_WORDLENGTH_8B;
 549:Core/Src/main.c ****   huart1.Init.StopBits = UART_STOPBITS_1;
 550:Core/Src/main.c ****   huart1.Init.Parity = UART_PARITY_NONE;
 551:Core/Src/main.c ****   huart1.Init.Mode = UART_MODE_TX_RX;
 552:Core/Src/main.c ****   huart1.Init.HwFlowCtl = UART_HWCONTROL_NONE;
 553:Core/Src/main.c ****   huart1.Init.OverSampling = UART_OVERSAMPLING_16;
 554:Core/Src/main.c ****   if (HAL_UART_Init(&huart1) != HAL_OK)
 555:Core/Src/main.c ****   {
 556:Core/Src/main.c ****     Error_Handler();
 557:Core/Src/main.c ****   }
 558:Core/Src/main.c ****   /* USER CODE BEGIN USART1_Init 2 */
 559:Core/Src/main.c **** 
 560:Core/Src/main.c ****   /* USER CODE END USART1_Init 2 */
 561:Core/Src/main.c **** 
 562:Core/Src/main.c **** }
 563:Core/Src/main.c **** 
 564:Core/Src/main.c **** /**
 565:Core/Src/main.c ****   * @brief USART2 Initialization Function
 566:Core/Src/main.c ****   * @param None
 567:Core/Src/main.c ****   * @retval None
 568:Core/Src/main.c ****   */
 569:Core/Src/main.c **** static void MX_USART2_UART_Init(void)
 570:Core/Src/main.c **** {
 571:Core/Src/main.c **** 
 572:Core/Src/main.c ****   /* USER CODE BEGIN USART2_Init 0 */
 573:Core/Src/main.c **** 
 574:Core/Src/main.c ****   /* USER CODE END USART2_Init 0 */
 575:Core/Src/main.c **** 
 576:Core/Src/main.c ****   /* USER CODE BEGIN USART2_Init 1 */
 577:Core/Src/main.c **** 
 578:Core/Src/main.c ****   /* USER CODE END USART2_Init 1 */
 579:Core/Src/main.c ****   huart2.Instance = USART2;
 580:Core/Src/main.c ****   huart2.Init.BaudRate = 9600;
 581:Core/Src/main.c ****   huart2.Init.WordLength = UART_WORDLENGTH_8B;
 582:Core/Src/main.c ****   huart2.Init.StopBits = UART_STOPBITS_1;
 583:Core/Src/main.c ****   huart2.Init.Parity = UART_PARITY_NONE;
 584:Core/Src/main.c ****   huart2.Init.Mode = UART_MODE_TX_RX;
 585:Core/Src/main.c ****   huart2.Init.HwFlowCtl = UART_HWCONTROL_NONE;
 586:Core/Src/main.c ****   huart2.Init.OverSampling = UART_OVERSAMPLING_16;
 587:Core/Src/main.c ****   if (HAL_UART_Init(&huart2) != HAL_OK)
 588:Core/Src/main.c ****   {
 589:Core/Src/main.c ****     Error_Handler();
 590:Core/Src/main.c ****   }
 591:Core/Src/main.c ****   /* USER CODE BEGIN USART2_Init 2 */
 592:Core/Src/main.c **** 
 593:Core/Src/main.c ****   /* USER CODE END USART2_Init 2 */
 594:Core/Src/main.c **** 
 595:Core/Src/main.c **** }
 596:Core/Src/main.c **** 
 597:Core/Src/main.c **** /**
 598:Core/Src/main.c ****   * @brief GPIO Initialization Function
 599:Core/Src/main.c ****   * @param None
 600:Core/Src/main.c ****   * @retval None
 601:Core/Src/main.c ****   */
ARM GAS  C:\Users\user\AppData\Local\Temp\ccreuSL2.s 			page 12


 602:Core/Src/main.c **** static void MX_GPIO_Init(void)
 603:Core/Src/main.c **** {
  28              		.loc 1 603 1 view -0
  29              		.cfi_startproc
  30              		@ args = 0, pretend = 0, frame = 32
  31              		@ frame_needed = 0, uses_anonymous_args = 0
  32 0000 2DE9F041 		push	{r4, r5, r6, r7, r8, lr}
  33              	.LCFI0:
  34              		.cfi_def_cfa_offset 24
  35              		.cfi_offset 4, -24
  36              		.cfi_offset 5, -20
  37              		.cfi_offset 6, -16
  38              		.cfi_offset 7, -12
  39              		.cfi_offset 8, -8
  40              		.cfi_offset 14, -4
  41 0004 88B0     		sub	sp, sp, #32
  42              	.LCFI1:
  43              		.cfi_def_cfa_offset 56
 604:Core/Src/main.c ****   GPIO_InitTypeDef GPIO_InitStruct = {0};
  44              		.loc 1 604 3 view .LVU1
  45              		.loc 1 604 20 is_stmt 0 view .LVU2
  46 0006 0024     		movs	r4, #0
  47 0008 0394     		str	r4, [sp, #12]
  48 000a 0494     		str	r4, [sp, #16]
  49 000c 0594     		str	r4, [sp, #20]
  50 000e 0694     		str	r4, [sp, #24]
  51 0010 0794     		str	r4, [sp, #28]
 605:Core/Src/main.c **** 
 606:Core/Src/main.c ****   /* GPIO Ports Clock Enable */
 607:Core/Src/main.c ****   __HAL_RCC_GPIOC_CLK_ENABLE();
  52              		.loc 1 607 3 is_stmt 1 view .LVU3
  53              	.LBB4:
  54              		.loc 1 607 3 view .LVU4
  55 0012 0094     		str	r4, [sp]
  56              		.loc 1 607 3 view .LVU5
  57 0014 294B     		ldr	r3, .L3
  58 0016 1A6B     		ldr	r2, [r3, #48]
  59 0018 42F00402 		orr	r2, r2, #4
  60 001c 1A63     		str	r2, [r3, #48]
  61              		.loc 1 607 3 view .LVU6
  62 001e 1A6B     		ldr	r2, [r3, #48]
  63 0020 02F00402 		and	r2, r2, #4
  64 0024 0092     		str	r2, [sp]
  65              		.loc 1 607 3 view .LVU7
  66 0026 009A     		ldr	r2, [sp]
  67              	.LBE4:
  68              		.loc 1 607 3 view .LVU8
 608:Core/Src/main.c ****   __HAL_RCC_GPIOA_CLK_ENABLE();
  69              		.loc 1 608 3 view .LVU9
  70              	.LBB5:
  71              		.loc 1 608 3 view .LVU10
  72 0028 0194     		str	r4, [sp, #4]
  73              		.loc 1 608 3 view .LVU11
  74 002a 1A6B     		ldr	r2, [r3, #48]
  75 002c 42F00102 		orr	r2, r2, #1
  76 0030 1A63     		str	r2, [r3, #48]
  77              		.loc 1 608 3 view .LVU12
ARM GAS  C:\Users\user\AppData\Local\Temp\ccreuSL2.s 			page 13


  78 0032 1A6B     		ldr	r2, [r3, #48]
  79 0034 02F00102 		and	r2, r2, #1
  80 0038 0192     		str	r2, [sp, #4]
  81              		.loc 1 608 3 view .LVU13
  82 003a 019A     		ldr	r2, [sp, #4]
  83              	.LBE5:
  84              		.loc 1 608 3 view .LVU14
 609:Core/Src/main.c ****   __HAL_RCC_GPIOD_CLK_ENABLE();
  85              		.loc 1 609 3 view .LVU15
  86              	.LBB6:
  87              		.loc 1 609 3 view .LVU16
  88 003c 0294     		str	r4, [sp, #8]
  89              		.loc 1 609 3 view .LVU17
  90 003e 1A6B     		ldr	r2, [r3, #48]
  91 0040 42F00802 		orr	r2, r2, #8
  92 0044 1A63     		str	r2, [r3, #48]
  93              		.loc 1 609 3 view .LVU18
  94 0046 1B6B     		ldr	r3, [r3, #48]
  95 0048 03F00803 		and	r3, r3, #8
  96 004c 0293     		str	r3, [sp, #8]
  97              		.loc 1 609 3 view .LVU19
  98 004e 029B     		ldr	r3, [sp, #8]
  99              	.LBE6:
 100              		.loc 1 609 3 view .LVU20
 610:Core/Src/main.c **** 
 611:Core/Src/main.c ****   /*Configure GPIO pin Output Level */
 612:Core/Src/main.c ****   HAL_GPIO_WritePin(GPIOD, GPIO_PIN_12|GPIO_PIN_13|GPIO_PIN_14|GPIO_PIN_15, GPIO_PIN_RESET);
 101              		.loc 1 612 3 view .LVU21
 102 0050 DFF87480 		ldr	r8, .L3+12
 103 0054 2246     		mov	r2, r4
 104 0056 4FF47041 		mov	r1, #61440
 105 005a 4046     		mov	r0, r8
 106 005c FFF7FEFF 		bl	HAL_GPIO_WritePin
 107              	.LVL0:
 613:Core/Src/main.c ****   HAL_GPIO_WritePin(GPIOC, GPIO_PIN_13,0);
 108              		.loc 1 613 3 view .LVU22
 109 0060 174F     		ldr	r7, .L3+4
 110 0062 2246     		mov	r2, r4
 111 0064 4FF40051 		mov	r1, #8192
 112 0068 3846     		mov	r0, r7
 113 006a FFF7FEFF 		bl	HAL_GPIO_WritePin
 114              	.LVL1:
 614:Core/Src/main.c ****   HAL_GPIO_WritePin(GPIOA, GPIO_PIN_1|GPIO_PIN_4,0);
 115              		.loc 1 614 3 view .LVU23
 116 006e 154E     		ldr	r6, .L3+8
 117 0070 2246     		mov	r2, r4
 118 0072 1221     		movs	r1, #18
 119 0074 3046     		mov	r0, r6
 120 0076 FFF7FEFF 		bl	HAL_GPIO_WritePin
 121              	.LVL2:
 615:Core/Src/main.c ****   /*Configure GPIO pins : PD12 PD13 PD14 PD15 */
 616:Core/Src/main.c ****   GPIO_InitStruct.Pin = GPIO_PIN_12|GPIO_PIN_13|GPIO_PIN_14|GPIO_PIN_15;
 122              		.loc 1 616 3 view .LVU24
 123              		.loc 1 616 23 is_stmt 0 view .LVU25
 124 007a 4FF47043 		mov	r3, #61440
 125 007e 0393     		str	r3, [sp, #12]
 617:Core/Src/main.c ****   GPIO_InitStruct.Mode = GPIO_MODE_OUTPUT_PP;
ARM GAS  C:\Users\user\AppData\Local\Temp\ccreuSL2.s 			page 14


 126              		.loc 1 617 3 is_stmt 1 view .LVU26
 127              		.loc 1 617 24 is_stmt 0 view .LVU27
 128 0080 0125     		movs	r5, #1
 129 0082 0495     		str	r5, [sp, #16]
 618:Core/Src/main.c ****   GPIO_InitStruct.Pull = GPIO_NOPULL;
 130              		.loc 1 618 3 is_stmt 1 view .LVU28
 131              		.loc 1 618 24 is_stmt 0 view .LVU29
 132 0084 0594     		str	r4, [sp, #20]
 619:Core/Src/main.c ****   GPIO_InitStruct.Speed = GPIO_SPEED_FREQ_LOW;
 133              		.loc 1 619 3 is_stmt 1 view .LVU30
 134              		.loc 1 619 25 is_stmt 0 view .LVU31
 135 0086 0694     		str	r4, [sp, #24]
 620:Core/Src/main.c ****   HAL_GPIO_Init(GPIOD, &GPIO_InitStruct);
 136              		.loc 1 620 3 is_stmt 1 view .LVU32
 137 0088 03A9     		add	r1, sp, #12
 138 008a 4046     		mov	r0, r8
 139 008c FFF7FEFF 		bl	HAL_GPIO_Init
 140              	.LVL3:
 621:Core/Src/main.c **** 
 622:Core/Src/main.c ****     GPIO_InitStruct.Pin = GPIO_PIN_13;
 141              		.loc 1 622 5 view .LVU33
 142              		.loc 1 622 25 is_stmt 0 view .LVU34
 143 0090 4FF40053 		mov	r3, #8192
 144 0094 0393     		str	r3, [sp, #12]
 623:Core/Src/main.c ****   GPIO_InitStruct.Mode = GPIO_MODE_OUTPUT_PP;
 145              		.loc 1 623 3 is_stmt 1 view .LVU35
 146              		.loc 1 623 24 is_stmt 0 view .LVU36
 147 0096 0495     		str	r5, [sp, #16]
 624:Core/Src/main.c ****   GPIO_InitStruct.Pull = GPIO_NOPULL;
 148              		.loc 1 624 3 is_stmt 1 view .LVU37
 149              		.loc 1 624 24 is_stmt 0 view .LVU38
 150 0098 0594     		str	r4, [sp, #20]
 625:Core/Src/main.c ****   GPIO_InitStruct.Speed = GPIO_SPEED_FREQ_LOW;
 151              		.loc 1 625 3 is_stmt 1 view .LVU39
 152              		.loc 1 625 25 is_stmt 0 view .LVU40
 153 009a 0694     		str	r4, [sp, #24]
 626:Core/Src/main.c ****   HAL_GPIO_Init(GPIOC, &GPIO_InitStruct);
 154              		.loc 1 626 3 is_stmt 1 view .LVU41
 155 009c 03A9     		add	r1, sp, #12
 156 009e 3846     		mov	r0, r7
 157 00a0 FFF7FEFF 		bl	HAL_GPIO_Init
 158              	.LVL4:
 627:Core/Src/main.c **** 
 628:Core/Src/main.c ****   GPIO_InitStruct.Pin = GPIO_PIN_1|GPIO_PIN_4;
 159              		.loc 1 628 3 view .LVU42
 160              		.loc 1 628 23 is_stmt 0 view .LVU43
 161 00a4 1223     		movs	r3, #18
 162 00a6 0393     		str	r3, [sp, #12]
 629:Core/Src/main.c ****   GPIO_InitStruct.Mode = GPIO_MODE_OUTPUT_PP;
 163              		.loc 1 629 3 is_stmt 1 view .LVU44
 164              		.loc 1 629 24 is_stmt 0 view .LVU45
 165 00a8 0495     		str	r5, [sp, #16]
 630:Core/Src/main.c ****   GPIO_InitStruct.Pull = GPIO_NOPULL;
 166              		.loc 1 630 3 is_stmt 1 view .LVU46
 167              		.loc 1 630 24 is_stmt 0 view .LVU47
 168 00aa 0594     		str	r4, [sp, #20]
 631:Core/Src/main.c ****   GPIO_InitStruct.Speed = GPIO_SPEED_FREQ_LOW;
ARM GAS  C:\Users\user\AppData\Local\Temp\ccreuSL2.s 			page 15


 169              		.loc 1 631 3 is_stmt 1 view .LVU48
 170              		.loc 1 631 25 is_stmt 0 view .LVU49
 171 00ac 0694     		str	r4, [sp, #24]
 632:Core/Src/main.c ****   HAL_GPIO_Init(GPIOA, &GPIO_InitStruct);
 172              		.loc 1 632 3 is_stmt 1 view .LVU50
 173 00ae 03A9     		add	r1, sp, #12
 174 00b0 3046     		mov	r0, r6
 175 00b2 FFF7FEFF 		bl	HAL_GPIO_Init
 176              	.LVL5:
 633:Core/Src/main.c **** 
 634:Core/Src/main.c **** 
 635:Core/Src/main.c **** }
 177              		.loc 1 635 1 is_stmt 0 view .LVU51
 178 00b6 08B0     		add	sp, sp, #32
 179              	.LCFI2:
 180              		.cfi_def_cfa_offset 24
 181              		@ sp needed
 182 00b8 BDE8F081 		pop	{r4, r5, r6, r7, r8, pc}
 183              	.L4:
 184              		.align	2
 185              	.L3:
 186 00bc 00380240 		.word	1073887232
 187 00c0 00080240 		.word	1073874944
 188 00c4 00000240 		.word	1073872896
 189 00c8 000C0240 		.word	1073875968
 190              		.cfi_endproc
 191              	.LFE139:
 193              		.section	.text.HAL_UART_RxCpltCallback,"ax",%progbits
 194              		.align	1
 195              		.global	HAL_UART_RxCpltCallback
 196              		.syntax unified
 197              		.thumb
 198              		.thumb_func
 199              		.fpu fpv4-sp-d16
 201              	HAL_UART_RxCpltCallback:
 202              	.LVL6:
 203              	.LFB130:
 121:Core/Src/main.c ****   //NOS_ModBus_ReceiveHandler(&ModBus);
 204              		.loc 1 121 58 is_stmt 1 view -0
 205              		.cfi_startproc
 206              		@ args = 0, pretend = 0, frame = 0
 207              		@ frame_needed = 0, uses_anonymous_args = 0
 121:Core/Src/main.c ****   //NOS_ModBus_ReceiveHandler(&ModBus);
 208              		.loc 1 121 58 is_stmt 0 view .LVU53
 209 0000 10B5     		push	{r4, lr}
 210              	.LCFI3:
 211              		.cfi_def_cfa_offset 8
 212              		.cfi_offset 4, -8
 213              		.cfi_offset 14, -4
 123:Core/Src/main.c **** 
 214              		.loc 1 123 1 is_stmt 1 view .LVU54
 125:Core/Src/main.c **** fuckIndex++;
 215              		.loc 1 125 1 view .LVU55
 125:Core/Src/main.c **** fuckIndex++;
 216              		.loc 1 125 23 is_stmt 0 view .LVU56
 217 0002 364B     		ldr	r3, .L19
 218 0004 1A68     		ldr	r2, [r3]
ARM GAS  C:\Users\user\AppData\Local\Temp\ccreuSL2.s 			page 16


 125:Core/Src/main.c **** fuckIndex++;
 219              		.loc 1 125 9 view .LVU57
 220 0006 3649     		ldr	r1, .L19+4
 221 0008 0B88     		ldrh	r3, [r1]
 125:Core/Src/main.c **** fuckIndex++;
 222              		.loc 1 125 23 view .LVU58
 223 000a 92F800C0 		ldrb	ip, [r2]	@ zero_extendqisi2
 125:Core/Src/main.c **** fuckIndex++;
 224              		.loc 1 125 21 view .LVU59
 225 000e 3548     		ldr	r0, .L19+8
 226              	.LVL7:
 125:Core/Src/main.c **** fuckIndex++;
 227              		.loc 1 125 21 view .LVU60
 228 0010 00F803C0 		strb	ip, [r0, r3]
 126:Core/Src/main.c **** if(fuckIndex > 1023)
 229              		.loc 1 126 1 is_stmt 1 view .LVU61
 126:Core/Src/main.c **** if(fuckIndex > 1023)
 230              		.loc 1 126 10 is_stmt 0 view .LVU62
 231 0014 0133     		adds	r3, r3, #1
 232 0016 9BB2     		uxth	r3, r3
 233 0018 0B80     		strh	r3, [r1]	@ movhi
 127:Core/Src/main.c **** {
 234              		.loc 1 127 1 is_stmt 1 view .LVU63
 127:Core/Src/main.c **** {
 235              		.loc 1 127 3 is_stmt 0 view .LVU64
 236 001a B3F5806F 		cmp	r3, #1024
 237 001e 02D3     		bcc	.L6
 129:Core/Src/main.c **** }
 238              		.loc 1 129 3 is_stmt 1 view .LVU65
 129:Core/Src/main.c **** }
 239              		.loc 1 129 13 is_stmt 0 view .LVU66
 240 0020 0B46     		mov	r3, r1
 241 0022 0021     		movs	r1, #0
 242 0024 1980     		strh	r1, [r3]	@ movhi
 243              	.L6:
 132:Core/Src/main.c **** {
 244              		.loc 1 132 1 is_stmt 1 view .LVU67
 132:Core/Src/main.c **** {
 245              		.loc 1 132 4 is_stmt 0 view .LVU68
 246 0026 1378     		ldrb	r3, [r2]	@ zero_extendqisi2
 132:Core/Src/main.c **** {
 247              		.loc 1 132 3 view .LVU69
 248 0028 652B     		cmp	r3, #101
 249 002a 13D0     		beq	.L16
 250              	.L7:
 138:Core/Src/main.c **** {
 251              		.loc 1 138 1 is_stmt 1 view .LVU70
 138:Core/Src/main.c **** {
 252              		.loc 1 138 22 is_stmt 0 view .LVU71
 253 002c 2E4B     		ldr	r3, .L19+12
 254 002e 1B78     		ldrb	r3, [r3]	@ zero_extendqisi2
 138:Core/Src/main.c **** {
 255              		.loc 1 138 3 view .LVU72
 256 0030 022B     		cmp	r3, #2
 257 0032 1AD0     		beq	.L17
 258              	.L8:
 143:Core/Src/main.c **** {
ARM GAS  C:\Users\user\AppData\Local\Temp\ccreuSL2.s 			page 17


 259              		.loc 1 143 1 is_stmt 1 view .LVU73
 143:Core/Src/main.c **** {
 260              		.loc 1 143 3 is_stmt 0 view .LVU74
 261 0034 0A2B     		cmp	r3, #10
 262 0036 04D8     		bhi	.L9
 143:Core/Src/main.c **** {
 263              		.loc 1 143 48 discriminator 1 view .LVU75
 264 0038 2C4A     		ldr	r2, .L19+16
 265 003a 1278     		ldrb	r2, [r2]	@ zero_extendqisi2
 143:Core/Src/main.c **** {
 266              		.loc 1 143 27 discriminator 1 view .LVU76
 267 003c 9342     		cmp	r3, r2
 268 003e 23D9     		bls	.L10
 143:Core/Src/main.c **** {
 269              		.loc 1 143 72 discriminator 2 view .LVU77
 270 0040 12B3     		cbz	r2, .L10
 271              	.L9:
 145:Core/Src/main.c ****   currMessageLenght = 0;
 272              		.loc 1 145 3 is_stmt 1 view .LVU78
 145:Core/Src/main.c ****   currMessageLenght = 0;
 273              		.loc 1 145 15 is_stmt 0 view .LVU79
 274 0042 264B     		ldr	r3, .L19
 275 0044 2A4A     		ldr	r2, .L19+20
 276 0046 1A60     		str	r2, [r3]
 146:Core/Src/main.c ****   AddressOK = false;
 277              		.loc 1 146 3 is_stmt 1 view .LVU80
 146:Core/Src/main.c ****   AddressOK = false;
 278              		.loc 1 146 21 is_stmt 0 view .LVU81
 279 0048 0023     		movs	r3, #0
 280 004a 274A     		ldr	r2, .L19+12
 281 004c 1370     		strb	r3, [r2]
 147:Core/Src/main.c ****   for(int i = 0; i < 10; i++)
 282              		.loc 1 147 3 is_stmt 1 view .LVU82
 147:Core/Src/main.c ****   for(int i = 0; i < 10; i++)
 283              		.loc 1 147 13 is_stmt 0 view .LVU83
 284 004e 294A     		ldr	r2, .L19+24
 285 0050 1370     		strb	r3, [r2]
 148:Core/Src/main.c ****   {
 286              		.loc 1 148 3 is_stmt 1 view .LVU84
 287              	.LBB7:
 148:Core/Src/main.c ****   {
 288              		.loc 1 148 7 view .LVU85
 289              	.LVL8:
 148:Core/Src/main.c ****   {
 290              		.loc 1 148 3 is_stmt 0 view .LVU86
 291 0052 17E0     		b	.L11
 292              	.LVL9:
 293              	.L16:
 148:Core/Src/main.c ****   {
 294              		.loc 1 148 3 view .LVU87
 295              	.LBE7:
 132:Core/Src/main.c **** {
 296              		.loc 1 132 27 discriminator 1 view .LVU88
 297 0054 274B     		ldr	r3, .L19+24
 298 0056 1B78     		ldrb	r3, [r3]	@ zero_extendqisi2
 132:Core/Src/main.c **** {
 299              		.loc 1 132 24 discriminator 1 view .LVU89
ARM GAS  C:\Users\user\AppData\Local\Temp\ccreuSL2.s 			page 18


 300 0058 002B     		cmp	r3, #0
 301 005a E7D1     		bne	.L7
 134:Core/Src/main.c ****   currMessageLenght = 0;
 302              		.loc 1 134 3 is_stmt 1 view .LVU90
 134:Core/Src/main.c ****   currMessageLenght = 0;
 303              		.loc 1 134 13 is_stmt 0 view .LVU91
 304 005c 254B     		ldr	r3, .L19+24
 305 005e 0121     		movs	r1, #1
 306 0060 1970     		strb	r1, [r3]
 135:Core/Src/main.c **** }
 307              		.loc 1 135 3 is_stmt 1 view .LVU92
 135:Core/Src/main.c **** }
 308              		.loc 1 135 21 is_stmt 0 view .LVU93
 309 0062 214B     		ldr	r3, .L19+12
 310 0064 0021     		movs	r1, #0
 311 0066 1970     		strb	r1, [r3]
 312 0068 E0E7     		b	.L7
 313              	.L17:
 138:Core/Src/main.c **** {
 314              		.loc 1 138 27 discriminator 1 view .LVU94
 315 006a 2249     		ldr	r1, .L19+24
 316 006c 0978     		ldrb	r1, [r1]	@ zero_extendqisi2
 317 006e 0029     		cmp	r1, #0
 318 0070 E0D0     		beq	.L8
 140:Core/Src/main.c **** }
 319              		.loc 1 140 3 is_stmt 1 view .LVU95
 140:Core/Src/main.c **** }
 320              		.loc 1 140 27 is_stmt 0 view .LVU96
 321 0072 1278     		ldrb	r2, [r2]	@ zero_extendqisi2
 140:Core/Src/main.c **** }
 322              		.loc 1 140 40 view .LVU97
 323 0074 0432     		adds	r2, r2, #4
 140:Core/Src/main.c **** }
 324              		.loc 1 140 25 view .LVU98
 325 0076 1D49     		ldr	r1, .L19+16
 326 0078 0A70     		strb	r2, [r1]
 327 007a DBE7     		b	.L8
 328              	.LVL10:
 329              	.L12:
 330              	.LBB8:
 150:Core/Src/main.c ****   }
 331              		.loc 1 150 5 is_stmt 1 discriminator 3 view .LVU99
 150:Core/Src/main.c ****   }
 332              		.loc 1 150 16 is_stmt 0 discriminator 3 view .LVU100
 333 007c 1C4A     		ldr	r2, .L19+20
 334 007e 0021     		movs	r1, #0
 335 0080 D154     		strb	r1, [r2, r3]
 148:Core/Src/main.c ****   {
 336              		.loc 1 148 26 is_stmt 1 discriminator 3 view .LVU101
 148:Core/Src/main.c ****   {
 337              		.loc 1 148 27 is_stmt 0 discriminator 3 view .LVU102
 338 0082 0133     		adds	r3, r3, #1
 339              	.LVL11:
 340              	.L11:
 148:Core/Src/main.c ****   {
 341              		.loc 1 148 18 is_stmt 1 discriminator 1 view .LVU103
 148:Core/Src/main.c ****   {
ARM GAS  C:\Users\user\AppData\Local\Temp\ccreuSL2.s 			page 19


 342              		.loc 1 148 3 is_stmt 0 discriminator 1 view .LVU104
 343 0084 092B     		cmp	r3, #9
 344 0086 F9DD     		ble	.L12
 345              	.LVL12:
 346              	.L10:
 148:Core/Src/main.c ****   {
 347              		.loc 1 148 3 discriminator 1 view .LVU105
 348              	.LBE8:
 154:Core/Src/main.c **** {
 349              		.loc 1 154 1 is_stmt 1 view .LVU106
 154:Core/Src/main.c **** {
 350              		.loc 1 154 4 is_stmt 0 view .LVU107
 351 0088 1A4B     		ldr	r3, .L19+24
 352 008a 1B78     		ldrb	r3, [r3]	@ zero_extendqisi2
 154:Core/Src/main.c **** {
 353              		.loc 1 154 3 view .LVU108
 354 008c 2BB1     		cbz	r3, .L13
 154:Core/Src/main.c **** {
 355              		.loc 1 154 35 discriminator 1 view .LVU109
 356 008e 164B     		ldr	r3, .L19+12
 357 0090 1A78     		ldrb	r2, [r3]	@ zero_extendqisi2
 358 0092 164B     		ldr	r3, .L19+16
 359 0094 1B78     		ldrb	r3, [r3]	@ zero_extendqisi2
 154:Core/Src/main.c **** {
 360              		.loc 1 154 14 discriminator 1 view .LVU110
 361 0096 9A42     		cmp	r2, r3
 362 0098 12D0     		beq	.L18
 363              	.L13:
 163:Core/Src/main.c ****   ++rx_buff_ptr;
 364              		.loc 1 163 3 is_stmt 1 view .LVU111
 163:Core/Src/main.c ****   ++rx_buff_ptr;
 365              		.loc 1 163 32 is_stmt 0 view .LVU112
 366 009a 1048     		ldr	r0, .L19
 163:Core/Src/main.c ****   ++rx_buff_ptr;
 367              		.loc 1 163 10 view .LVU113
 368 009c 1249     		ldr	r1, .L19+12
 369 009e 0B78     		ldrb	r3, [r1]	@ zero_extendqisi2
 163:Core/Src/main.c ****   ++rx_buff_ptr;
 370              		.loc 1 163 32 view .LVU114
 371 00a0 0268     		ldr	r2, [r0]
 372 00a2 12F801CB 		ldrb	ip, [r2], #1	@ zero_extendqisi2
 163:Core/Src/main.c ****   ++rx_buff_ptr;
 373              		.loc 1 163 30 view .LVU115
 374 00a6 124C     		ldr	r4, .L19+20
 375 00a8 04F803C0 		strb	ip, [r4, r3]
 164:Core/Src/main.c ****   currMessageLenght++;
 376              		.loc 1 164 3 is_stmt 1 view .LVU116
 377 00ac 0260     		str	r2, [r0]
 165:Core/Src/main.c **** }
 378              		.loc 1 165 3 view .LVU117
 165:Core/Src/main.c **** }
 379              		.loc 1 165 20 is_stmt 0 view .LVU118
 380 00ae 0133     		adds	r3, r3, #1
 381 00b0 0B70     		strb	r3, [r1]
 382              	.L14:
 167:Core/Src/main.c **** }
 383              		.loc 1 167 5 is_stmt 1 view .LVU119
ARM GAS  C:\Users\user\AppData\Local\Temp\ccreuSL2.s 			page 20


 384 00b2 0122     		movs	r2, #1
 385 00b4 094B     		ldr	r3, .L19
 386 00b6 1968     		ldr	r1, [r3]
 387 00b8 0F48     		ldr	r0, .L19+28
 388 00ba FFF7FEFF 		bl	HAL_UART_Receive_IT
 389              	.LVL13:
 168:Core/Src/main.c **** 
 390              		.loc 1 168 1 is_stmt 0 view .LVU120
 391 00be 10BD     		pop	{r4, pc}
 392              	.L18:
 154:Core/Src/main.c **** {
 393              		.loc 1 154 60 discriminator 2 view .LVU121
 394 00c0 002B     		cmp	r3, #0
 395 00c2 EAD0     		beq	.L13
 156:Core/Src/main.c ****   AddressOK = false;
 396              		.loc 1 156 3 is_stmt 1 view .LVU122
 156:Core/Src/main.c ****   AddressOK = false;
 397              		.loc 1 156 15 is_stmt 0 view .LVU123
 398 00c4 054B     		ldr	r3, .L19
 399 00c6 0A4A     		ldr	r2, .L19+20
 400 00c8 1A60     		str	r2, [r3]
 157:Core/Src/main.c ****   currMessageLenght = 0;
 401              		.loc 1 157 3 is_stmt 1 view .LVU124
 157:Core/Src/main.c ****   currMessageLenght = 0;
 402              		.loc 1 157 13 is_stmt 0 view .LVU125
 403 00ca 0023     		movs	r3, #0
 404 00cc 094A     		ldr	r2, .L19+24
 405 00ce 1370     		strb	r3, [r2]
 158:Core/Src/main.c ****   rx_flag = true;
 406              		.loc 1 158 3 is_stmt 1 view .LVU126
 158:Core/Src/main.c ****   rx_flag = true;
 407              		.loc 1 158 21 is_stmt 0 view .LVU127
 408 00d0 054A     		ldr	r2, .L19+12
 409 00d2 1370     		strb	r3, [r2]
 159:Core/Src/main.c **** }
 410              		.loc 1 159 3 is_stmt 1 view .LVU128
 159:Core/Src/main.c **** }
 411              		.loc 1 159 11 is_stmt 0 view .LVU129
 412 00d4 094B     		ldr	r3, .L19+32
 413 00d6 0122     		movs	r2, #1
 414 00d8 1A70     		strb	r2, [r3]
 415 00da EAE7     		b	.L14
 416              	.L20:
 417              		.align	2
 418              	.L19:
 419 00dc 00000000 		.word	.LANCHOR0
 420 00e0 00000000 		.word	.LANCHOR1
 421 00e4 00000000 		.word	.LANCHOR2
 422 00e8 00000000 		.word	.LANCHOR4
 423 00ec 00000000 		.word	.LANCHOR5
 424 00f0 00000000 		.word	.LANCHOR6
 425 00f4 00000000 		.word	.LANCHOR3
 426 00f8 00000000 		.word	.LANCHOR8
 427 00fc 00000000 		.word	.LANCHOR7
 428              		.cfi_endproc
 429              	.LFE130:
 431              		.section	.text.NOS_ModBus_SendMasterCommand,"ax",%progbits
ARM GAS  C:\Users\user\AppData\Local\Temp\ccreuSL2.s 			page 21


 432              		.align	1
 433              		.global	NOS_ModBus_SendMasterCommand
 434              		.syntax unified
 435              		.thumb
 436              		.thumb_func
 437              		.fpu fpv4-sp-d16
 439              	NOS_ModBus_SendMasterCommand:
 440              	.LVL14:
 441              	.LFB131:
 172:Core/Src/main.c ****    uint8_t message[16];
 442              		.loc 1 172 1 is_stmt 1 view -0
 443              		.cfi_startproc
 444              		@ args = 0, pretend = 0, frame = 16
 445              		@ frame_needed = 0, uses_anonymous_args = 0
 172:Core/Src/main.c ****    uint8_t message[16];
 446              		.loc 1 172 1 is_stmt 0 view .LVU131
 447 0000 00B5     		push	{lr}
 448              	.LCFI4:
 449              		.cfi_def_cfa_offset 4
 450              		.cfi_offset 14, -4
 451 0002 85B0     		sub	sp, sp, #20
 452              	.LCFI5:
 453              		.cfi_def_cfa_offset 24
 173:Core/Src/main.c ****    NOS_Short _CRC;
 454              		.loc 1 173 4 is_stmt 1 view .LVU132
 174:Core/Src/main.c ****    message[0] = mb->master.Addr;
 455              		.loc 1 174 4 view .LVU133
 175:Core/Src/main.c ****    message[1] = mb->master.Command;
 456              		.loc 1 175 4 view .LVU134
 175:Core/Src/main.c ****    message[1] = mb->master.Command;
 457              		.loc 1 175 27 is_stmt 0 view .LVU135
 458 0004 90F85030 		ldrb	r3, [r0, #80]	@ zero_extendqisi2
 175:Core/Src/main.c ****    message[1] = mb->master.Command;
 459              		.loc 1 175 15 view .LVU136
 460 0008 8DF80030 		strb	r3, [sp]
 176:Core/Src/main.c ****    message[2] = mb->master.Reg_Addr.bytes[1];
 461              		.loc 1 176 4 is_stmt 1 view .LVU137
 176:Core/Src/main.c ****    message[2] = mb->master.Reg_Addr.bytes[1];
 462              		.loc 1 176 27 is_stmt 0 view .LVU138
 463 000c 90F85130 		ldrb	r3, [r0, #81]	@ zero_extendqisi2
 176:Core/Src/main.c ****    message[2] = mb->master.Reg_Addr.bytes[1];
 464              		.loc 1 176 15 view .LVU139
 465 0010 8DF80130 		strb	r3, [sp, #1]
 177:Core/Src/main.c ****    message[3] = mb->master.Reg_Addr.bytes[0];
 466              		.loc 1 177 4 is_stmt 1 view .LVU140
 177:Core/Src/main.c ****    message[3] = mb->master.Reg_Addr.bytes[0];
 467              		.loc 1 177 42 is_stmt 0 view .LVU141
 468 0014 90F85530 		ldrb	r3, [r0, #85]	@ zero_extendqisi2
 177:Core/Src/main.c ****    message[3] = mb->master.Reg_Addr.bytes[0];
 469              		.loc 1 177 15 view .LVU142
 470 0018 8DF80230 		strb	r3, [sp, #2]
 178:Core/Src/main.c ****    message[4] = mb->master.Reg_Count.bytes[1];
 471              		.loc 1 178 4 is_stmt 1 view .LVU143
 178:Core/Src/main.c ****    message[4] = mb->master.Reg_Count.bytes[1];
 472              		.loc 1 178 42 is_stmt 0 view .LVU144
 473 001c 90F85430 		ldrb	r3, [r0, #84]	@ zero_extendqisi2
 178:Core/Src/main.c ****    message[4] = mb->master.Reg_Count.bytes[1];
ARM GAS  C:\Users\user\AppData\Local\Temp\ccreuSL2.s 			page 22


 474              		.loc 1 178 15 view .LVU145
 475 0020 8DF80330 		strb	r3, [sp, #3]
 179:Core/Src/main.c ****    message[5] = mb->master.Reg_Count.bytes[0];
 476              		.loc 1 179 4 is_stmt 1 view .LVU146
 179:Core/Src/main.c ****    message[5] = mb->master.Reg_Count.bytes[0];
 477              		.loc 1 179 43 is_stmt 0 view .LVU147
 478 0024 90F85730 		ldrb	r3, [r0, #87]	@ zero_extendqisi2
 179:Core/Src/main.c ****    message[5] = mb->master.Reg_Count.bytes[0];
 479              		.loc 1 179 15 view .LVU148
 480 0028 8DF80430 		strb	r3, [sp, #4]
 180:Core/Src/main.c **** 
 481              		.loc 1 180 4 is_stmt 1 view .LVU149
 180:Core/Src/main.c **** 
 482              		.loc 1 180 43 is_stmt 0 view .LVU150
 483 002c 90F85630 		ldrb	r3, [r0, #86]	@ zero_extendqisi2
 180:Core/Src/main.c **** 
 484              		.loc 1 180 15 view .LVU151
 485 0030 8DF80530 		strb	r3, [sp, #5]
 182:Core/Src/main.c **** 
 486              		.loc 1 182 4 is_stmt 1 view .LVU152
 182:Core/Src/main.c **** 
 487              		.loc 1 182 16 is_stmt 0 view .LVU153
 488 0034 0621     		movs	r1, #6
 489 0036 6846     		mov	r0, sp
 490              	.LVL15:
 182:Core/Src/main.c **** 
 491              		.loc 1 182 16 view .LVU154
 492 0038 FFF7FEFF 		bl	GetCRC16
 493              	.LVL16:
 184:Core/Src/main.c ****    message[7] = _CRC.bytes[1];
 494              		.loc 1 184 4 is_stmt 1 view .LVU155
 184:Core/Src/main.c ****    message[7] = _CRC.bytes[1];
 495              		.loc 1 184 15 is_stmt 0 view .LVU156
 496 003c 8DF80600 		strb	r0, [sp, #6]
 185:Core/Src/main.c **** 
 497              		.loc 1 185 4 is_stmt 1 view .LVU157
 185:Core/Src/main.c **** 
 498              		.loc 1 185 15 is_stmt 0 view .LVU158
 499 0040 C0F30720 		ubfx	r0, r0, #8, #8
 500 0044 8DF80700 		strb	r0, [sp, #7]
 187:Core/Src/main.c **** }
 501              		.loc 1 187 4 is_stmt 1 view .LVU159
 502 0048 4FF47A73 		mov	r3, #1000
 503 004c 0822     		movs	r2, #8
 504 004e 6946     		mov	r1, sp
 505 0050 0248     		ldr	r0, .L23
 506 0052 FFF7FEFF 		bl	HAL_UART_Transmit
 507              	.LVL17:
 188:Core/Src/main.c **** 
 508              		.loc 1 188 1 is_stmt 0 view .LVU160
 509 0056 05B0     		add	sp, sp, #20
 510              	.LCFI6:
 511              		.cfi_def_cfa_offset 4
 512              		@ sp needed
 513 0058 5DF804FB 		ldr	pc, [sp], #4
 514              	.L24:
 515              		.align	2
ARM GAS  C:\Users\user\AppData\Local\Temp\ccreuSL2.s 			page 23


 516              	.L23:
 517 005c 00000000 		.word	.LANCHOR8
 518              		.cfi_endproc
 519              	.LFE131:
 521              		.section	.text.SysTick_Handler,"ax",%progbits
 522              		.align	1
 523              		.global	SysTick_Handler
 524              		.syntax unified
 525              		.thumb
 526              		.thumb_func
 527              		.fpu fpv4-sp-d16
 529              	SysTick_Handler:
 530              	.LFB133:
 369:Core/Src/main.c ****   /* USER CODE BEGIN SysTick_IRQn 0 */
 531              		.loc 1 369 1 is_stmt 1 view -0
 532              		.cfi_startproc
 533              		@ args = 0, pretend = 0, frame = 0
 534              		@ frame_needed = 0, uses_anonymous_args = 0
 535 0000 08B5     		push	{r3, lr}
 536              	.LCFI7:
 537              		.cfi_def_cfa_offset 8
 538              		.cfi_offset 3, -8
 539              		.cfi_offset 14, -4
 373:Core/Src/main.c ****   /* USER CODE BEGIN SysTick_IRQn 1 */
 540              		.loc 1 373 3 view .LVU162
 541 0002 FFF7FEFF 		bl	HAL_IncTick
 542              	.LVL18:
 375:Core/Src/main.c ****   if(timelastReceiveMessage >= 5000)
 543              		.loc 1 375 3 view .LVU163
 375:Core/Src/main.c ****   if(timelastReceiveMessage >= 5000)
 544              		.loc 1 375 25 is_stmt 0 view .LVU164
 545 0006 0B4A     		ldr	r2, .L28
 546 0008 1388     		ldrh	r3, [r2]
 547 000a 0133     		adds	r3, r3, #1
 548 000c 9BB2     		uxth	r3, r3
 549 000e 1380     		strh	r3, [r2]	@ movhi
 376:Core/Src/main.c ****   {
 550              		.loc 1 376 3 is_stmt 1 view .LVU165
 376:Core/Src/main.c ****   {
 551              		.loc 1 376 5 is_stmt 0 view .LVU166
 552 0010 41F28732 		movw	r2, #4999
 553 0014 9342     		cmp	r3, r2
 554 0016 05D9     		bls	.L26
 378:Core/Src/main.c ****     tx_flag = true;
 555              		.loc 1 378 5 is_stmt 1 view .LVU167
 378:Core/Src/main.c ****     tx_flag = true;
 556              		.loc 1 378 28 is_stmt 0 view .LVU168
 557 0018 064B     		ldr	r3, .L28
 558 001a 0022     		movs	r2, #0
 559 001c 1A80     		strh	r2, [r3]	@ movhi
 379:Core/Src/main.c ****   }
 560              		.loc 1 379 5 is_stmt 1 view .LVU169
 379:Core/Src/main.c ****   }
 561              		.loc 1 379 13 is_stmt 0 view .LVU170
 562 001e 064B     		ldr	r3, .L28+4
 563 0020 0122     		movs	r2, #1
 564 0022 1A70     		strb	r2, [r3]
ARM GAS  C:\Users\user\AppData\Local\Temp\ccreuSL2.s 			page 24


 565              	.L26:
 381:Core/Src/main.c ****   NOS_RealTime_Handler(&realtime);
 566              		.loc 1 381 3 is_stmt 1 view .LVU171
 381:Core/Src/main.c ****   NOS_RealTime_Handler(&realtime);
 567              		.loc 1 381 7 is_stmt 0 view .LVU172
 568 0024 054A     		ldr	r2, .L28+8
 569 0026 1368     		ldr	r3, [r2]
 570 0028 0133     		adds	r3, r3, #1
 571 002a 1360     		str	r3, [r2]
 382:Core/Src/main.c ****   /* USER CODE END SysTick_IRQn 1 */
 572              		.loc 1 382 3 is_stmt 1 view .LVU173
 573 002c 0448     		ldr	r0, .L28+12
 574 002e FFF7FEFF 		bl	NOS_RealTime_Handler
 575              	.LVL19:
 384:Core/Src/main.c **** 
 576              		.loc 1 384 1 is_stmt 0 view .LVU174
 577 0032 08BD     		pop	{r3, pc}
 578              	.L29:
 579              		.align	2
 580              	.L28:
 581 0034 00000000 		.word	.LANCHOR9
 582 0038 00000000 		.word	.LANCHOR10
 583 003c 00000000 		.word	.LANCHOR11
 584 0040 00000000 		.word	.LANCHOR12
 585              		.cfi_endproc
 586              	.LFE133:
 588              		.section	.text.Error_Handler,"ax",%progbits
 589              		.align	1
 590              		.global	Error_Handler
 591              		.syntax unified
 592              		.thumb
 593              		.thumb_func
 594              		.fpu fpv4-sp-d16
 596              	Error_Handler:
 597              	.LFB140:
 636:Core/Src/main.c **** 
 637:Core/Src/main.c **** /* USER CODE BEGIN 4 */
 638:Core/Src/main.c **** 
 639:Core/Src/main.c **** /* USER CODE END 4 */
 640:Core/Src/main.c **** 
 641:Core/Src/main.c **** /**
 642:Core/Src/main.c ****   * @brief  This function is executed in case of error occurrence.
 643:Core/Src/main.c ****   * @retval None
 644:Core/Src/main.c ****   */
 645:Core/Src/main.c **** void Error_Handler(void)
 646:Core/Src/main.c **** {
 598              		.loc 1 646 1 is_stmt 1 view -0
 599              		.cfi_startproc
 600              		@ Volatile: function does not return.
 601              		@ args = 0, pretend = 0, frame = 0
 602              		@ frame_needed = 0, uses_anonymous_args = 0
 603              		@ link register save eliminated.
 647:Core/Src/main.c ****   /* USER CODE BEGIN Error_Handler_Debug */
 648:Core/Src/main.c ****   /* User can add his own implementation to report the HAL error return state */
 649:Core/Src/main.c ****   __disable_irq();
 604              		.loc 1 649 3 view .LVU176
 605              	.LBB9:
ARM GAS  C:\Users\user\AppData\Local\Temp\ccreuSL2.s 			page 25


 606              	.LBI9:
 607              		.file 2 "Drivers/CMSIS/Include/cmsis_gcc.h"
   1:Drivers/CMSIS/Include/cmsis_gcc.h **** /**************************************************************************//**
   2:Drivers/CMSIS/Include/cmsis_gcc.h ****  * @file     cmsis_gcc.h
   3:Drivers/CMSIS/Include/cmsis_gcc.h ****  * @brief    CMSIS compiler GCC header file
   4:Drivers/CMSIS/Include/cmsis_gcc.h ****  * @version  V5.0.4
   5:Drivers/CMSIS/Include/cmsis_gcc.h ****  * @date     09. April 2018
   6:Drivers/CMSIS/Include/cmsis_gcc.h ****  ******************************************************************************/
   7:Drivers/CMSIS/Include/cmsis_gcc.h **** /*
   8:Drivers/CMSIS/Include/cmsis_gcc.h ****  * Copyright (c) 2009-2018 Arm Limited. All rights reserved.
   9:Drivers/CMSIS/Include/cmsis_gcc.h ****  *
  10:Drivers/CMSIS/Include/cmsis_gcc.h ****  * SPDX-License-Identifier: Apache-2.0
  11:Drivers/CMSIS/Include/cmsis_gcc.h ****  *
  12:Drivers/CMSIS/Include/cmsis_gcc.h ****  * Licensed under the Apache License, Version 2.0 (the License); you may
  13:Drivers/CMSIS/Include/cmsis_gcc.h ****  * not use this file except in compliance with the License.
  14:Drivers/CMSIS/Include/cmsis_gcc.h ****  * You may obtain a copy of the License at
  15:Drivers/CMSIS/Include/cmsis_gcc.h ****  *
  16:Drivers/CMSIS/Include/cmsis_gcc.h ****  * www.apache.org/licenses/LICENSE-2.0
  17:Drivers/CMSIS/Include/cmsis_gcc.h ****  *
  18:Drivers/CMSIS/Include/cmsis_gcc.h ****  * Unless required by applicable law or agreed to in writing, software
  19:Drivers/CMSIS/Include/cmsis_gcc.h ****  * distributed under the License is distributed on an AS IS BASIS, WITHOUT
  20:Drivers/CMSIS/Include/cmsis_gcc.h ****  * WARRANTIES OR CONDITIONS OF ANY KIND, either express or implied.
  21:Drivers/CMSIS/Include/cmsis_gcc.h ****  * See the License for the specific language governing permissions and
  22:Drivers/CMSIS/Include/cmsis_gcc.h ****  * limitations under the License.
  23:Drivers/CMSIS/Include/cmsis_gcc.h ****  */
  24:Drivers/CMSIS/Include/cmsis_gcc.h **** 
  25:Drivers/CMSIS/Include/cmsis_gcc.h **** #ifndef __CMSIS_GCC_H
  26:Drivers/CMSIS/Include/cmsis_gcc.h **** #define __CMSIS_GCC_H
  27:Drivers/CMSIS/Include/cmsis_gcc.h **** 
  28:Drivers/CMSIS/Include/cmsis_gcc.h **** /* ignore some GCC warnings */
  29:Drivers/CMSIS/Include/cmsis_gcc.h **** #pragma GCC diagnostic push
  30:Drivers/CMSIS/Include/cmsis_gcc.h **** #pragma GCC diagnostic ignored "-Wsign-conversion"
  31:Drivers/CMSIS/Include/cmsis_gcc.h **** #pragma GCC diagnostic ignored "-Wconversion"
  32:Drivers/CMSIS/Include/cmsis_gcc.h **** #pragma GCC diagnostic ignored "-Wunused-parameter"
  33:Drivers/CMSIS/Include/cmsis_gcc.h **** 
  34:Drivers/CMSIS/Include/cmsis_gcc.h **** /* Fallback for __has_builtin */
  35:Drivers/CMSIS/Include/cmsis_gcc.h **** #ifndef __has_builtin
  36:Drivers/CMSIS/Include/cmsis_gcc.h ****   #define __has_builtin(x) (0)
  37:Drivers/CMSIS/Include/cmsis_gcc.h **** #endif
  38:Drivers/CMSIS/Include/cmsis_gcc.h **** 
  39:Drivers/CMSIS/Include/cmsis_gcc.h **** /* CMSIS compiler specific defines */
  40:Drivers/CMSIS/Include/cmsis_gcc.h **** #ifndef   __ASM
  41:Drivers/CMSIS/Include/cmsis_gcc.h ****   #define __ASM                                  __asm
  42:Drivers/CMSIS/Include/cmsis_gcc.h **** #endif
  43:Drivers/CMSIS/Include/cmsis_gcc.h **** #ifndef   __INLINE
  44:Drivers/CMSIS/Include/cmsis_gcc.h ****   #define __INLINE                               inline
  45:Drivers/CMSIS/Include/cmsis_gcc.h **** #endif
  46:Drivers/CMSIS/Include/cmsis_gcc.h **** #ifndef   __STATIC_INLINE
  47:Drivers/CMSIS/Include/cmsis_gcc.h ****   #define __STATIC_INLINE                        static inline
  48:Drivers/CMSIS/Include/cmsis_gcc.h **** #endif
  49:Drivers/CMSIS/Include/cmsis_gcc.h **** #ifndef   __STATIC_FORCEINLINE                 
  50:Drivers/CMSIS/Include/cmsis_gcc.h ****   #define __STATIC_FORCEINLINE                   __attribute__((always_inline)) static inline
  51:Drivers/CMSIS/Include/cmsis_gcc.h **** #endif                                           
  52:Drivers/CMSIS/Include/cmsis_gcc.h **** #ifndef   __NO_RETURN
  53:Drivers/CMSIS/Include/cmsis_gcc.h ****   #define __NO_RETURN                            __attribute__((__noreturn__))
  54:Drivers/CMSIS/Include/cmsis_gcc.h **** #endif
  55:Drivers/CMSIS/Include/cmsis_gcc.h **** #ifndef   __USED
ARM GAS  C:\Users\user\AppData\Local\Temp\ccreuSL2.s 			page 26


  56:Drivers/CMSIS/Include/cmsis_gcc.h ****   #define __USED                                 __attribute__((used))
  57:Drivers/CMSIS/Include/cmsis_gcc.h **** #endif
  58:Drivers/CMSIS/Include/cmsis_gcc.h **** #ifndef   __WEAK
  59:Drivers/CMSIS/Include/cmsis_gcc.h ****   #define __WEAK                                 __attribute__((weak))
  60:Drivers/CMSIS/Include/cmsis_gcc.h **** #endif
  61:Drivers/CMSIS/Include/cmsis_gcc.h **** #ifndef   __PACKED
  62:Drivers/CMSIS/Include/cmsis_gcc.h ****   #define __PACKED                               __attribute__((packed, aligned(1)))
  63:Drivers/CMSIS/Include/cmsis_gcc.h **** #endif
  64:Drivers/CMSIS/Include/cmsis_gcc.h **** #ifndef   __PACKED_STRUCT
  65:Drivers/CMSIS/Include/cmsis_gcc.h ****   #define __PACKED_STRUCT                        struct __attribute__((packed, aligned(1)))
  66:Drivers/CMSIS/Include/cmsis_gcc.h **** #endif
  67:Drivers/CMSIS/Include/cmsis_gcc.h **** #ifndef   __PACKED_UNION
  68:Drivers/CMSIS/Include/cmsis_gcc.h ****   #define __PACKED_UNION                         union __attribute__((packed, aligned(1)))
  69:Drivers/CMSIS/Include/cmsis_gcc.h **** #endif
  70:Drivers/CMSIS/Include/cmsis_gcc.h **** #ifndef   __UNALIGNED_UINT32        /* deprecated */
  71:Drivers/CMSIS/Include/cmsis_gcc.h ****   #pragma GCC diagnostic push
  72:Drivers/CMSIS/Include/cmsis_gcc.h ****   #pragma GCC diagnostic ignored "-Wpacked"
  73:Drivers/CMSIS/Include/cmsis_gcc.h ****   #pragma GCC diagnostic ignored "-Wattributes"
  74:Drivers/CMSIS/Include/cmsis_gcc.h ****   struct __attribute__((packed)) T_UINT32 { uint32_t v; };
  75:Drivers/CMSIS/Include/cmsis_gcc.h ****   #pragma GCC diagnostic pop
  76:Drivers/CMSIS/Include/cmsis_gcc.h ****   #define __UNALIGNED_UINT32(x)                  (((struct T_UINT32 *)(x))->v)
  77:Drivers/CMSIS/Include/cmsis_gcc.h **** #endif
  78:Drivers/CMSIS/Include/cmsis_gcc.h **** #ifndef   __UNALIGNED_UINT16_WRITE
  79:Drivers/CMSIS/Include/cmsis_gcc.h ****   #pragma GCC diagnostic push
  80:Drivers/CMSIS/Include/cmsis_gcc.h ****   #pragma GCC diagnostic ignored "-Wpacked"
  81:Drivers/CMSIS/Include/cmsis_gcc.h ****   #pragma GCC diagnostic ignored "-Wattributes"
  82:Drivers/CMSIS/Include/cmsis_gcc.h ****   __PACKED_STRUCT T_UINT16_WRITE { uint16_t v; };
  83:Drivers/CMSIS/Include/cmsis_gcc.h ****   #pragma GCC diagnostic pop
  84:Drivers/CMSIS/Include/cmsis_gcc.h ****   #define __UNALIGNED_UINT16_WRITE(addr, val)    (void)((((struct T_UINT16_WRITE *)(void *)(addr))-
  85:Drivers/CMSIS/Include/cmsis_gcc.h **** #endif
  86:Drivers/CMSIS/Include/cmsis_gcc.h **** #ifndef   __UNALIGNED_UINT16_READ
  87:Drivers/CMSIS/Include/cmsis_gcc.h ****   #pragma GCC diagnostic push
  88:Drivers/CMSIS/Include/cmsis_gcc.h ****   #pragma GCC diagnostic ignored "-Wpacked"
  89:Drivers/CMSIS/Include/cmsis_gcc.h ****   #pragma GCC diagnostic ignored "-Wattributes"
  90:Drivers/CMSIS/Include/cmsis_gcc.h ****   __PACKED_STRUCT T_UINT16_READ { uint16_t v; };
  91:Drivers/CMSIS/Include/cmsis_gcc.h ****   #pragma GCC diagnostic pop
  92:Drivers/CMSIS/Include/cmsis_gcc.h ****   #define __UNALIGNED_UINT16_READ(addr)          (((const struct T_UINT16_READ *)(const void *)(add
  93:Drivers/CMSIS/Include/cmsis_gcc.h **** #endif
  94:Drivers/CMSIS/Include/cmsis_gcc.h **** #ifndef   __UNALIGNED_UINT32_WRITE
  95:Drivers/CMSIS/Include/cmsis_gcc.h ****   #pragma GCC diagnostic push
  96:Drivers/CMSIS/Include/cmsis_gcc.h ****   #pragma GCC diagnostic ignored "-Wpacked"
  97:Drivers/CMSIS/Include/cmsis_gcc.h ****   #pragma GCC diagnostic ignored "-Wattributes"
  98:Drivers/CMSIS/Include/cmsis_gcc.h ****   __PACKED_STRUCT T_UINT32_WRITE { uint32_t v; };
  99:Drivers/CMSIS/Include/cmsis_gcc.h ****   #pragma GCC diagnostic pop
 100:Drivers/CMSIS/Include/cmsis_gcc.h ****   #define __UNALIGNED_UINT32_WRITE(addr, val)    (void)((((struct T_UINT32_WRITE *)(void *)(addr))-
 101:Drivers/CMSIS/Include/cmsis_gcc.h **** #endif
 102:Drivers/CMSIS/Include/cmsis_gcc.h **** #ifndef   __UNALIGNED_UINT32_READ
 103:Drivers/CMSIS/Include/cmsis_gcc.h ****   #pragma GCC diagnostic push
 104:Drivers/CMSIS/Include/cmsis_gcc.h ****   #pragma GCC diagnostic ignored "-Wpacked"
 105:Drivers/CMSIS/Include/cmsis_gcc.h ****   #pragma GCC diagnostic ignored "-Wattributes"
 106:Drivers/CMSIS/Include/cmsis_gcc.h ****   __PACKED_STRUCT T_UINT32_READ { uint32_t v; };
 107:Drivers/CMSIS/Include/cmsis_gcc.h ****   #pragma GCC diagnostic pop
 108:Drivers/CMSIS/Include/cmsis_gcc.h ****   #define __UNALIGNED_UINT32_READ(addr)          (((const struct T_UINT32_READ *)(const void *)(add
 109:Drivers/CMSIS/Include/cmsis_gcc.h **** #endif
 110:Drivers/CMSIS/Include/cmsis_gcc.h **** #ifndef   __ALIGNED
 111:Drivers/CMSIS/Include/cmsis_gcc.h ****   #define __ALIGNED(x)                           __attribute__((aligned(x)))
 112:Drivers/CMSIS/Include/cmsis_gcc.h **** #endif
ARM GAS  C:\Users\user\AppData\Local\Temp\ccreuSL2.s 			page 27


 113:Drivers/CMSIS/Include/cmsis_gcc.h **** #ifndef   __RESTRICT
 114:Drivers/CMSIS/Include/cmsis_gcc.h ****   #define __RESTRICT                             __restrict
 115:Drivers/CMSIS/Include/cmsis_gcc.h **** #endif
 116:Drivers/CMSIS/Include/cmsis_gcc.h **** 
 117:Drivers/CMSIS/Include/cmsis_gcc.h **** 
 118:Drivers/CMSIS/Include/cmsis_gcc.h **** /* ###########################  Core Function Access  ########################### */
 119:Drivers/CMSIS/Include/cmsis_gcc.h **** /** \ingroup  CMSIS_Core_FunctionInterface
 120:Drivers/CMSIS/Include/cmsis_gcc.h ****     \defgroup CMSIS_Core_RegAccFunctions CMSIS Core Register Access Functions
 121:Drivers/CMSIS/Include/cmsis_gcc.h ****   @{
 122:Drivers/CMSIS/Include/cmsis_gcc.h ****  */
 123:Drivers/CMSIS/Include/cmsis_gcc.h **** 
 124:Drivers/CMSIS/Include/cmsis_gcc.h **** /**
 125:Drivers/CMSIS/Include/cmsis_gcc.h ****   \brief   Enable IRQ Interrupts
 126:Drivers/CMSIS/Include/cmsis_gcc.h ****   \details Enables IRQ interrupts by clearing the I-bit in the CPSR.
 127:Drivers/CMSIS/Include/cmsis_gcc.h ****            Can only be executed in Privileged modes.
 128:Drivers/CMSIS/Include/cmsis_gcc.h ****  */
 129:Drivers/CMSIS/Include/cmsis_gcc.h **** __STATIC_FORCEINLINE void __enable_irq(void)
 130:Drivers/CMSIS/Include/cmsis_gcc.h **** {
 131:Drivers/CMSIS/Include/cmsis_gcc.h ****   __ASM volatile ("cpsie i" : : : "memory");
 132:Drivers/CMSIS/Include/cmsis_gcc.h **** }
 133:Drivers/CMSIS/Include/cmsis_gcc.h **** 
 134:Drivers/CMSIS/Include/cmsis_gcc.h **** 
 135:Drivers/CMSIS/Include/cmsis_gcc.h **** /**
 136:Drivers/CMSIS/Include/cmsis_gcc.h ****   \brief   Disable IRQ Interrupts
 137:Drivers/CMSIS/Include/cmsis_gcc.h ****   \details Disables IRQ interrupts by setting the I-bit in the CPSR.
 138:Drivers/CMSIS/Include/cmsis_gcc.h ****            Can only be executed in Privileged modes.
 139:Drivers/CMSIS/Include/cmsis_gcc.h ****  */
 140:Drivers/CMSIS/Include/cmsis_gcc.h **** __STATIC_FORCEINLINE void __disable_irq(void)
 608              		.loc 2 140 27 view .LVU177
 609              	.LBB10:
 141:Drivers/CMSIS/Include/cmsis_gcc.h **** {
 142:Drivers/CMSIS/Include/cmsis_gcc.h ****   __ASM volatile ("cpsid i" : : : "memory");
 610              		.loc 2 142 3 view .LVU178
 611              		.syntax unified
 612              	@ 142 "Drivers/CMSIS/Include/cmsis_gcc.h" 1
 613 0000 72B6     		cpsid i
 614              	@ 0 "" 2
 615              		.thumb
 616              		.syntax unified
 617              	.L31:
 618              	.LBE10:
 619              	.LBE9:
 650:Core/Src/main.c ****   while (1)
 620              		.loc 1 650 3 discriminator 1 view .LVU179
 651:Core/Src/main.c ****   {
 652:Core/Src/main.c ****   }
 621              		.loc 1 652 3 discriminator 1 view .LVU180
 650:Core/Src/main.c ****   while (1)
 622              		.loc 1 650 9 discriminator 1 view .LVU181
 623 0002 FEE7     		b	.L31
 624              		.cfi_endproc
 625              	.LFE140:
 627              		.section	.text.MX_USART2_UART_Init,"ax",%progbits
 628              		.align	1
 629              		.syntax unified
 630              		.thumb
 631              		.thumb_func
ARM GAS  C:\Users\user\AppData\Local\Temp\ccreuSL2.s 			page 28


 632              		.fpu fpv4-sp-d16
 634              	MX_USART2_UART_Init:
 635              	.LFB138:
 570:Core/Src/main.c **** 
 636              		.loc 1 570 1 view -0
 637              		.cfi_startproc
 638              		@ args = 0, pretend = 0, frame = 0
 639              		@ frame_needed = 0, uses_anonymous_args = 0
 640 0000 08B5     		push	{r3, lr}
 641              	.LCFI8:
 642              		.cfi_def_cfa_offset 8
 643              		.cfi_offset 3, -8
 644              		.cfi_offset 14, -4
 579:Core/Src/main.c ****   huart2.Init.BaudRate = 9600;
 645              		.loc 1 579 3 view .LVU183
 579:Core/Src/main.c ****   huart2.Init.BaudRate = 9600;
 646              		.loc 1 579 19 is_stmt 0 view .LVU184
 647 0002 0A48     		ldr	r0, .L36
 648 0004 0A4B     		ldr	r3, .L36+4
 649 0006 0360     		str	r3, [r0]
 580:Core/Src/main.c ****   huart2.Init.WordLength = UART_WORDLENGTH_8B;
 650              		.loc 1 580 3 is_stmt 1 view .LVU185
 580:Core/Src/main.c ****   huart2.Init.WordLength = UART_WORDLENGTH_8B;
 651              		.loc 1 580 24 is_stmt 0 view .LVU186
 652 0008 4FF41653 		mov	r3, #9600
 653 000c 4360     		str	r3, [r0, #4]
 581:Core/Src/main.c ****   huart2.Init.StopBits = UART_STOPBITS_1;
 654              		.loc 1 581 3 is_stmt 1 view .LVU187
 581:Core/Src/main.c ****   huart2.Init.StopBits = UART_STOPBITS_1;
 655              		.loc 1 581 26 is_stmt 0 view .LVU188
 656 000e 0023     		movs	r3, #0
 657 0010 8360     		str	r3, [r0, #8]
 582:Core/Src/main.c ****   huart2.Init.Parity = UART_PARITY_NONE;
 658              		.loc 1 582 3 is_stmt 1 view .LVU189
 582:Core/Src/main.c ****   huart2.Init.Parity = UART_PARITY_NONE;
 659              		.loc 1 582 24 is_stmt 0 view .LVU190
 660 0012 C360     		str	r3, [r0, #12]
 583:Core/Src/main.c ****   huart2.Init.Mode = UART_MODE_TX_RX;
 661              		.loc 1 583 3 is_stmt 1 view .LVU191
 583:Core/Src/main.c ****   huart2.Init.Mode = UART_MODE_TX_RX;
 662              		.loc 1 583 22 is_stmt 0 view .LVU192
 663 0014 0361     		str	r3, [r0, #16]
 584:Core/Src/main.c ****   huart2.Init.HwFlowCtl = UART_HWCONTROL_NONE;
 664              		.loc 1 584 3 is_stmt 1 view .LVU193
 584:Core/Src/main.c ****   huart2.Init.HwFlowCtl = UART_HWCONTROL_NONE;
 665              		.loc 1 584 20 is_stmt 0 view .LVU194
 666 0016 0C22     		movs	r2, #12
 667 0018 4261     		str	r2, [r0, #20]
 585:Core/Src/main.c ****   huart2.Init.OverSampling = UART_OVERSAMPLING_16;
 668              		.loc 1 585 3 is_stmt 1 view .LVU195
 585:Core/Src/main.c ****   huart2.Init.OverSampling = UART_OVERSAMPLING_16;
 669              		.loc 1 585 25 is_stmt 0 view .LVU196
 670 001a 8361     		str	r3, [r0, #24]
 586:Core/Src/main.c ****   if (HAL_UART_Init(&huart2) != HAL_OK)
 671              		.loc 1 586 3 is_stmt 1 view .LVU197
 586:Core/Src/main.c ****   if (HAL_UART_Init(&huart2) != HAL_OK)
 672              		.loc 1 586 28 is_stmt 0 view .LVU198
ARM GAS  C:\Users\user\AppData\Local\Temp\ccreuSL2.s 			page 29


 673 001c C361     		str	r3, [r0, #28]
 587:Core/Src/main.c ****   {
 674              		.loc 1 587 3 is_stmt 1 view .LVU199
 587:Core/Src/main.c ****   {
 675              		.loc 1 587 7 is_stmt 0 view .LVU200
 676 001e FFF7FEFF 		bl	HAL_UART_Init
 677              	.LVL20:
 587:Core/Src/main.c ****   {
 678              		.loc 1 587 6 view .LVU201
 679 0022 00B9     		cbnz	r0, .L35
 595:Core/Src/main.c **** 
 680              		.loc 1 595 1 view .LVU202
 681 0024 08BD     		pop	{r3, pc}
 682              	.L35:
 589:Core/Src/main.c ****   }
 683              		.loc 1 589 5 is_stmt 1 view .LVU203
 684 0026 FFF7FEFF 		bl	Error_Handler
 685              	.LVL21:
 686              	.L37:
 687 002a 00BF     		.align	2
 688              	.L36:
 689 002c 00000000 		.word	.LANCHOR8
 690 0030 00440040 		.word	1073759232
 691              		.cfi_endproc
 692              	.LFE138:
 694              		.section	.text.MX_TIM6_Init,"ax",%progbits
 695              		.align	1
 696              		.syntax unified
 697              		.thumb
 698              		.thumb_func
 699              		.fpu fpv4-sp-d16
 701              	MX_TIM6_Init:
 702              	.LFB136:
 499:Core/Src/main.c **** 
 703              		.loc 1 499 1 view -0
 704              		.cfi_startproc
 705              		@ args = 0, pretend = 0, frame = 8
 706              		@ frame_needed = 0, uses_anonymous_args = 0
 707 0000 00B5     		push	{lr}
 708              	.LCFI9:
 709              		.cfi_def_cfa_offset 4
 710              		.cfi_offset 14, -4
 711 0002 83B0     		sub	sp, sp, #12
 712              	.LCFI10:
 713              		.cfi_def_cfa_offset 16
 505:Core/Src/main.c **** 
 714              		.loc 1 505 3 view .LVU205
 505:Core/Src/main.c **** 
 715              		.loc 1 505 27 is_stmt 0 view .LVU206
 716 0004 0023     		movs	r3, #0
 717 0006 0093     		str	r3, [sp]
 718 0008 0193     		str	r3, [sp, #4]
 510:Core/Src/main.c ****   htim6.Init.Prescaler = 0;
 719              		.loc 1 510 3 is_stmt 1 view .LVU207
 510:Core/Src/main.c ****   htim6.Init.Prescaler = 0;
 720              		.loc 1 510 18 is_stmt 0 view .LVU208
 721 000a 0D48     		ldr	r0, .L44
ARM GAS  C:\Users\user\AppData\Local\Temp\ccreuSL2.s 			page 30


 722 000c 0D4A     		ldr	r2, .L44+4
 723 000e 0260     		str	r2, [r0]
 511:Core/Src/main.c ****   htim6.Init.CounterMode = TIM_COUNTERMODE_UP;
 724              		.loc 1 511 3 is_stmt 1 view .LVU209
 511:Core/Src/main.c ****   htim6.Init.CounterMode = TIM_COUNTERMODE_UP;
 725              		.loc 1 511 24 is_stmt 0 view .LVU210
 726 0010 4360     		str	r3, [r0, #4]
 512:Core/Src/main.c ****   htim6.Init.Period = 65535;
 727              		.loc 1 512 3 is_stmt 1 view .LVU211
 512:Core/Src/main.c ****   htim6.Init.Period = 65535;
 728              		.loc 1 512 26 is_stmt 0 view .LVU212
 729 0012 8360     		str	r3, [r0, #8]
 513:Core/Src/main.c ****   htim6.Init.AutoReloadPreload = TIM_AUTORELOAD_PRELOAD_DISABLE;
 730              		.loc 1 513 3 is_stmt 1 view .LVU213
 513:Core/Src/main.c ****   htim6.Init.AutoReloadPreload = TIM_AUTORELOAD_PRELOAD_DISABLE;
 731              		.loc 1 513 21 is_stmt 0 view .LVU214
 732 0014 4FF6FF72 		movw	r2, #65535
 733 0018 C260     		str	r2, [r0, #12]
 514:Core/Src/main.c ****   if (HAL_TIM_Base_Init(&htim6) != HAL_OK)
 734              		.loc 1 514 3 is_stmt 1 view .LVU215
 514:Core/Src/main.c ****   if (HAL_TIM_Base_Init(&htim6) != HAL_OK)
 735              		.loc 1 514 32 is_stmt 0 view .LVU216
 736 001a 8361     		str	r3, [r0, #24]
 515:Core/Src/main.c ****   {
 737              		.loc 1 515 3 is_stmt 1 view .LVU217
 515:Core/Src/main.c ****   {
 738              		.loc 1 515 7 is_stmt 0 view .LVU218
 739 001c FFF7FEFF 		bl	HAL_TIM_Base_Init
 740              	.LVL22:
 515:Core/Src/main.c ****   {
 741              		.loc 1 515 6 view .LVU219
 742 0020 50B9     		cbnz	r0, .L42
 519:Core/Src/main.c ****   sMasterConfig.MasterSlaveMode = TIM_MASTERSLAVEMODE_DISABLE;
 743              		.loc 1 519 3 is_stmt 1 view .LVU220
 519:Core/Src/main.c ****   sMasterConfig.MasterSlaveMode = TIM_MASTERSLAVEMODE_DISABLE;
 744              		.loc 1 519 37 is_stmt 0 view .LVU221
 745 0022 0023     		movs	r3, #0
 746 0024 0093     		str	r3, [sp]
 520:Core/Src/main.c ****   if (HAL_TIMEx_MasterConfigSynchronization(&htim6, &sMasterConfig) != HAL_OK)
 747              		.loc 1 520 3 is_stmt 1 view .LVU222
 520:Core/Src/main.c ****   if (HAL_TIMEx_MasterConfigSynchronization(&htim6, &sMasterConfig) != HAL_OK)
 748              		.loc 1 520 33 is_stmt 0 view .LVU223
 749 0026 0193     		str	r3, [sp, #4]
 521:Core/Src/main.c ****   {
 750              		.loc 1 521 3 is_stmt 1 view .LVU224
 521:Core/Src/main.c ****   {
 751              		.loc 1 521 7 is_stmt 0 view .LVU225
 752 0028 6946     		mov	r1, sp
 753 002a 0548     		ldr	r0, .L44
 754 002c FFF7FEFF 		bl	HAL_TIMEx_MasterConfigSynchronization
 755              	.LVL23:
 521:Core/Src/main.c ****   {
 756              		.loc 1 521 6 view .LVU226
 757 0030 20B9     		cbnz	r0, .L43
 529:Core/Src/main.c **** 
 758              		.loc 1 529 1 view .LVU227
 759 0032 03B0     		add	sp, sp, #12
ARM GAS  C:\Users\user\AppData\Local\Temp\ccreuSL2.s 			page 31


 760              	.LCFI11:
 761              		.cfi_remember_state
 762              		.cfi_def_cfa_offset 4
 763              		@ sp needed
 764 0034 5DF804FB 		ldr	pc, [sp], #4
 765              	.L42:
 766              	.LCFI12:
 767              		.cfi_restore_state
 517:Core/Src/main.c ****   }
 768              		.loc 1 517 5 is_stmt 1 view .LVU228
 769 0038 FFF7FEFF 		bl	Error_Handler
 770              	.LVL24:
 771              	.L43:
 523:Core/Src/main.c ****   }
 772              		.loc 1 523 5 view .LVU229
 773 003c FFF7FEFF 		bl	Error_Handler
 774              	.LVL25:
 775              	.L45:
 776              		.align	2
 777              	.L44:
 778 0040 00000000 		.word	.LANCHOR13
 779 0044 00100040 		.word	1073745920
 780              		.cfi_endproc
 781              	.LFE136:
 783              		.section	.text.SystemClock_Config,"ax",%progbits
 784              		.align	1
 785              		.global	SystemClock_Config
 786              		.syntax unified
 787              		.thumb
 788              		.thumb_func
 789              		.fpu fpv4-sp-d16
 791              	SystemClock_Config:
 792              	.LFB134:
 391:Core/Src/main.c ****   RCC_OscInitTypeDef RCC_OscInitStruct = {0};
 793              		.loc 1 391 1 view -0
 794              		.cfi_startproc
 795              		@ args = 0, pretend = 0, frame = 80
 796              		@ frame_needed = 0, uses_anonymous_args = 0
 797 0000 00B5     		push	{lr}
 798              	.LCFI13:
 799              		.cfi_def_cfa_offset 4
 800              		.cfi_offset 14, -4
 801 0002 95B0     		sub	sp, sp, #84
 802              	.LCFI14:
 803              		.cfi_def_cfa_offset 88
 392:Core/Src/main.c ****   RCC_ClkInitTypeDef RCC_ClkInitStruct = {0};
 804              		.loc 1 392 3 view .LVU231
 392:Core/Src/main.c ****   RCC_ClkInitTypeDef RCC_ClkInitStruct = {0};
 805              		.loc 1 392 22 is_stmt 0 view .LVU232
 806 0004 3022     		movs	r2, #48
 807 0006 0021     		movs	r1, #0
 808 0008 08A8     		add	r0, sp, #32
 809 000a FFF7FEFF 		bl	memset
 810              	.LVL26:
 393:Core/Src/main.c **** 
 811              		.loc 1 393 3 is_stmt 1 view .LVU233
 393:Core/Src/main.c **** 
ARM GAS  C:\Users\user\AppData\Local\Temp\ccreuSL2.s 			page 32


 812              		.loc 1 393 22 is_stmt 0 view .LVU234
 813 000e 0023     		movs	r3, #0
 814 0010 0393     		str	r3, [sp, #12]
 815 0012 0493     		str	r3, [sp, #16]
 816 0014 0593     		str	r3, [sp, #20]
 817 0016 0693     		str	r3, [sp, #24]
 818 0018 0793     		str	r3, [sp, #28]
 397:Core/Src/main.c ****   __HAL_PWR_VOLTAGESCALING_CONFIG(PWR_REGULATOR_VOLTAGE_SCALE1);
 819              		.loc 1 397 3 is_stmt 1 view .LVU235
 820              	.LBB11:
 397:Core/Src/main.c ****   __HAL_PWR_VOLTAGESCALING_CONFIG(PWR_REGULATOR_VOLTAGE_SCALE1);
 821              		.loc 1 397 3 view .LVU236
 822 001a 0193     		str	r3, [sp, #4]
 397:Core/Src/main.c ****   __HAL_PWR_VOLTAGESCALING_CONFIG(PWR_REGULATOR_VOLTAGE_SCALE1);
 823              		.loc 1 397 3 view .LVU237
 824 001c 204A     		ldr	r2, .L52
 825 001e 116C     		ldr	r1, [r2, #64]
 826 0020 41F08051 		orr	r1, r1, #268435456
 827 0024 1164     		str	r1, [r2, #64]
 397:Core/Src/main.c ****   __HAL_PWR_VOLTAGESCALING_CONFIG(PWR_REGULATOR_VOLTAGE_SCALE1);
 828              		.loc 1 397 3 view .LVU238
 829 0026 126C     		ldr	r2, [r2, #64]
 830 0028 02F08052 		and	r2, r2, #268435456
 831 002c 0192     		str	r2, [sp, #4]
 397:Core/Src/main.c ****   __HAL_PWR_VOLTAGESCALING_CONFIG(PWR_REGULATOR_VOLTAGE_SCALE1);
 832              		.loc 1 397 3 view .LVU239
 833 002e 019A     		ldr	r2, [sp, #4]
 834              	.LBE11:
 397:Core/Src/main.c ****   __HAL_PWR_VOLTAGESCALING_CONFIG(PWR_REGULATOR_VOLTAGE_SCALE1);
 835              		.loc 1 397 3 view .LVU240
 398:Core/Src/main.c ****   /** Initializes the RCC Oscillators according to the specified parameters
 836              		.loc 1 398 3 view .LVU241
 837              	.LBB12:
 398:Core/Src/main.c ****   /** Initializes the RCC Oscillators according to the specified parameters
 838              		.loc 1 398 3 view .LVU242
 839 0030 0293     		str	r3, [sp, #8]
 398:Core/Src/main.c ****   /** Initializes the RCC Oscillators according to the specified parameters
 840              		.loc 1 398 3 view .LVU243
 841 0032 1C4A     		ldr	r2, .L52+4
 842 0034 1168     		ldr	r1, [r2]
 843 0036 41F48041 		orr	r1, r1, #16384
 844 003a 1160     		str	r1, [r2]
 398:Core/Src/main.c ****   /** Initializes the RCC Oscillators according to the specified parameters
 845              		.loc 1 398 3 view .LVU244
 846 003c 1268     		ldr	r2, [r2]
 847 003e 02F48042 		and	r2, r2, #16384
 848 0042 0292     		str	r2, [sp, #8]
 398:Core/Src/main.c ****   /** Initializes the RCC Oscillators according to the specified parameters
 849              		.loc 1 398 3 view .LVU245
 850 0044 029A     		ldr	r2, [sp, #8]
 851              	.LBE12:
 398:Core/Src/main.c ****   /** Initializes the RCC Oscillators according to the specified parameters
 852              		.loc 1 398 3 view .LVU246
 402:Core/Src/main.c ****   RCC_OscInitStruct.HSIState = RCC_HSI_ON;
 853              		.loc 1 402 3 view .LVU247
 402:Core/Src/main.c ****   RCC_OscInitStruct.HSIState = RCC_HSI_ON;
 854              		.loc 1 402 36 is_stmt 0 view .LVU248
ARM GAS  C:\Users\user\AppData\Local\Temp\ccreuSL2.s 			page 33


 855 0046 0A22     		movs	r2, #10
 856 0048 0892     		str	r2, [sp, #32]
 403:Core/Src/main.c ****   RCC_OscInitStruct.HSICalibrationValue = RCC_HSICALIBRATION_DEFAULT;
 857              		.loc 1 403 3 is_stmt 1 view .LVU249
 403:Core/Src/main.c ****   RCC_OscInitStruct.HSICalibrationValue = RCC_HSICALIBRATION_DEFAULT;
 858              		.loc 1 403 30 is_stmt 0 view .LVU250
 859 004a 0122     		movs	r2, #1
 860 004c 0B92     		str	r2, [sp, #44]
 404:Core/Src/main.c ****   RCC_OscInitStruct.LSIState = RCC_LSI_ON;
 861              		.loc 1 404 3 is_stmt 1 view .LVU251
 404:Core/Src/main.c ****   RCC_OscInitStruct.LSIState = RCC_LSI_ON;
 862              		.loc 1 404 41 is_stmt 0 view .LVU252
 863 004e 1021     		movs	r1, #16
 864 0050 0C91     		str	r1, [sp, #48]
 405:Core/Src/main.c ****   RCC_OscInitStruct.PLL.PLLState = RCC_PLL_ON;
 865              		.loc 1 405 3 is_stmt 1 view .LVU253
 405:Core/Src/main.c ****   RCC_OscInitStruct.PLL.PLLState = RCC_PLL_ON;
 866              		.loc 1 405 30 is_stmt 0 view .LVU254
 867 0052 0D92     		str	r2, [sp, #52]
 406:Core/Src/main.c ****   RCC_OscInitStruct.PLL.PLLSource = RCC_PLLSOURCE_HSI;
 868              		.loc 1 406 3 is_stmt 1 view .LVU255
 406:Core/Src/main.c ****   RCC_OscInitStruct.PLL.PLLSource = RCC_PLLSOURCE_HSI;
 869              		.loc 1 406 34 is_stmt 0 view .LVU256
 870 0054 0222     		movs	r2, #2
 871 0056 0E92     		str	r2, [sp, #56]
 407:Core/Src/main.c ****   RCC_OscInitStruct.PLL.PLLM = 8;
 872              		.loc 1 407 3 is_stmt 1 view .LVU257
 407:Core/Src/main.c ****   RCC_OscInitStruct.PLL.PLLM = 8;
 873              		.loc 1 407 35 is_stmt 0 view .LVU258
 874 0058 0F93     		str	r3, [sp, #60]
 408:Core/Src/main.c ****   RCC_OscInitStruct.PLL.PLLN = 168;
 875              		.loc 1 408 3 is_stmt 1 view .LVU259
 408:Core/Src/main.c ****   RCC_OscInitStruct.PLL.PLLN = 168;
 876              		.loc 1 408 30 is_stmt 0 view .LVU260
 877 005a 0823     		movs	r3, #8
 878 005c 1093     		str	r3, [sp, #64]
 409:Core/Src/main.c ****   RCC_OscInitStruct.PLL.PLLP = RCC_PLLP_DIV2;
 879              		.loc 1 409 3 is_stmt 1 view .LVU261
 409:Core/Src/main.c ****   RCC_OscInitStruct.PLL.PLLP = RCC_PLLP_DIV2;
 880              		.loc 1 409 30 is_stmt 0 view .LVU262
 881 005e A823     		movs	r3, #168
 882 0060 1193     		str	r3, [sp, #68]
 410:Core/Src/main.c ****   RCC_OscInitStruct.PLL.PLLQ = 4;
 883              		.loc 1 410 3 is_stmt 1 view .LVU263
 410:Core/Src/main.c ****   RCC_OscInitStruct.PLL.PLLQ = 4;
 884              		.loc 1 410 30 is_stmt 0 view .LVU264
 885 0062 1292     		str	r2, [sp, #72]
 411:Core/Src/main.c ****   if (HAL_RCC_OscConfig(&RCC_OscInitStruct) != HAL_OK)
 886              		.loc 1 411 3 is_stmt 1 view .LVU265
 411:Core/Src/main.c ****   if (HAL_RCC_OscConfig(&RCC_OscInitStruct) != HAL_OK)
 887              		.loc 1 411 30 is_stmt 0 view .LVU266
 888 0064 0423     		movs	r3, #4
 889 0066 1393     		str	r3, [sp, #76]
 412:Core/Src/main.c ****   {
 890              		.loc 1 412 3 is_stmt 1 view .LVU267
 412:Core/Src/main.c ****   {
 891              		.loc 1 412 7 is_stmt 0 view .LVU268
ARM GAS  C:\Users\user\AppData\Local\Temp\ccreuSL2.s 			page 34


 892 0068 08A8     		add	r0, sp, #32
 893 006a FFF7FEFF 		bl	HAL_RCC_OscConfig
 894              	.LVL27:
 412:Core/Src/main.c ****   {
 895              		.loc 1 412 6 view .LVU269
 896 006e 98B9     		cbnz	r0, .L50
 418:Core/Src/main.c ****                               |RCC_CLOCKTYPE_PCLK1|RCC_CLOCKTYPE_PCLK2;
 897              		.loc 1 418 3 is_stmt 1 view .LVU270
 418:Core/Src/main.c ****                               |RCC_CLOCKTYPE_PCLK1|RCC_CLOCKTYPE_PCLK2;
 898              		.loc 1 418 31 is_stmt 0 view .LVU271
 899 0070 0F23     		movs	r3, #15
 900 0072 0393     		str	r3, [sp, #12]
 420:Core/Src/main.c ****   RCC_ClkInitStruct.AHBCLKDivider = RCC_SYSCLK_DIV1;
 901              		.loc 1 420 3 is_stmt 1 view .LVU272
 420:Core/Src/main.c ****   RCC_ClkInitStruct.AHBCLKDivider = RCC_SYSCLK_DIV1;
 902              		.loc 1 420 34 is_stmt 0 view .LVU273
 903 0074 0223     		movs	r3, #2
 904 0076 0493     		str	r3, [sp, #16]
 421:Core/Src/main.c ****   RCC_ClkInitStruct.APB1CLKDivider = RCC_HCLK_DIV4;
 905              		.loc 1 421 3 is_stmt 1 view .LVU274
 421:Core/Src/main.c ****   RCC_ClkInitStruct.APB1CLKDivider = RCC_HCLK_DIV4;
 906              		.loc 1 421 35 is_stmt 0 view .LVU275
 907 0078 0023     		movs	r3, #0
 908 007a 0593     		str	r3, [sp, #20]
 422:Core/Src/main.c ****   RCC_ClkInitStruct.APB2CLKDivider = RCC_HCLK_DIV2;
 909              		.loc 1 422 3 is_stmt 1 view .LVU276
 422:Core/Src/main.c ****   RCC_ClkInitStruct.APB2CLKDivider = RCC_HCLK_DIV2;
 910              		.loc 1 422 36 is_stmt 0 view .LVU277
 911 007c 4FF4A053 		mov	r3, #5120
 912 0080 0693     		str	r3, [sp, #24]
 423:Core/Src/main.c **** 
 913              		.loc 1 423 3 is_stmt 1 view .LVU278
 423:Core/Src/main.c **** 
 914              		.loc 1 423 36 is_stmt 0 view .LVU279
 915 0082 4FF48053 		mov	r3, #4096
 916 0086 0793     		str	r3, [sp, #28]
 425:Core/Src/main.c ****   {
 917              		.loc 1 425 3 is_stmt 1 view .LVU280
 425:Core/Src/main.c ****   {
 918              		.loc 1 425 7 is_stmt 0 view .LVU281
 919 0088 0521     		movs	r1, #5
 920 008a 03A8     		add	r0, sp, #12
 921 008c FFF7FEFF 		bl	HAL_RCC_ClockConfig
 922              	.LVL28:
 425:Core/Src/main.c ****   {
 923              		.loc 1 425 6 view .LVU282
 924 0090 20B9     		cbnz	r0, .L51
 429:Core/Src/main.c **** 
 925              		.loc 1 429 1 view .LVU283
 926 0092 15B0     		add	sp, sp, #84
 927              	.LCFI15:
 928              		.cfi_remember_state
 929              		.cfi_def_cfa_offset 4
 930              		@ sp needed
 931 0094 5DF804FB 		ldr	pc, [sp], #4
 932              	.L50:
 933              	.LCFI16:
ARM GAS  C:\Users\user\AppData\Local\Temp\ccreuSL2.s 			page 35


 934              		.cfi_restore_state
 414:Core/Src/main.c ****   }
 935              		.loc 1 414 5 is_stmt 1 view .LVU284
 936 0098 FFF7FEFF 		bl	Error_Handler
 937              	.LVL29:
 938              	.L51:
 427:Core/Src/main.c ****   }
 939              		.loc 1 427 5 view .LVU285
 940 009c FFF7FEFF 		bl	Error_Handler
 941              	.LVL30:
 942              	.L53:
 943              		.align	2
 944              	.L52:
 945 00a0 00380240 		.word	1073887232
 946 00a4 00700040 		.word	1073770496
 947              		.cfi_endproc
 948              	.LFE134:
 950              		.section	.rodata.main.str1.4,"aMS",%progbits,1
 951              		.align	2
 952              	.LC0:
 953 0000 52757300 		.ascii	"Rus\000"
 954              		.section	.text.main,"ax",%progbits
 955              		.align	1
 956              		.global	main
 957              		.syntax unified
 958              		.thumb
 959              		.thumb_func
 960              		.fpu fpv4-sp-d16
 962              	main:
 963              	.LFB132:
 197:Core/Src/main.c ****   /* USER CODE BEGIN 1 */
 964              		.loc 1 197 1 view -0
 965              		.cfi_startproc
 966              		@ args = 0, pretend = 0, frame = 0
 967              		@ frame_needed = 0, uses_anonymous_args = 0
 968 0000 70B5     		push	{r4, r5, r6, lr}
 969              	.LCFI17:
 970              		.cfi_def_cfa_offset 16
 971              		.cfi_offset 4, -16
 972              		.cfi_offset 5, -12
 973              		.cfi_offset 6, -8
 974              		.cfi_offset 14, -4
 975 0002 84B0     		sub	sp, sp, #16
 976              	.LCFI18:
 977              		.cfi_def_cfa_offset 32
 199:Core/Src/main.c ****   /* USER CODE END 1 */
 978              		.loc 1 199 3 view .LVU287
 979 0004 9149     		ldr	r1, .L81
 980 0006 0020     		movs	r0, #0
 981 0008 FFF7FEFF 		bl	setlocale
 982              	.LVL31:
 205:Core/Src/main.c **** 
 983              		.loc 1 205 3 view .LVU288
 984 000c FFF7FEFF 		bl	HAL_Init
 985              	.LVL32:
 212:Core/Src/main.c **** 
 986              		.loc 1 212 3 view .LVU289
ARM GAS  C:\Users\user\AppData\Local\Temp\ccreuSL2.s 			page 36


 987 0010 FFF7FEFF 		bl	SystemClock_Config
 988              	.LVL33:
 219:Core/Src/main.c **** //MX_RTC_Init();
 989              		.loc 1 219 3 view .LVU290
 990 0014 FFF7FEFF 		bl	MX_GPIO_Init
 991              	.LVL34:
 222:Core/Src/main.c ****   HAL_UART_Receive_IT(&huart2,rx_buff,1);
 992              		.loc 1 222 3 view .LVU291
 993 0018 FFF7FEFF 		bl	MX_USART2_UART_Init
 994              	.LVL35:
 223:Core/Src/main.c ****   MX_TIM6_Init();
 995              		.loc 1 223 3 view .LVU292
 996 001c 0122     		movs	r2, #1
 997 001e 8C49     		ldr	r1, .L81+4
 998 0020 8C48     		ldr	r0, .L81+8
 999 0022 FFF7FEFF 		bl	HAL_UART_Receive_IT
 1000              	.LVL36:
 224:Core/Src/main.c ****   visInit();
 1001              		.loc 1 224 3 view .LVU293
 1002 0026 FFF7FEFF 		bl	MX_TIM6_Init
 1003              	.LVL37:
 225:Core/Src/main.c ****   /* USER CODE BEGIN 2 */
 1004              		.loc 1 225 3 view .LVU294
 1005 002a FFF7FEFF 		bl	visInit
 1006              	.LVL38:
 228:Core/Src/main.c ****   NOS_WS2812B_Matrix_FullInit(&matrixB,&frameBuffer2,&msB,&yellow,&fone,&matrixBsymc,40);
 1007              		.loc 1 228 3 view .LVU295
 1008 002e 2825     		movs	r5, #40
 1009 0030 0295     		str	r5, [sp, #8]
 1010 0032 894B     		ldr	r3, .L81+12
 1011 0034 0193     		str	r3, [sp, #4]
 1012 0036 894C     		ldr	r4, .L81+16
 1013 0038 0094     		str	r4, [sp]
 1014 003a 894B     		ldr	r3, .L81+20
 1015 003c 894A     		ldr	r2, .L81+24
 1016 003e 8A49     		ldr	r1, .L81+28
 1017 0040 8A48     		ldr	r0, .L81+32
 1018 0042 FFF7FEFF 		bl	NOS_WS2812B_Matrix_FullInit
 1019              	.LVL39:
 229:Core/Src/main.c ****   NOS_WS2812B_Matrix_FullInit(&matrixC,&frameBuffer3,&msC,&blue,&fone,&matrixCsymc,40);
 1020              		.loc 1 229 3 view .LVU296
 1021 0046 0295     		str	r5, [sp, #8]
 1022 0048 894B     		ldr	r3, .L81+36
 1023 004a 0193     		str	r3, [sp, #4]
 1024 004c 0094     		str	r4, [sp]
 1025 004e 894B     		ldr	r3, .L81+40
 1026 0050 894A     		ldr	r2, .L81+44
 1027 0052 8A49     		ldr	r1, .L81+48
 1028 0054 8A48     		ldr	r0, .L81+52
 1029 0056 FFF7FEFF 		bl	NOS_WS2812B_Matrix_FullInit
 1030              	.LVL40:
 230:Core/Src/main.c ****   //NOS_ModBus_InitStruct(&ModBus,&huart2,NULL,PA1);
 1031              		.loc 1 230 3 view .LVU297
 1032 005a 0295     		str	r5, [sp, #8]
 1033 005c 894B     		ldr	r3, .L81+56
 1034 005e 0193     		str	r3, [sp, #4]
 1035 0060 0094     		str	r4, [sp]
ARM GAS  C:\Users\user\AppData\Local\Temp\ccreuSL2.s 			page 37


 1036 0062 894B     		ldr	r3, .L81+60
 1037 0064 894A     		ldr	r2, .L81+64
 1038 0066 8A49     		ldr	r1, .L81+68
 1039 0068 8A48     		ldr	r0, .L81+72
 1040 006a FFF7FEFF 		bl	NOS_WS2812B_Matrix_FullInit
 1041              	.LVL41:
 233:Core/Src/main.c ****   realtime.format = Hour24;
 1042              		.loc 1 233 3 view .LVU298
 233:Core/Src/main.c ****   realtime.format = Hour24;
 1043              		.loc 1 233 13 is_stmt 0 view .LVU299
 1044 006e 8A4B     		ldr	r3, .L81+76
 1045 0070 8A4A     		ldr	r2, .L81+80
 1046 0072 1A60     		str	r2, [r3]	@ float
 234:Core/Src/main.c ****   detector.Address = 101;
 1047              		.loc 1 234 3 is_stmt 1 view .LVU300
 234:Core/Src/main.c ****   detector.Address = 101;
 1048              		.loc 1 234 19 is_stmt 0 view .LVU301
 1049 0074 0023     		movs	r3, #0
 1050 0076 8A4A     		ldr	r2, .L81+84
 1051 0078 5371     		strb	r3, [r2, #5]
 235:Core/Src/main.c ****   detector.value.data = 0.15f;
 1052              		.loc 1 235 3 is_stmt 1 view .LVU302
 235:Core/Src/main.c ****   detector.value.data = 0.15f;
 1053              		.loc 1 235 20 is_stmt 0 view .LVU303
 1054 007a 8A4A     		ldr	r2, .L81+88
 1055 007c 6521     		movs	r1, #101
 1056 007e 1170     		strb	r1, [r2]
 236:Core/Src/main.c ****   detector.first_danger.data = 0.25f;
 1057              		.loc 1 236 3 is_stmt 1 view .LVU304
 236:Core/Src/main.c ****   detector.first_danger.data = 0.25f;
 1058              		.loc 1 236 23 is_stmt 0 view .LVU305
 1059 0080 8949     		ldr	r1, .L81+92
 1060 0082 5160     		str	r1, [r2, #4]	@ float
 237:Core/Src/main.c ****   detector.second_danger.data = 1.25f;
 1061              		.loc 1 237 3 is_stmt 1 view .LVU306
 237:Core/Src/main.c ****   detector.second_danger.data = 1.25f;
 1062              		.loc 1 237 30 is_stmt 0 view .LVU307
 1063 0084 4FF07A51 		mov	r1, #1048576000
 1064 0088 9160     		str	r1, [r2, #8]	@ float
 238:Core/Src/main.c ****   for(int i = 0; i < 1023; i++)
 1065              		.loc 1 238 3 is_stmt 1 view .LVU308
 238:Core/Src/main.c ****   for(int i = 0; i < 1023; i++)
 1066              		.loc 1 238 31 is_stmt 0 view .LVU309
 1067 008a 8849     		ldr	r1, .L81+96
 1068 008c D160     		str	r1, [r2, #12]	@ float
 239:Core/Src/main.c ****   {
 1069              		.loc 1 239 3 is_stmt 1 view .LVU310
 1070              	.LBB13:
 239:Core/Src/main.c ****   {
 1071              		.loc 1 239 7 view .LVU311
 1072              	.LVL42:
 239:Core/Src/main.c ****   {
 1073              		.loc 1 239 3 is_stmt 0 view .LVU312
 1074 008e 03E0     		b	.L55
 1075              	.LVL43:
 1076              	.L56:
 241:Core/Src/main.c ****   }
ARM GAS  C:\Users\user\AppData\Local\Temp\ccreuSL2.s 			page 38


 1077              		.loc 1 241 5 is_stmt 1 discriminator 3 view .LVU313
 241:Core/Src/main.c ****   }
 1078              		.loc 1 241 17 is_stmt 0 discriminator 3 view .LVU314
 1079 0090 874A     		ldr	r2, .L81+100
 1080 0092 0F21     		movs	r1, #15
 1081 0094 D154     		strb	r1, [r2, r3]
 239:Core/Src/main.c ****   {
 1082              		.loc 1 239 28 is_stmt 1 discriminator 3 view .LVU315
 239:Core/Src/main.c ****   {
 1083              		.loc 1 239 29 is_stmt 0 discriminator 3 view .LVU316
 1084 0096 0133     		adds	r3, r3, #1
 1085              	.LVL44:
 1086              	.L55:
 239:Core/Src/main.c ****   {
 1087              		.loc 1 239 18 is_stmt 1 discriminator 1 view .LVU317
 239:Core/Src/main.c ****   {
 1088              		.loc 1 239 3 is_stmt 0 discriminator 1 view .LVU318
 1089 0098 40F2FE32 		movw	r2, #1022
 1090 009c 9342     		cmp	r3, r2
 1091 009e F7DD     		ble	.L56
 1092 00a0 14E0     		b	.L75
 1093              	.LVL45:
 1094              	.L58:
 239:Core/Src/main.c ****   {
 1095              		.loc 1 239 3 discriminator 1 view .LVU319
 1096              	.LBE13:
 261:Core/Src/main.c ****       {
 1097              		.loc 1 261 7 is_stmt 1 view .LVU320
 261:Core/Src/main.c ****       {
 1098              		.loc 1 261 16 is_stmt 0 view .LVU321
 1099 00a2 844B     		ldr	r3, .L81+104
 1100 00a4 93F87C30 		ldrb	r3, [r3, #124]	@ zero_extendqisi2
 261:Core/Src/main.c ****       {
 1101              		.loc 1 261 9 view .LVU322
 1102 00a8 022B     		cmp	r3, #2
 1103 00aa 1ED0     		beq	.L78
 1104              	.L59:
 291:Core/Src/main.c ****       rx_flag = false;
 1105              		.loc 1 291 7 is_stmt 1 view .LVU323
 291:Core/Src/main.c ****       rx_flag = false;
 1106              		.loc 1 291 30 is_stmt 0 view .LVU324
 1107 00ac 0023     		movs	r3, #0
 1108 00ae 824A     		ldr	r2, .L81+108
 1109 00b0 1380     		strh	r3, [r2]	@ movhi
 292:Core/Src/main.c ****       if(timelastReceiveMessage >= 20)
 1110              		.loc 1 292 7 is_stmt 1 view .LVU325
 292:Core/Src/main.c ****       if(timelastReceiveMessage >= 20)
 1111              		.loc 1 292 15 is_stmt 0 view .LVU326
 1112 00b2 824A     		ldr	r2, .L81+112
 1113 00b4 1370     		strb	r3, [r2]
 293:Core/Src/main.c ****       {
 1114              		.loc 1 293 7 is_stmt 1 view .LVU327
 296:Core/Src/main.c ****       timelastReceiveMessage = 0;
 1115              		.loc 1 296 7 view .LVU328
 297:Core/Src/main.c ****     }
 1116              		.loc 1 297 7 view .LVU329
 1117              	.L57:
ARM GAS  C:\Users\user\AppData\Local\Temp\ccreuSL2.s 			page 39


 300:Core/Src/main.c ****     {
 1118              		.loc 1 300 5 view .LVU330
 300:Core/Src/main.c ****     {
 1119              		.loc 1 300 8 is_stmt 0 view .LVU331
 1120 00b6 824B     		ldr	r3, .L81+116
 1121 00b8 1B78     		ldrb	r3, [r3]	@ zero_extendqisi2
 300:Core/Src/main.c ****     {
 1122              		.loc 1 300 7 view .LVU332
 1123 00ba 002B     		cmp	r3, #0
 1124 00bc 4DD1     		bne	.L79
 1125              	.L66:
 348:Core/Src/main.c ****     {
 1126              		.loc 1 348 5 is_stmt 1 view .LVU333
 348:Core/Src/main.c ****     {
 1127              		.loc 1 348 13 is_stmt 0 view .LVU334
 1128 00be 814B     		ldr	r3, .L81+120
 1129 00c0 1A68     		ldr	r2, [r3]
 1130 00c2 814B     		ldr	r3, .L81+124
 1131 00c4 1B68     		ldr	r3, [r3]
 348:Core/Src/main.c ****     {
 1132              		.loc 1 348 7 view .LVU335
 1133 00c6 9A42     		cmp	r2, r3
 1134 00c8 00F29480 		bhi	.L80
 1135              	.L75:
 247:Core/Src/main.c ****   {
 1136              		.loc 1 247 3 is_stmt 1 view .LVU336
 249:Core/Src/main.c ****     {
 1137              		.loc 1 249 5 view .LVU337
 252:Core/Src/main.c **** 
 1138              		.loc 1 252 5 view .LVU338
 254:Core/Src/main.c ****     {
 1139              		.loc 1 254 5 view .LVU339
 254:Core/Src/main.c ****     {
 1140              		.loc 1 254 8 is_stmt 0 view .LVU340
 1141 00cc 7B4B     		ldr	r3, .L81+112
 1142 00ce 1B78     		ldrb	r3, [r3]	@ zero_extendqisi2
 254:Core/Src/main.c ****     {
 1143              		.loc 1 254 7 view .LVU341
 1144 00d0 002B     		cmp	r3, #0
 1145 00d2 F0D0     		beq	.L57
 256:Core/Src/main.c ****       {
 1146              		.loc 1 256 7 is_stmt 1 view .LVU342
 256:Core/Src/main.c ****       {
 1147              		.loc 1 256 16 is_stmt 0 view .LVU343
 1148 00d4 774B     		ldr	r3, .L81+104
 1149 00d6 93F87C30 		ldrb	r3, [r3, #124]	@ zero_extendqisi2
 256:Core/Src/main.c ****       {
 1150              		.loc 1 256 9 view .LVU344
 1151 00da 012B     		cmp	r3, #1
 1152 00dc E1D1     		bne	.L58
 258:Core/Src/main.c ****       }
 1153              		.loc 1 258 9 is_stmt 1 view .LVU345
 1154 00de 0022     		movs	r2, #0
 1155 00e0 5B49     		ldr	r1, .L81+4
 1156 00e2 7A48     		ldr	r0, .L81+128
 1157 00e4 FFF7FEFF 		bl	NOS_ModBus_ParseMasterCommand
 1158              	.LVL46:
ARM GAS  C:\Users\user\AppData\Local\Temp\ccreuSL2.s 			page 40


 1159 00e8 DBE7     		b	.L58
 1160              	.L78:
 263:Core/Src/main.c ****         switch (ModBus.master.Reg_Addr.data)
 1161              		.loc 1 263 9 view .LVU346
 1162 00ea 724C     		ldr	r4, .L81+104
 1163 00ec 0022     		movs	r2, #0
 1164 00ee 5849     		ldr	r1, .L81+4
 1165 00f0 04F16000 		add	r0, r4, #96
 1166 00f4 FFF7FEFF 		bl	NOS_ModBus_ParseSlaveCommand
 1167              	.LVL47:
 264:Core/Src/main.c ****         {
 1168              		.loc 1 264 9 view .LVU347
 264:Core/Src/main.c ****         {
 1169              		.loc 1 264 39 is_stmt 0 view .LVU348
 1170 00f8 B4F85430 		ldrh	r3, [r4, #84]
 1171 00fc 013B     		subs	r3, r3, #1
 1172 00fe 062B     		cmp	r3, #6
 1173 0100 D4D8     		bhi	.L59
 1174 0102 01A2     		adr	r2, .L61
 1175 0104 52F823F0 		ldr	pc, [r2, r3, lsl #2]
 1176              		.p2align 2
 1177              	.L61:
 1178 0108 25010000 		.word	.L65+1
 1179 010c 31010000 		.word	.L64+1
 1180 0110 AD000000 		.word	.L59+1
 1181 0114 3B010000 		.word	.L63+1
 1182 0118 47010000 		.word	.L62+1
 1183 011c AD000000 		.word	.L59+1
 1184 0120 51010000 		.word	.L60+1
 1185              		.p2align 1
 1186              	.L65:
 267:Core/Src/main.c ****           break;
 1187              		.loc 1 267 11 is_stmt 1 view .LVU349
 267:Core/Src/main.c ****           break;
 1188              		.loc 1 267 62 is_stmt 0 view .LVU350
 1189 0124 634B     		ldr	r3, .L81+104
 1190 0126 B3F86620 		ldrh	r2, [r3, #102]
 267:Core/Src/main.c ****           break;
 1191              		.loc 1 267 37 view .LVU351
 1192 012a 5E4B     		ldr	r3, .L81+88
 1193 012c 5A82     		strh	r2, [r3, #18]	@ movhi
 268:Core/Src/main.c **** 
 1194              		.loc 1 268 11 is_stmt 1 view .LVU352
 1195 012e BDE7     		b	.L59
 1196              	.L64:
 271:Core/Src/main.c ****           break;
 1197              		.loc 1 271 11 view .LVU353
 271:Core/Src/main.c ****           break;
 1198              		.loc 1 271 56 is_stmt 0 view .LVU354
 1199 0130 604B     		ldr	r3, .L81+104
 1200 0132 9A6E     		ldr	r2, [r3, #104]	@ float
 271:Core/Src/main.c ****           break;
 1201              		.loc 1 271 31 view .LVU355
 1202 0134 5B4B     		ldr	r3, .L81+88
 1203 0136 5A60     		str	r2, [r3, #4]	@ float
 272:Core/Src/main.c **** 
 1204              		.loc 1 272 11 is_stmt 1 view .LVU356
ARM GAS  C:\Users\user\AppData\Local\Temp\ccreuSL2.s 			page 41


 1205 0138 B8E7     		b	.L59
 1206              	.L63:
 275:Core/Src/main.c ****           break;
 1207              		.loc 1 275 11 view .LVU357
 275:Core/Src/main.c ****           break;
 1208              		.loc 1 275 53 is_stmt 0 view .LVU358
 1209 013a 5E4B     		ldr	r3, .L81+104
 1210 013c B3F86620 		ldrh	r2, [r3, #102]
 275:Core/Src/main.c ****           break;
 1211              		.loc 1 275 28 view .LVU359
 1212 0140 584B     		ldr	r3, .L81+88
 1213 0142 1A82     		strh	r2, [r3, #16]	@ movhi
 276:Core/Src/main.c **** 
 1214              		.loc 1 276 11 is_stmt 1 view .LVU360
 1215 0144 B2E7     		b	.L59
 1216              	.L62:
 279:Core/Src/main.c ****           break;
 1217              		.loc 1 279 11 view .LVU361
 279:Core/Src/main.c ****           break;
 1218              		.loc 1 279 63 is_stmt 0 view .LVU362
 1219 0146 5B4B     		ldr	r3, .L81+104
 1220 0148 9A6E     		ldr	r2, [r3, #104]	@ float
 279:Core/Src/main.c ****           break;
 1221              		.loc 1 279 38 view .LVU363
 1222 014a 564B     		ldr	r3, .L81+88
 1223 014c 9A60     		str	r2, [r3, #8]	@ float
 280:Core/Src/main.c **** 
 1224              		.loc 1 280 11 is_stmt 1 view .LVU364
 1225 014e ADE7     		b	.L59
 1226              	.L60:
 283:Core/Src/main.c ****           break;
 1227              		.loc 1 283 11 view .LVU365
 283:Core/Src/main.c ****           break;
 1228              		.loc 1 283 64 is_stmt 0 view .LVU366
 1229 0150 584B     		ldr	r3, .L81+104
 1230 0152 9A6E     		ldr	r2, [r3, #104]	@ float
 283:Core/Src/main.c ****           break;
 1231              		.loc 1 283 39 view .LVU367
 1232 0154 534B     		ldr	r3, .L81+88
 1233 0156 DA60     		str	r2, [r3, #12]	@ float
 284:Core/Src/main.c **** 
 1234              		.loc 1 284 11 is_stmt 1 view .LVU368
 1235 0158 A8E7     		b	.L59
 1236              	.L79:
 302:Core/Src/main.c ****       {
 1237              		.loc 1 302 7 view .LVU369
 305:Core/Src/main.c ****       HAL_GPIO_WritePin(GPIOA,GPIO_PIN_1,1);
 1238              		.loc 1 305 7 view .LVU370
 306:Core/Src/main.c ****       ModBus.master.Addr = 0x65;
 1239              		.loc 1 306 7 view .LVU371
 1240 015a 0122     		movs	r2, #1
 1241 015c 0221     		movs	r1, #2
 1242 015e 5C48     		ldr	r0, .L81+132
 1243 0160 FFF7FEFF 		bl	HAL_GPIO_WritePin
 1244              	.LVL48:
 307:Core/Src/main.c ****       ModBus.master.Command = 0x03; 
 1245              		.loc 1 307 7 view .LVU372
ARM GAS  C:\Users\user\AppData\Local\Temp\ccreuSL2.s 			page 42


 307:Core/Src/main.c ****       ModBus.master.Command = 0x03; 
 1246              		.loc 1 307 26 is_stmt 0 view .LVU373
 1247 0164 534B     		ldr	r3, .L81+104
 1248 0166 6522     		movs	r2, #101
 1249 0168 83F85020 		strb	r2, [r3, #80]
 308:Core/Src/main.c ****       switch(TxCommandCounter)
 1250              		.loc 1 308 7 is_stmt 1 view .LVU374
 308:Core/Src/main.c ****       switch(TxCommandCounter)
 1251              		.loc 1 308 29 is_stmt 0 view .LVU375
 1252 016c 0322     		movs	r2, #3
 1253 016e 83F85120 		strb	r2, [r3, #81]
 309:Core/Src/main.c ****       {
 1254              		.loc 1 309 7 is_stmt 1 view .LVU376
 1255 0172 584B     		ldr	r3, .L81+136
 1256 0174 1B78     		ldrb	r3, [r3]	@ zero_extendqisi2
 1257 0176 042B     		cmp	r3, #4
 1258 0178 38D8     		bhi	.L67
 1259 017a DFE803F0 		tbb	[pc, r3]
 1260              	.L69:
 1261 017e 03       		.byte	(.L73-.L69)/2
 1262 017f 18       		.byte	(.L72-.L69)/2
 1263 0180 1F       		.byte	(.L71-.L69)/2
 1264 0181 27       		.byte	(.L70-.L69)/2
 1265 0182 2F       		.byte	(.L68-.L69)/2
 1266 0183 00       		.p2align 1
 1267              	.L73:
 312:Core/Src/main.c ****         ModBus.master.Reg_Count.data = 0x0001;
 1268              		.loc 1 312 9 view .LVU377
 312:Core/Src/main.c ****         ModBus.master.Reg_Count.data = 0x0001;
 1269              		.loc 1 312 37 is_stmt 0 view .LVU378
 1270 0184 4B4B     		ldr	r3, .L81+104
 1271 0186 0122     		movs	r2, #1
 1272 0188 A3F85420 		strh	r2, [r3, #84]	@ movhi
 313:Core/Src/main.c ****         break;
 1273              		.loc 1 313 9 is_stmt 1 view .LVU379
 313:Core/Src/main.c ****         break;
 1274              		.loc 1 313 38 is_stmt 0 view .LVU380
 1275 018c A3F85620 		strh	r2, [r3, #86]	@ movhi
 314:Core/Src/main.c ****         
 1276              		.loc 1 314 9 is_stmt 1 view .LVU381
 1277              	.L74:
 341:Core/Src/main.c ****         tx_flag = false;
 1278              		.loc 1 341 9 view .LVU382
 1279 0190 4848     		ldr	r0, .L81+104
 1280 0192 FFF7FEFF 		bl	NOS_ModBus_SendMasterCommand
 1281              	.LVL49:
 342:Core/Src/main.c ****       
 1282              		.loc 1 342 9 view .LVU383
 342:Core/Src/main.c ****       
 1283              		.loc 1 342 17 is_stmt 0 view .LVU384
 1284 0196 0022     		movs	r2, #0
 1285 0198 494B     		ldr	r3, .L81+116
 1286 019a 1A70     		strb	r2, [r3]
 344:Core/Src/main.c ****       TxCommandCounter++;
 1287              		.loc 1 344 7 is_stmt 1 view .LVU385
 1288 019c 0221     		movs	r1, #2
 1289 019e 4C48     		ldr	r0, .L81+132
ARM GAS  C:\Users\user\AppData\Local\Temp\ccreuSL2.s 			page 43


 1290 01a0 FFF7FEFF 		bl	HAL_GPIO_WritePin
 1291              	.LVL50:
 345:Core/Src/main.c ****     }
 1292              		.loc 1 345 7 view .LVU386
 345:Core/Src/main.c ****     }
 1293              		.loc 1 345 23 is_stmt 0 view .LVU387
 1294 01a4 4B4A     		ldr	r2, .L81+136
 1295 01a6 1378     		ldrb	r3, [r2]	@ zero_extendqisi2
 1296 01a8 0133     		adds	r3, r3, #1
 1297 01aa 1370     		strb	r3, [r2]
 1298 01ac 87E7     		b	.L66
 1299              	.L72:
 317:Core/Src/main.c ****         ModBus.master.Reg_Count.data = 0x0002;
 1300              		.loc 1 317 9 is_stmt 1 view .LVU388
 317:Core/Src/main.c ****         ModBus.master.Reg_Count.data = 0x0002;
 1301              		.loc 1 317 37 is_stmt 0 view .LVU389
 1302 01ae 414B     		ldr	r3, .L81+104
 1303 01b0 0222     		movs	r2, #2
 1304 01b2 A3F85420 		strh	r2, [r3, #84]	@ movhi
 318:Core/Src/main.c ****         break;
 1305              		.loc 1 318 9 is_stmt 1 view .LVU390
 318:Core/Src/main.c ****         break;
 1306              		.loc 1 318 38 is_stmt 0 view .LVU391
 1307 01b6 A3F85620 		strh	r2, [r3, #86]	@ movhi
 319:Core/Src/main.c **** 
 1308              		.loc 1 319 9 is_stmt 1 view .LVU392
 1309 01ba E9E7     		b	.L74
 1310              	.L71:
 322:Core/Src/main.c ****         ModBus.master.Reg_Count.data = 0x0001;
 1311              		.loc 1 322 9 view .LVU393
 322:Core/Src/main.c ****         ModBus.master.Reg_Count.data = 0x0001;
 1312              		.loc 1 322 37 is_stmt 0 view .LVU394
 1313 01bc 3D4B     		ldr	r3, .L81+104
 1314 01be 0422     		movs	r2, #4
 1315 01c0 A3F85420 		strh	r2, [r3, #84]	@ movhi
 323:Core/Src/main.c ****         break;
 1316              		.loc 1 323 9 is_stmt 1 view .LVU395
 323:Core/Src/main.c ****         break;
 1317              		.loc 1 323 38 is_stmt 0 view .LVU396
 1318 01c4 0122     		movs	r2, #1
 1319 01c6 A3F85620 		strh	r2, [r3, #86]	@ movhi
 324:Core/Src/main.c **** 
 1320              		.loc 1 324 9 is_stmt 1 view .LVU397
 1321 01ca E1E7     		b	.L74
 1322              	.L70:
 327:Core/Src/main.c ****         ModBus.master.Reg_Count.data = 0x0002;
 1323              		.loc 1 327 9 view .LVU398
 327:Core/Src/main.c ****         ModBus.master.Reg_Count.data = 0x0002;
 1324              		.loc 1 327 37 is_stmt 0 view .LVU399
 1325 01cc 394B     		ldr	r3, .L81+104
 1326 01ce 0522     		movs	r2, #5
 1327 01d0 A3F85420 		strh	r2, [r3, #84]	@ movhi
 328:Core/Src/main.c ****         break;
 1328              		.loc 1 328 9 is_stmt 1 view .LVU400
 328:Core/Src/main.c ****         break;
 1329              		.loc 1 328 38 is_stmt 0 view .LVU401
 1330 01d4 0222     		movs	r2, #2
ARM GAS  C:\Users\user\AppData\Local\Temp\ccreuSL2.s 			page 44


 1331 01d6 A3F85620 		strh	r2, [r3, #86]	@ movhi
 329:Core/Src/main.c **** 
 1332              		.loc 1 329 9 is_stmt 1 view .LVU402
 1333 01da D9E7     		b	.L74
 1334              	.L68:
 332:Core/Src/main.c ****         ModBus.master.Reg_Count.data = 0x0002;
 1335              		.loc 1 332 9 view .LVU403
 332:Core/Src/main.c ****         ModBus.master.Reg_Count.data = 0x0002;
 1336              		.loc 1 332 37 is_stmt 0 view .LVU404
 1337 01dc 354B     		ldr	r3, .L81+104
 1338 01de 0722     		movs	r2, #7
 1339 01e0 A3F85420 		strh	r2, [r3, #84]	@ movhi
 333:Core/Src/main.c ****         break;
 1340              		.loc 1 333 9 is_stmt 1 view .LVU405
 333:Core/Src/main.c ****         break;
 1341              		.loc 1 333 38 is_stmt 0 view .LVU406
 1342 01e4 0222     		movs	r2, #2
 1343 01e6 A3F85620 		strh	r2, [r3, #86]	@ movhi
 334:Core/Src/main.c **** 
 1344              		.loc 1 334 9 is_stmt 1 view .LVU407
 1345 01ea D1E7     		b	.L74
 1346              	.L67:
 337:Core/Src/main.c ****         break;
 1347              		.loc 1 337 9 view .LVU408
 337:Core/Src/main.c ****         break;
 1348              		.loc 1 337 26 is_stmt 0 view .LVU409
 1349 01ec 394B     		ldr	r3, .L81+136
 1350 01ee 0022     		movs	r2, #0
 1351 01f0 1A70     		strb	r2, [r3]
 338:Core/Src/main.c ****       }
 1352              		.loc 1 338 9 is_stmt 1 view .LVU410
 1353 01f2 CDE7     		b	.L74
 1354              	.L80:
 350:Core/Src/main.c ****        NOS_WS2812B_Matrix_PrintRealTime(&matrixB,realtime);
 1355              		.loc 1 350 8 view .LVU411
 1356 01f4 1D4E     		ldr	r6, .L81+32
 1357 01f6 384B     		ldr	r3, .L81+140
 1358 01f8 0193     		str	r3, [sp, #4]
 1359 01fa 1E4B     		ldr	r3, .L81+40
 1360 01fc 0093     		str	r3, [sp]
 1361 01fe 184B     		ldr	r3, .L81+20
 1362 0200 364A     		ldr	r2, .L81+144
 1363 0202 1278     		ldrb	r2, [r2]	@ zero_extendqisi2
 1364 0204 2749     		ldr	r1, .L81+88
 1365 0206 3046     		mov	r0, r6
 1366 0208 FFF7FEFF 		bl	NOS_WS2812B_Matrix_PrintDetectorValue
 1367              	.LVL51:
 351:Core/Src/main.c ****        NOS_WS2812B_Matrix_PrintTemperature(&matrixC,temperature);
 1368              		.loc 1 351 8 view .LVU412
 1369 020c 244B     		ldr	r3, .L81+84
 1370 020e 1C4D     		ldr	r5, .L81+52
 1371 0210 93E80600 		ldm	r3, {r1, r2}
 1372 0214 2846     		mov	r0, r5
 1373 0216 FFF7FEFF 		bl	NOS_WS2812B_Matrix_PrintRealTime
 1374              	.LVL52:
 352:Core/Src/main.c ****       //NOS_WS2812B_Matrix_FillColor(&matrixC,&white);
 1375              		.loc 1 352 8 view .LVU413
ARM GAS  C:\Users\user\AppData\Local\Temp\ccreuSL2.s 			page 45


 1376 021a 1E4C     		ldr	r4, .L81+72
 1377 021c 304B     		ldr	r3, .L81+148
 1378 021e B3F90010 		ldrsh	r1, [r3]
 1379 0222 2046     		mov	r0, r4
 1380 0224 FFF7FEFF 		bl	NOS_WS2812B_Matrix_PrintTemperature
 1381              	.LVL53:
 355:Core/Src/main.c ****        NOS_WS2812B_Matrix_Update(&matrixB,0);
 1382              		.loc 1 355 8 view .LVU414
 1383 0228 0021     		movs	r1, #0
 1384 022a 3046     		mov	r0, r6
 1385 022c FFF7FEFF 		bl	NOS_WS2812B_Matrix_Update
 1386              	.LVL54:
 356:Core/Src/main.c ****        NOS_WS2812B_Matrix_Update(&matrixC,0);
 1387              		.loc 1 356 8 view .LVU415
 1388 0230 0021     		movs	r1, #0
 1389 0232 2846     		mov	r0, r5
 1390 0234 FFF7FEFF 		bl	NOS_WS2812B_Matrix_Update
 1391              	.LVL55:
 357:Core/Src/main.c **** 
 1392              		.loc 1 357 8 view .LVU416
 1393 0238 0021     		movs	r1, #0
 1394 023a 2046     		mov	r0, r4
 1395 023c FFF7FEFF 		bl	NOS_WS2812B_Matrix_Update
 1396              	.LVL56:
 359:Core/Src/main.c ****        Time = 0;
 1397              		.loc 1 359 8 view .LVU417
 1398 0240 FFF7FEFF 		bl	visHandle
 1399              	.LVL57:
 360:Core/Src/main.c ****     }
 1400              		.loc 1 360 8 view .LVU418
 360:Core/Src/main.c ****     }
 1401              		.loc 1 360 13 is_stmt 0 view .LVU419
 1402 0244 1F4B     		ldr	r3, .L81+120
 1403 0246 0022     		movs	r2, #0
 1404 0248 1A60     		str	r2, [r3]
 1405 024a 3FE7     		b	.L75
 1406              	.L82:
 1407              		.align	2
 1408              	.L81:
 1409 024c 00000000 		.word	.LC0
 1410 0250 00000000 		.word	.LANCHOR6
 1411 0254 00000000 		.word	.LANCHOR8
 1412 0258 00000000 		.word	.LANCHOR17
 1413 025c 00000000 		.word	.LANCHOR18
 1414 0260 00000000 		.word	.LANCHOR14
 1415 0264 00000000 		.word	.LANCHOR15
 1416 0268 00000000 		.word	frameBuffer1
 1417 026c 00000000 		.word	.LANCHOR16
 1418 0270 00000000 		.word	.LANCHOR22
 1419 0274 00000000 		.word	.LANCHOR19
 1420 0278 00000000 		.word	.LANCHOR20
 1421 027c 00000000 		.word	frameBuffer2
 1422 0280 00000000 		.word	.LANCHOR21
 1423 0284 00000000 		.word	.LANCHOR26
 1424 0288 00000000 		.word	.LANCHOR23
 1425 028c 00000000 		.word	.LANCHOR24
 1426 0290 00000000 		.word	frameBuffer3
ARM GAS  C:\Users\user\AppData\Local\Temp\ccreuSL2.s 			page 46


 1427 0294 00000000 		.word	.LANCHOR25
 1428 0298 00000000 		.word	.LANCHOR27
 1429 029c AE47A13F 		.word	1067534254
 1430 02a0 00000000 		.word	.LANCHOR12
 1431 02a4 00000000 		.word	.LANCHOR28
 1432 02a8 9A99193E 		.word	1041865114
 1433 02ac 0000A03F 		.word	1067450368
 1434 02b0 00000000 		.word	.LANCHOR2
 1435 02b4 00000000 		.word	.LANCHOR29
 1436 02b8 00000000 		.word	.LANCHOR9
 1437 02bc 00000000 		.word	.LANCHOR7
 1438 02c0 00000000 		.word	.LANCHOR10
 1439 02c4 00000000 		.word	.LANCHOR11
 1440 02c8 00000000 		.word	.LANCHOR31
 1441 02cc 50000000 		.word	.LANCHOR29+80
 1442 02d0 00000240 		.word	1073872896
 1443 02d4 00000000 		.word	.LANCHOR30
 1444 02d8 00000000 		.word	.LANCHOR33
 1445 02dc 00000000 		.word	.LANCHOR32
 1446 02e0 00000000 		.word	.LANCHOR34
 1447              		.cfi_endproc
 1448              	.LFE132:
 1450              		.global	timelastReceiveMessage
 1451              		.global	currMessageLenght
 1452              		.global	TxCommandCounter
 1453              		.global	expectedMessageLenght
 1454              		.global	currCommand
 1455              		.global	TIaddr
 1456              		.global	AddressOK
 1457              		.global	tx_flag
 1458              		.global	rx_flag
 1459              		.global	messageLenght
 1460              		.global	mbState
 1461              		.global	detector
 1462              		.global	tx_buff
 1463              		.global	rx_buff
 1464              		.global	PA1
 1465              		.global	ModBus
 1466              		.global	sTime
 1467              		.global	language
 1468              		.global	UpdateFrameTime
 1469              		.global	temperature
 1470              		.global	second_danger
 1471              		.global	first_danger
 1472              		.global	uSv_Value
 1473              		.global	num
 1474              		.global	coun
 1475              		.global	y
 1476              		.global	x
 1477              		.global	matrixCsymc
 1478              		.global	matrixBsymc
 1479              		.global	matrixAsymc
 1480              		.global	fone
 1481              		.global	blue
 1482              		.global	white
 1483              		.global	yellow
 1484              		.global	green
ARM GAS  C:\Users\user\AppData\Local\Temp\ccreuSL2.s 			page 47


 1485              		.global	red
 1486              		.global	matrixC
 1487              		.global	matrixB
 1488              		.global	matrixA
 1489              		.global	realtime
 1490              		.global	msC
 1491              		.global	msB
 1492              		.global	msA
 1493              		.global	huart2
 1494              		.global	huart1
 1495              		.global	htim6
 1496              		.global	hrtc
 1497              		.global	Time
 1498              		.section	.bss.AddressOK,"aw",%nobits
 1499              		.set	.LANCHOR3,. + 0
 1502              	AddressOK:
 1503 0000 00       		.space	1
 1504              		.section	.bss.ModBus,"aw",%nobits
 1505              		.align	2
 1506              		.set	.LANCHOR29,. + 0
 1509              	ModBus:
 1510 0000 00000000 		.space	136
 1510      00000000 
 1510      00000000 
 1510      00000000 
 1510      00000000 
 1511              		.section	.bss.PA1,"aw",%nobits
 1512              		.align	2
 1515              	PA1:
 1516 0000 00000000 		.space	8
 1516      00000000 
 1517              		.section	.bss.Time,"aw",%nobits
 1518              		.align	2
 1519              		.set	.LANCHOR11,. + 0
 1522              	Time:
 1523 0000 00000000 		.space	4
 1524              		.section	.bss.TxCommandCounter,"aw",%nobits
 1525              		.set	.LANCHOR30,. + 0
 1528              	TxCommandCounter:
 1529 0000 00       		.space	1
 1530              		.section	.bss.coun,"aw",%nobits
 1531              		.align	2
 1534              	coun:
 1535 0000 00000000 		.space	4
 1536              		.section	.bss.currCommand,"aw",%nobits
 1539              	currCommand:
 1540 0000 00       		.space	1
 1541              		.section	.bss.currMessageLenght,"aw",%nobits
 1542              		.set	.LANCHOR4,. + 0
 1545              	currMessageLenght:
 1546 0000 00       		.space	1
 1547              		.section	.bss.detector,"aw",%nobits
 1548              		.align	2
 1549              		.set	.LANCHOR28,. + 0
 1552              	detector:
 1553 0000 00000000 		.space	20
 1553      00000000 
ARM GAS  C:\Users\user\AppData\Local\Temp\ccreuSL2.s 			page 48


 1553      00000000 
 1553      00000000 
 1553      00000000 
 1554              		.section	.bss.expectedMessageLenght,"aw",%nobits
 1555              		.set	.LANCHOR5,. + 0
 1558              	expectedMessageLenght:
 1559 0000 00       		.space	1
 1560              		.section	.bss.fone,"aw",%nobits
 1561              		.align	2
 1562              		.set	.LANCHOR18,. + 0
 1565              	fone:
 1566 0000 000000   		.space	3
 1567              		.section	.bss.fuckBuff,"aw",%nobits
 1568              		.align	2
 1569              		.set	.LANCHOR2,. + 0
 1572              	fuckBuff:
 1573 0000 00000000 		.space	1024
 1573      00000000 
 1573      00000000 
 1573      00000000 
 1573      00000000 
 1574              		.section	.bss.fuckIndex,"aw",%nobits
 1575              		.align	1
 1576              		.set	.LANCHOR1,. + 0
 1579              	fuckIndex:
 1580 0000 0000     		.space	2
 1581              		.section	.bss.hrtc,"aw",%nobits
 1582              		.align	2
 1585              	hrtc:
 1586 0000 00000000 		.space	32
 1586      00000000 
 1586      00000000 
 1586      00000000 
 1586      00000000 
 1587              		.section	.bss.htim6,"aw",%nobits
 1588              		.align	2
 1589              		.set	.LANCHOR13,. + 0
 1592              	htim6:
 1593 0000 00000000 		.space	72
 1593      00000000 
 1593      00000000 
 1593      00000000 
 1593      00000000 
 1594              		.section	.bss.huart1,"aw",%nobits
 1595              		.align	2
 1598              	huart1:
 1599 0000 00000000 		.space	68
 1599      00000000 
 1599      00000000 
 1599      00000000 
 1599      00000000 
 1600              		.section	.bss.huart2,"aw",%nobits
 1601              		.align	2
 1602              		.set	.LANCHOR8,. + 0
 1605              	huart2:
 1606 0000 00000000 		.space	68
 1606      00000000 
ARM GAS  C:\Users\user\AppData\Local\Temp\ccreuSL2.s 			page 49


 1606      00000000 
 1606      00000000 
 1606      00000000 
 1607              		.section	.bss.language,"aw",%nobits
 1608              		.set	.LANCHOR32,. + 0
 1611              	language:
 1612 0000 00       		.space	1
 1613              		.section	.bss.matrixA,"aw",%nobits
 1614              		.align	2
 1615              		.set	.LANCHOR16,. + 0
 1618              	matrixA:
 1619 0000 00000000 		.space	24
 1619      00000000 
 1619      00000000 
 1619      00000000 
 1619      00000000 
 1620              		.section	.bss.matrixAsymc,"aw",%nobits
 1621              		.align	2
 1622              		.set	.LANCHOR17,. + 0
 1625              	matrixAsymc:
 1626 0000 00000000 		.space	75
 1626      00000000 
 1626      00000000 
 1626      00000000 
 1626      00000000 
 1627              		.section	.bss.matrixB,"aw",%nobits
 1628              		.align	2
 1629              		.set	.LANCHOR21,. + 0
 1632              	matrixB:
 1633 0000 00000000 		.space	24
 1633      00000000 
 1633      00000000 
 1633      00000000 
 1633      00000000 
 1634              		.section	.bss.matrixBsymc,"aw",%nobits
 1635              		.align	2
 1636              		.set	.LANCHOR22,. + 0
 1639              	matrixBsymc:
 1640 0000 00000000 		.space	50
 1640      00000000 
 1640      00000000 
 1640      00000000 
 1640      00000000 
 1641              		.section	.bss.matrixC,"aw",%nobits
 1642              		.align	2
 1643              		.set	.LANCHOR25,. + 0
 1646              	matrixC:
 1647 0000 00000000 		.space	24
 1647      00000000 
 1647      00000000 
 1647      00000000 
 1647      00000000 
 1648              		.section	.bss.matrixCsymc,"aw",%nobits
 1649              		.align	2
 1650              		.set	.LANCHOR26,. + 0
 1653              	matrixCsymc:
 1654 0000 00000000 		.space	25
ARM GAS  C:\Users\user\AppData\Local\Temp\ccreuSL2.s 			page 50


 1654      00000000 
 1654      00000000 
 1654      00000000 
 1654      00000000 
 1655              		.section	.bss.mbState,"aw",%nobits
 1658              	mbState:
 1659 0000 00       		.space	1
 1660              		.section	.bss.messageLenght,"aw",%nobits
 1663              	messageLenght:
 1664 0000 00       		.space	1
 1665              		.section	.bss.num,"aw",%nobits
 1666              		.align	2
 1669              	num:
 1670 0000 00000000 		.space	4
 1671              		.section	.bss.realtime,"aw",%nobits
 1672              		.align	2
 1673              		.set	.LANCHOR12,. + 0
 1676              	realtime:
 1677 0000 00000000 		.space	6
 1677      0000
 1678              		.section	.bss.rx_buff,"aw",%nobits
 1679              		.align	2
 1680              		.set	.LANCHOR6,. + 0
 1683              	rx_buff:
 1684 0000 00000000 		.space	16
 1684      00000000 
 1684      00000000 
 1684      00000000 
 1685              		.section	.bss.rx_flag,"aw",%nobits
 1686              		.set	.LANCHOR7,. + 0
 1689              	rx_flag:
 1690 0000 00       		.space	1
 1691              		.section	.bss.sTime,"aw",%nobits
 1692              		.align	2
 1695              	sTime:
 1696 0000 00000000 		.space	20
 1696      00000000 
 1696      00000000 
 1696      00000000 
 1696      00000000 
 1697              		.section	.bss.timelastReceiveMessage,"aw",%nobits
 1698              		.align	1
 1699              		.set	.LANCHOR9,. + 0
 1702              	timelastReceiveMessage:
 1703 0000 0000     		.space	2
 1704              		.section	.bss.tx_buff,"aw",%nobits
 1705              		.align	2
 1708              	tx_buff:
 1709 0000 00000000 		.space	16
 1709      00000000 
 1709      00000000 
 1709      00000000 
 1710              		.section	.bss.tx_flag,"aw",%nobits
 1711              		.set	.LANCHOR10,. + 0
 1714              	tx_flag:
 1715 0000 00       		.space	1
 1716              		.section	.data.TIaddr,"aw"
ARM GAS  C:\Users\user\AppData\Local\Temp\ccreuSL2.s 			page 51


 1719              	TIaddr:
 1720 0000 66       		.byte	102
 1721              		.section	.data.UpdateFrameTime,"aw"
 1722              		.align	2
 1723              		.set	.LANCHOR31,. + 0
 1726              	UpdateFrameTime:
 1727 0000 0A000000 		.word	10
 1728              		.section	.data.blue,"aw"
 1729              		.align	2
 1730              		.set	.LANCHOR23,. + 0
 1733              	blue:
 1734 0000 00       		.byte	0
 1735 0001 00       		.byte	0
 1736 0002 FF       		.byte	-1
 1737              		.section	.data.first_danger,"aw"
 1738              		.align	2
 1741              	first_danger:
 1742 0000 0000803E 		.word	1048576000
 1743              		.section	.data.green,"aw"
 1744              		.align	2
 1745              		.set	.LANCHOR33,. + 0
 1748              	green:
 1749 0000 00       		.byte	0
 1750 0001 FF       		.byte	-1
 1751 0002 00       		.byte	0
 1752              		.section	.data.msA,"aw"
 1753              		.align	2
 1754              		.set	.LANCHOR15,. + 0
 1757              	msA:
 1758 0000 60       		.byte	96
 1759 0001 08       		.byte	8
 1760              		.section	.data.msB,"aw"
 1761              		.align	2
 1762              		.set	.LANCHOR20,. + 0
 1765              	msB:
 1766 0000 40       		.byte	64
 1767 0001 08       		.byte	8
 1768              		.section	.data.msC,"aw"
 1769              		.align	2
 1770              		.set	.LANCHOR24,. + 0
 1773              	msC:
 1774 0000 20       		.byte	32
 1775 0001 08       		.byte	8
 1776              		.section	.data.red,"aw"
 1777              		.align	2
 1778              		.set	.LANCHOR14,. + 0
 1781              	red:
 1782 0000 FF       		.byte	-1
 1783 0001 00       		.byte	0
 1784 0002 00       		.byte	0
 1785              		.section	.data.rx_buff_ptr.0,"aw"
 1786              		.align	2
 1787              		.set	.LANCHOR0,. + 0
 1790              	rx_buff_ptr.0:
 1791 0000 00000000 		.word	rx_buff
 1792              		.section	.data.second_danger,"aw"
 1793              		.align	2
ARM GAS  C:\Users\user\AppData\Local\Temp\ccreuSL2.s 			page 52


 1796              	second_danger:
 1797 0000 0000A03F 		.word	1067450368
 1798              		.section	.data.temperature,"aw"
 1799              		.align	1
 1800              		.set	.LANCHOR34,. + 0
 1803              	temperature:
 1804 0000 1900     		.short	25
 1805              		.section	.data.uSv_Value,"aw"
 1806              		.align	2
 1807              		.set	.LANCHOR27,. + 0
 1810              	uSv_Value:
 1811 0000 AE47E13D 		.word	1038174126
 1812              		.section	.data.white,"aw"
 1813              		.align	2
 1816              	white:
 1817 0000 FF       		.byte	-1
 1818 0001 FF       		.byte	-1
 1819 0002 FF       		.byte	-1
 1820              		.section	.data.x,"aw"
 1823              	x:
 1824 0000 01       		.byte	1
 1825              		.section	.data.y,"aw"
 1826              		.align	1
 1829              	y:
 1830 0000 0100     		.short	1
 1831              		.section	.data.yellow,"aw"
 1832              		.align	2
 1833              		.set	.LANCHOR19,. + 0
 1836              	yellow:
 1837 0000 FF       		.byte	-1
 1838 0001 FF       		.byte	-1
 1839 0002 00       		.byte	0
 1840              		.text
 1841              	.Letext0:
 1842              		.file 3 "c:\\users\\user\\appdata\\roaming\\code\\user\\globalstorage\\bmd.stm32-for-vscode\\@xpac
 1843              		.file 4 "c:\\users\\user\\appdata\\roaming\\code\\user\\globalstorage\\bmd.stm32-for-vscode\\@xpac
 1844              		.file 5 "Drivers/CMSIS/Device/ST/STM32F4xx/Include/stm32f407xx.h"
 1845              		.file 6 "Drivers/STM32F4xx_HAL_Driver/Inc/stm32f4xx_hal_def.h"
 1846              		.file 7 "Drivers/STM32F4xx_HAL_Driver/Inc/stm32f4xx_hal_rcc_ex.h"
 1847              		.file 8 "Drivers/STM32F4xx_HAL_Driver/Inc/stm32f4xx_hal_rcc.h"
 1848              		.file 9 "Drivers/STM32F4xx_HAL_Driver/Inc/stm32f4xx_hal_gpio.h"
 1849              		.file 10 "Drivers/STM32F4xx_HAL_Driver/Inc/stm32f4xx_hal_dma.h"
 1850              		.file 11 "Drivers/STM32F4xx_HAL_Driver/Inc/stm32f4xx_hal_rtc.h"
 1851              		.file 12 "Drivers/STM32F4xx_HAL_Driver/Inc/stm32f4xx_hal_tim.h"
 1852              		.file 13 "Drivers/STM32F4xx_HAL_Driver/Inc/stm32f4xx_hal_uart.h"
 1853              		.file 14 "Core/Inc/../Src/NOS_LIB_Driver/Inc/NOS_Typedefs.h"
 1854              		.file 15 "Drivers/STM32F4xx_HAL_Driver/Inc/stm32f4xx_hal_tim_ex.h"
 1855              		.file 16 "Drivers/STM32F4xx_HAL_Driver/Inc/stm32f4xx_hal.h"
 1856              		.file 17 "Core/Inc/../Src/NOS_LIB_Driver/Inc/NOS_Time.h"
 1857              		.file 18 "c:\\users\\user\\appdata\\roaming\\code\\user\\globalstorage\\bmd.stm32-for-vscode\\@xpa
 1858              		.file 19 "Core/Inc/../Src/NOS_LIB_Driver/Inc/WS2812B_Effects.h"
 1859              		.file 20 "Core/Inc/../Src/NOS_LIB_Driver/Inc/WS2812B.h"
 1860              		.file 21 "Core/Inc/../Src/NOS_LIB_Driver/Inc/NOS_ModBus.h"
 1861              		.file 22 "<built-in>"
ARM GAS  C:\Users\user\AppData\Local\Temp\ccreuSL2.s 			page 53


DEFINED SYMBOLS
                            *ABS*:0000000000000000 main.c
C:\Users\user\AppData\Local\Temp\ccreuSL2.s:18     .text.MX_GPIO_Init:0000000000000000 $t
C:\Users\user\AppData\Local\Temp\ccreuSL2.s:25     .text.MX_GPIO_Init:0000000000000000 MX_GPIO_Init
C:\Users\user\AppData\Local\Temp\ccreuSL2.s:186    .text.MX_GPIO_Init:00000000000000bc $d
C:\Users\user\AppData\Local\Temp\ccreuSL2.s:194    .text.HAL_UART_RxCpltCallback:0000000000000000 $t
C:\Users\user\AppData\Local\Temp\ccreuSL2.s:201    .text.HAL_UART_RxCpltCallback:0000000000000000 HAL_UART_RxCpltCallback
C:\Users\user\AppData\Local\Temp\ccreuSL2.s:419    .text.HAL_UART_RxCpltCallback:00000000000000dc $d
C:\Users\user\AppData\Local\Temp\ccreuSL2.s:432    .text.NOS_ModBus_SendMasterCommand:0000000000000000 $t
C:\Users\user\AppData\Local\Temp\ccreuSL2.s:439    .text.NOS_ModBus_SendMasterCommand:0000000000000000 NOS_ModBus_SendMasterCommand
C:\Users\user\AppData\Local\Temp\ccreuSL2.s:517    .text.NOS_ModBus_SendMasterCommand:000000000000005c $d
C:\Users\user\AppData\Local\Temp\ccreuSL2.s:522    .text.SysTick_Handler:0000000000000000 $t
C:\Users\user\AppData\Local\Temp\ccreuSL2.s:529    .text.SysTick_Handler:0000000000000000 SysTick_Handler
C:\Users\user\AppData\Local\Temp\ccreuSL2.s:581    .text.SysTick_Handler:0000000000000034 $d
C:\Users\user\AppData\Local\Temp\ccreuSL2.s:589    .text.Error_Handler:0000000000000000 $t
C:\Users\user\AppData\Local\Temp\ccreuSL2.s:596    .text.Error_Handler:0000000000000000 Error_Handler
C:\Users\user\AppData\Local\Temp\ccreuSL2.s:628    .text.MX_USART2_UART_Init:0000000000000000 $t
C:\Users\user\AppData\Local\Temp\ccreuSL2.s:634    .text.MX_USART2_UART_Init:0000000000000000 MX_USART2_UART_Init
C:\Users\user\AppData\Local\Temp\ccreuSL2.s:689    .text.MX_USART2_UART_Init:000000000000002c $d
C:\Users\user\AppData\Local\Temp\ccreuSL2.s:695    .text.MX_TIM6_Init:0000000000000000 $t
C:\Users\user\AppData\Local\Temp\ccreuSL2.s:701    .text.MX_TIM6_Init:0000000000000000 MX_TIM6_Init
C:\Users\user\AppData\Local\Temp\ccreuSL2.s:778    .text.MX_TIM6_Init:0000000000000040 $d
C:\Users\user\AppData\Local\Temp\ccreuSL2.s:784    .text.SystemClock_Config:0000000000000000 $t
C:\Users\user\AppData\Local\Temp\ccreuSL2.s:791    .text.SystemClock_Config:0000000000000000 SystemClock_Config
C:\Users\user\AppData\Local\Temp\ccreuSL2.s:945    .text.SystemClock_Config:00000000000000a0 $d
C:\Users\user\AppData\Local\Temp\ccreuSL2.s:951    .rodata.main.str1.4:0000000000000000 $d
C:\Users\user\AppData\Local\Temp\ccreuSL2.s:955    .text.main:0000000000000000 $t
C:\Users\user\AppData\Local\Temp\ccreuSL2.s:962    .text.main:0000000000000000 main
C:\Users\user\AppData\Local\Temp\ccreuSL2.s:1178   .text.main:0000000000000108 $d
C:\Users\user\AppData\Local\Temp\ccreuSL2.s:1185   .text.main:0000000000000124 $t
C:\Users\user\AppData\Local\Temp\ccreuSL2.s:1261   .text.main:000000000000017e $d
C:\Users\user\AppData\Local\Temp\ccreuSL2.s:1409   .text.main:000000000000024c $d
C:\Users\user\AppData\Local\Temp\ccreuSL2.s:1702   .bss.timelastReceiveMessage:0000000000000000 timelastReceiveMessage
C:\Users\user\AppData\Local\Temp\ccreuSL2.s:1545   .bss.currMessageLenght:0000000000000000 currMessageLenght
C:\Users\user\AppData\Local\Temp\ccreuSL2.s:1528   .bss.TxCommandCounter:0000000000000000 TxCommandCounter
C:\Users\user\AppData\Local\Temp\ccreuSL2.s:1558   .bss.expectedMessageLenght:0000000000000000 expectedMessageLenght
C:\Users\user\AppData\Local\Temp\ccreuSL2.s:1539   .bss.currCommand:0000000000000000 currCommand
C:\Users\user\AppData\Local\Temp\ccreuSL2.s:1719   .data.TIaddr:0000000000000000 TIaddr
C:\Users\user\AppData\Local\Temp\ccreuSL2.s:1502   .bss.AddressOK:0000000000000000 AddressOK
C:\Users\user\AppData\Local\Temp\ccreuSL2.s:1714   .bss.tx_flag:0000000000000000 tx_flag
C:\Users\user\AppData\Local\Temp\ccreuSL2.s:1689   .bss.rx_flag:0000000000000000 rx_flag
C:\Users\user\AppData\Local\Temp\ccreuSL2.s:1663   .bss.messageLenght:0000000000000000 messageLenght
C:\Users\user\AppData\Local\Temp\ccreuSL2.s:1658   .bss.mbState:0000000000000000 mbState
C:\Users\user\AppData\Local\Temp\ccreuSL2.s:1552   .bss.detector:0000000000000000 detector
C:\Users\user\AppData\Local\Temp\ccreuSL2.s:1708   .bss.tx_buff:0000000000000000 tx_buff
C:\Users\user\AppData\Local\Temp\ccreuSL2.s:1683   .bss.rx_buff:0000000000000000 rx_buff
C:\Users\user\AppData\Local\Temp\ccreuSL2.s:1515   .bss.PA1:0000000000000000 PA1
C:\Users\user\AppData\Local\Temp\ccreuSL2.s:1509   .bss.ModBus:0000000000000000 ModBus
C:\Users\user\AppData\Local\Temp\ccreuSL2.s:1695   .bss.sTime:0000000000000000 sTime
C:\Users\user\AppData\Local\Temp\ccreuSL2.s:1611   .bss.language:0000000000000000 language
C:\Users\user\AppData\Local\Temp\ccreuSL2.s:1726   .data.UpdateFrameTime:0000000000000000 UpdateFrameTime
C:\Users\user\AppData\Local\Temp\ccreuSL2.s:1803   .data.temperature:0000000000000000 temperature
C:\Users\user\AppData\Local\Temp\ccreuSL2.s:1796   .data.second_danger:0000000000000000 second_danger
C:\Users\user\AppData\Local\Temp\ccreuSL2.s:1741   .data.first_danger:0000000000000000 first_danger
C:\Users\user\AppData\Local\Temp\ccreuSL2.s:1810   .data.uSv_Value:0000000000000000 uSv_Value
C:\Users\user\AppData\Local\Temp\ccreuSL2.s:1669   .bss.num:0000000000000000 num
C:\Users\user\AppData\Local\Temp\ccreuSL2.s:1534   .bss.coun:0000000000000000 coun
ARM GAS  C:\Users\user\AppData\Local\Temp\ccreuSL2.s 			page 54


C:\Users\user\AppData\Local\Temp\ccreuSL2.s:1829   .data.y:0000000000000000 y
C:\Users\user\AppData\Local\Temp\ccreuSL2.s:1823   .data.x:0000000000000000 x
C:\Users\user\AppData\Local\Temp\ccreuSL2.s:1653   .bss.matrixCsymc:0000000000000000 matrixCsymc
C:\Users\user\AppData\Local\Temp\ccreuSL2.s:1639   .bss.matrixBsymc:0000000000000000 matrixBsymc
C:\Users\user\AppData\Local\Temp\ccreuSL2.s:1625   .bss.matrixAsymc:0000000000000000 matrixAsymc
C:\Users\user\AppData\Local\Temp\ccreuSL2.s:1565   .bss.fone:0000000000000000 fone
C:\Users\user\AppData\Local\Temp\ccreuSL2.s:1733   .data.blue:0000000000000000 blue
C:\Users\user\AppData\Local\Temp\ccreuSL2.s:1816   .data.white:0000000000000000 white
C:\Users\user\AppData\Local\Temp\ccreuSL2.s:1836   .data.yellow:0000000000000000 yellow
C:\Users\user\AppData\Local\Temp\ccreuSL2.s:1748   .data.green:0000000000000000 green
C:\Users\user\AppData\Local\Temp\ccreuSL2.s:1781   .data.red:0000000000000000 red
C:\Users\user\AppData\Local\Temp\ccreuSL2.s:1646   .bss.matrixC:0000000000000000 matrixC
C:\Users\user\AppData\Local\Temp\ccreuSL2.s:1632   .bss.matrixB:0000000000000000 matrixB
C:\Users\user\AppData\Local\Temp\ccreuSL2.s:1618   .bss.matrixA:0000000000000000 matrixA
C:\Users\user\AppData\Local\Temp\ccreuSL2.s:1676   .bss.realtime:0000000000000000 realtime
C:\Users\user\AppData\Local\Temp\ccreuSL2.s:1773   .data.msC:0000000000000000 msC
C:\Users\user\AppData\Local\Temp\ccreuSL2.s:1765   .data.msB:0000000000000000 msB
C:\Users\user\AppData\Local\Temp\ccreuSL2.s:1757   .data.msA:0000000000000000 msA
C:\Users\user\AppData\Local\Temp\ccreuSL2.s:1605   .bss.huart2:0000000000000000 huart2
C:\Users\user\AppData\Local\Temp\ccreuSL2.s:1598   .bss.huart1:0000000000000000 huart1
C:\Users\user\AppData\Local\Temp\ccreuSL2.s:1592   .bss.htim6:0000000000000000 htim6
C:\Users\user\AppData\Local\Temp\ccreuSL2.s:1585   .bss.hrtc:0000000000000000 hrtc
C:\Users\user\AppData\Local\Temp\ccreuSL2.s:1522   .bss.Time:0000000000000000 Time
C:\Users\user\AppData\Local\Temp\ccreuSL2.s:1503   .bss.AddressOK:0000000000000000 $d
C:\Users\user\AppData\Local\Temp\ccreuSL2.s:1505   .bss.ModBus:0000000000000000 $d
C:\Users\user\AppData\Local\Temp\ccreuSL2.s:1512   .bss.PA1:0000000000000000 $d
C:\Users\user\AppData\Local\Temp\ccreuSL2.s:1518   .bss.Time:0000000000000000 $d
C:\Users\user\AppData\Local\Temp\ccreuSL2.s:1529   .bss.TxCommandCounter:0000000000000000 $d
C:\Users\user\AppData\Local\Temp\ccreuSL2.s:1531   .bss.coun:0000000000000000 $d
C:\Users\user\AppData\Local\Temp\ccreuSL2.s:1540   .bss.currCommand:0000000000000000 $d
C:\Users\user\AppData\Local\Temp\ccreuSL2.s:1546   .bss.currMessageLenght:0000000000000000 $d
C:\Users\user\AppData\Local\Temp\ccreuSL2.s:1548   .bss.detector:0000000000000000 $d
C:\Users\user\AppData\Local\Temp\ccreuSL2.s:1559   .bss.expectedMessageLenght:0000000000000000 $d
C:\Users\user\AppData\Local\Temp\ccreuSL2.s:1561   .bss.fone:0000000000000000 $d
C:\Users\user\AppData\Local\Temp\ccreuSL2.s:1568   .bss.fuckBuff:0000000000000000 $d
C:\Users\user\AppData\Local\Temp\ccreuSL2.s:1572   .bss.fuckBuff:0000000000000000 fuckBuff
C:\Users\user\AppData\Local\Temp\ccreuSL2.s:1575   .bss.fuckIndex:0000000000000000 $d
C:\Users\user\AppData\Local\Temp\ccreuSL2.s:1579   .bss.fuckIndex:0000000000000000 fuckIndex
C:\Users\user\AppData\Local\Temp\ccreuSL2.s:1582   .bss.hrtc:0000000000000000 $d
C:\Users\user\AppData\Local\Temp\ccreuSL2.s:1588   .bss.htim6:0000000000000000 $d
C:\Users\user\AppData\Local\Temp\ccreuSL2.s:1595   .bss.huart1:0000000000000000 $d
C:\Users\user\AppData\Local\Temp\ccreuSL2.s:1601   .bss.huart2:0000000000000000 $d
C:\Users\user\AppData\Local\Temp\ccreuSL2.s:1612   .bss.language:0000000000000000 $d
C:\Users\user\AppData\Local\Temp\ccreuSL2.s:1614   .bss.matrixA:0000000000000000 $d
C:\Users\user\AppData\Local\Temp\ccreuSL2.s:1621   .bss.matrixAsymc:0000000000000000 $d
C:\Users\user\AppData\Local\Temp\ccreuSL2.s:1628   .bss.matrixB:0000000000000000 $d
C:\Users\user\AppData\Local\Temp\ccreuSL2.s:1635   .bss.matrixBsymc:0000000000000000 $d
C:\Users\user\AppData\Local\Temp\ccreuSL2.s:1642   .bss.matrixC:0000000000000000 $d
C:\Users\user\AppData\Local\Temp\ccreuSL2.s:1649   .bss.matrixCsymc:0000000000000000 $d
C:\Users\user\AppData\Local\Temp\ccreuSL2.s:1659   .bss.mbState:0000000000000000 $d
C:\Users\user\AppData\Local\Temp\ccreuSL2.s:1664   .bss.messageLenght:0000000000000000 $d
C:\Users\user\AppData\Local\Temp\ccreuSL2.s:1666   .bss.num:0000000000000000 $d
C:\Users\user\AppData\Local\Temp\ccreuSL2.s:1672   .bss.realtime:0000000000000000 $d
C:\Users\user\AppData\Local\Temp\ccreuSL2.s:1679   .bss.rx_buff:0000000000000000 $d
C:\Users\user\AppData\Local\Temp\ccreuSL2.s:1690   .bss.rx_flag:0000000000000000 $d
C:\Users\user\AppData\Local\Temp\ccreuSL2.s:1692   .bss.sTime:0000000000000000 $d
C:\Users\user\AppData\Local\Temp\ccreuSL2.s:1698   .bss.timelastReceiveMessage:0000000000000000 $d
ARM GAS  C:\Users\user\AppData\Local\Temp\ccreuSL2.s 			page 55


C:\Users\user\AppData\Local\Temp\ccreuSL2.s:1705   .bss.tx_buff:0000000000000000 $d
C:\Users\user\AppData\Local\Temp\ccreuSL2.s:1715   .bss.tx_flag:0000000000000000 $d
C:\Users\user\AppData\Local\Temp\ccreuSL2.s:1722   .data.UpdateFrameTime:0000000000000000 $d
C:\Users\user\AppData\Local\Temp\ccreuSL2.s:1729   .data.blue:0000000000000000 $d
C:\Users\user\AppData\Local\Temp\ccreuSL2.s:1738   .data.first_danger:0000000000000000 $d
C:\Users\user\AppData\Local\Temp\ccreuSL2.s:1744   .data.green:0000000000000000 $d
C:\Users\user\AppData\Local\Temp\ccreuSL2.s:1753   .data.msA:0000000000000000 $d
C:\Users\user\AppData\Local\Temp\ccreuSL2.s:1761   .data.msB:0000000000000000 $d
C:\Users\user\AppData\Local\Temp\ccreuSL2.s:1769   .data.msC:0000000000000000 $d
C:\Users\user\AppData\Local\Temp\ccreuSL2.s:1777   .data.red:0000000000000000 $d
C:\Users\user\AppData\Local\Temp\ccreuSL2.s:1786   .data.rx_buff_ptr.0:0000000000000000 $d
C:\Users\user\AppData\Local\Temp\ccreuSL2.s:1790   .data.rx_buff_ptr.0:0000000000000000 rx_buff_ptr.0
C:\Users\user\AppData\Local\Temp\ccreuSL2.s:1793   .data.second_danger:0000000000000000 $d
C:\Users\user\AppData\Local\Temp\ccreuSL2.s:1799   .data.temperature:0000000000000000 $d
C:\Users\user\AppData\Local\Temp\ccreuSL2.s:1806   .data.uSv_Value:0000000000000000 $d
C:\Users\user\AppData\Local\Temp\ccreuSL2.s:1813   .data.white:0000000000000000 $d
C:\Users\user\AppData\Local\Temp\ccreuSL2.s:1826   .data.y:0000000000000000 $d
C:\Users\user\AppData\Local\Temp\ccreuSL2.s:1832   .data.yellow:0000000000000000 $d
C:\Users\user\AppData\Local\Temp\ccreuSL2.s:1266   .text.main:0000000000000183 $d
C:\Users\user\AppData\Local\Temp\ccreuSL2.s:1266   .text.main:0000000000000184 $t

UNDEFINED SYMBOLS
HAL_GPIO_WritePin
HAL_GPIO_Init
HAL_UART_Receive_IT
GetCRC16
HAL_UART_Transmit
HAL_IncTick
NOS_RealTime_Handler
HAL_UART_Init
HAL_TIM_Base_Init
HAL_TIMEx_MasterConfigSynchronization
memset
HAL_RCC_OscConfig
HAL_RCC_ClockConfig
setlocale
HAL_Init
visInit
NOS_WS2812B_Matrix_FullInit
NOS_ModBus_ParseMasterCommand
NOS_ModBus_ParseSlaveCommand
NOS_WS2812B_Matrix_PrintDetectorValue
NOS_WS2812B_Matrix_PrintRealTime
NOS_WS2812B_Matrix_PrintTemperature
NOS_WS2812B_Matrix_Update
visHandle
frameBuffer1
frameBuffer2
frameBuffer3
