ARM GAS  C:\Users\user\AppData\Local\Temp\cc7htgA1.s 			page 1


   1              		.cpu cortex-m4
   2              		.eabi_attribute 27, 1
   3              		.eabi_attribute 28, 1
   4              		.eabi_attribute 20, 1
   5              		.eabi_attribute 21, 1
   6              		.eabi_attribute 23, 3
   7              		.eabi_attribute 24, 1
   8              		.eabi_attribute 25, 1
   9              		.eabi_attribute 26, 1
  10              		.eabi_attribute 30, 1
  11              		.eabi_attribute 34, 1
  12              		.eabi_attribute 18, 4
  13              		.file	"NOS_ModBus.c"
  14              		.text
  15              	.Ltext0:
  16              		.cfi_sections	.debug_frame
  17              		.section	.text.GetCRC16,"ax",%progbits
  18              		.align	1
  19              		.global	GetCRC16
  20              		.arch armv7e-m
  21              		.syntax unified
  22              		.thumb
  23              		.thumb_func
  24              		.fpu fpv4-sp-d16
  26              	GetCRC16:
  27              	.LVL0:
  28              	.LFB130:
  29              		.file 1 "Core/Src/NOS_LIB_Driver/Src/NOS_ModBus.c"
   1:Core/Src/NOS_LIB_Driver/Src/NOS_ModBus.c **** #include "NOS_ModBus.h"
   2:Core/Src/NOS_LIB_Driver/Src/NOS_ModBus.c **** #include <stdint.h>
   3:Core/Src/NOS_LIB_Driver/Src/NOS_ModBus.c **** #include "NOS_Typedefs.h"
   4:Core/Src/NOS_LIB_Driver/Src/NOS_ModBus.c **** 
   5:Core/Src/NOS_LIB_Driver/Src/NOS_ModBus.c **** uint16_t GetCRC16 (uint8_t *nData, uint8_t wLength)
   6:Core/Src/NOS_LIB_Driver/Src/NOS_ModBus.c **** {
  30              		.loc 1 6 1 view -0
  31              		.cfi_startproc
  32              		@ args = 0, pretend = 0, frame = 0
  33              		@ frame_needed = 0, uses_anonymous_args = 0
  34              		@ link register save eliminated.
  35              		.loc 1 6 1 is_stmt 0 view .LVU1
  36 0000 0346     		mov	r3, r0
   7:Core/Src/NOS_LIB_Driver/Src/NOS_ModBus.c **** static const uint16_t wCRCTable[] = {
  37              		.loc 1 7 1 is_stmt 1 view .LVU2
   8:Core/Src/NOS_LIB_Driver/Src/NOS_ModBus.c **** 0X0000, 0XC0C1, 0XC181, 0X0140, 0XC301, 0X03C0, 0X0280, 0XC241,
   9:Core/Src/NOS_LIB_Driver/Src/NOS_ModBus.c **** 0XC601, 0X06C0, 0X0780, 0XC741, 0X0500, 0XC5C1, 0XC481, 0X0440,
  10:Core/Src/NOS_LIB_Driver/Src/NOS_ModBus.c **** 0XCC01, 0X0CC0, 0X0D80, 0XCD41, 0X0F00, 0XCFC1, 0XCE81, 0X0E40,
  11:Core/Src/NOS_LIB_Driver/Src/NOS_ModBus.c **** 0X0A00, 0XCAC1, 0XCB81, 0X0B40, 0XC901, 0X09C0, 0X0880, 0XC841,
  12:Core/Src/NOS_LIB_Driver/Src/NOS_ModBus.c **** 0XD801, 0X18C0, 0X1980, 0XD941, 0X1B00, 0XDBC1, 0XDA81, 0X1A40,
  13:Core/Src/NOS_LIB_Driver/Src/NOS_ModBus.c **** 0X1E00, 0XDEC1, 0XDF81, 0X1F40, 0XDD01, 0X1DC0, 0X1C80, 0XDC41,
  14:Core/Src/NOS_LIB_Driver/Src/NOS_ModBus.c **** 0X1400, 0XD4C1, 0XD581, 0X1540, 0XD701, 0X17C0, 0X1680, 0XD641,
  15:Core/Src/NOS_LIB_Driver/Src/NOS_ModBus.c **** 0XD201, 0X12C0, 0X1380, 0XD341, 0X1100, 0XD1C1, 0XD081, 0X1040,
  16:Core/Src/NOS_LIB_Driver/Src/NOS_ModBus.c **** 0XF001, 0X30C0, 0X3180, 0XF141, 0X3300, 0XF3C1, 0XF281, 0X3240,
  17:Core/Src/NOS_LIB_Driver/Src/NOS_ModBus.c **** 0X3600, 0XF6C1, 0XF781, 0X3740, 0XF501, 0X35C0, 0X3480, 0XF441,
  18:Core/Src/NOS_LIB_Driver/Src/NOS_ModBus.c **** 0X3C00, 0XFCC1, 0XFD81, 0X3D40, 0XFF01, 0X3FC0, 0X3E80, 0XFE41,
  19:Core/Src/NOS_LIB_Driver/Src/NOS_ModBus.c **** 0XFA01, 0X3AC0, 0X3B80, 0XFB41, 0X3900, 0XF9C1, 0XF881, 0X3840,
  20:Core/Src/NOS_LIB_Driver/Src/NOS_ModBus.c **** 0X2800, 0XE8C1, 0XE981, 0X2940, 0XEB01, 0X2BC0, 0X2A80, 0XEA41,
  21:Core/Src/NOS_LIB_Driver/Src/NOS_ModBus.c **** 0XEE01, 0X2EC0, 0X2F80, 0XEF41, 0X2D00, 0XEDC1, 0XEC81, 0X2C40,
ARM GAS  C:\Users\user\AppData\Local\Temp\cc7htgA1.s 			page 2


  22:Core/Src/NOS_LIB_Driver/Src/NOS_ModBus.c **** 0XE401, 0X24C0, 0X2580, 0XE541, 0X2700, 0XE7C1, 0XE681, 0X2640,
  23:Core/Src/NOS_LIB_Driver/Src/NOS_ModBus.c **** 0X2200, 0XE2C1, 0XE381, 0X2340, 0XE101, 0X21C0, 0X2080, 0XE041,
  24:Core/Src/NOS_LIB_Driver/Src/NOS_ModBus.c **** 0XA001, 0X60C0, 0X6180, 0XA141, 0X6300, 0XA3C1, 0XA281, 0X6240,
  25:Core/Src/NOS_LIB_Driver/Src/NOS_ModBus.c **** 0X6600, 0XA6C1, 0XA781, 0X6740, 0XA501, 0X65C0, 0X6480, 0XA441,
  26:Core/Src/NOS_LIB_Driver/Src/NOS_ModBus.c **** 0X6C00, 0XACC1, 0XAD81, 0X6D40, 0XAF01, 0X6FC0, 0X6E80, 0XAE41,
  27:Core/Src/NOS_LIB_Driver/Src/NOS_ModBus.c **** 0XAA01, 0X6AC0, 0X6B80, 0XAB41, 0X6900, 0XA9C1, 0XA881, 0X6840,
  28:Core/Src/NOS_LIB_Driver/Src/NOS_ModBus.c **** 0X7800, 0XB8C1, 0XB981, 0X7940, 0XBB01, 0X7BC0, 0X7A80, 0XBA41,
  29:Core/Src/NOS_LIB_Driver/Src/NOS_ModBus.c **** 0XBE01, 0X7EC0, 0X7F80, 0XBF41, 0X7D00, 0XBDC1, 0XBC81, 0X7C40,
  30:Core/Src/NOS_LIB_Driver/Src/NOS_ModBus.c **** 0XB401, 0X74C0, 0X7580, 0XB541, 0X7700, 0XB7C1, 0XB681, 0X7640,
  31:Core/Src/NOS_LIB_Driver/Src/NOS_ModBus.c **** 0X7200, 0XB2C1, 0XB381, 0X7340, 0XB101, 0X71C0, 0X7080, 0XB041,
  32:Core/Src/NOS_LIB_Driver/Src/NOS_ModBus.c **** 0X5000, 0X90C1, 0X9181, 0X5140, 0X9301, 0X53C0, 0X5280, 0X9241,
  33:Core/Src/NOS_LIB_Driver/Src/NOS_ModBus.c **** 0X9601, 0X56C0, 0X5780, 0X9741, 0X5500, 0X95C1, 0X9481, 0X5440,
  34:Core/Src/NOS_LIB_Driver/Src/NOS_ModBus.c **** 0X9C01, 0X5CC0, 0X5D80, 0X9D41, 0X5F00, 0X9FC1, 0X9E81, 0X5E40,
  35:Core/Src/NOS_LIB_Driver/Src/NOS_ModBus.c **** 0X5A00, 0X9AC1, 0X9B81, 0X5B40, 0X9901, 0X59C0, 0X5880, 0X9841,
  36:Core/Src/NOS_LIB_Driver/Src/NOS_ModBus.c **** 0X8801, 0X48C0, 0X4980, 0X8941, 0X4B00, 0X8BC1, 0X8A81, 0X4A40,
  37:Core/Src/NOS_LIB_Driver/Src/NOS_ModBus.c **** 0X4E00, 0X8EC1, 0X8F81, 0X4F40, 0X8D01, 0X4DC0, 0X4C80, 0X8C41,
  38:Core/Src/NOS_LIB_Driver/Src/NOS_ModBus.c **** 0X4400, 0X84C1, 0X8581, 0X4540, 0X8701, 0X47C0, 0X4680, 0X8641,
  39:Core/Src/NOS_LIB_Driver/Src/NOS_ModBus.c **** 0X8201, 0X42C0, 0X4380, 0X8341, 0X4100, 0X81C1, 0X8081, 0X4040 };
  40:Core/Src/NOS_LIB_Driver/Src/NOS_ModBus.c **** 
  41:Core/Src/NOS_LIB_Driver/Src/NOS_ModBus.c **** uint8_t nTemp;
  38              		.loc 1 41 1 view .LVU3
  42:Core/Src/NOS_LIB_Driver/Src/NOS_ModBus.c **** uint16_t wCRCWord = 0xFFFF;
  39              		.loc 1 42 1 view .LVU4
  40              	.LVL1:
  43:Core/Src/NOS_LIB_Driver/Src/NOS_ModBus.c **** 
  44:Core/Src/NOS_LIB_Driver/Src/NOS_ModBus.c ****    while (wLength--)
  41              		.loc 1 44 4 view .LVU5
  42:Core/Src/NOS_LIB_Driver/Src/NOS_ModBus.c **** uint16_t wCRCWord = 0xFFFF;
  42              		.loc 1 42 10 is_stmt 0 view .LVU6
  43 0002 4FF6FF70 		movw	r0, #65535
  44              	.LVL2:
  45              		.loc 1 44 10 is_stmt 1 view .LVU7
  46              		.loc 1 44 18 is_stmt 0 view .LVU8
  47 0006 4A1E     		subs	r2, r1, #1
  48 0008 D2B2     		uxtb	r2, r2
  49              	.LVL3:
  50              		.loc 1 44 10 view .LVU9
  51 000a 89B1     		cbz	r1, .L8
   6:Core/Src/NOS_LIB_Driver/Src/NOS_ModBus.c **** static const uint16_t wCRCTable[] = {
  52              		.loc 1 6 1 view .LVU10
  53 000c 10B4     		push	{r4}
  54              	.LCFI0:
  55              		.cfi_def_cfa_offset 4
  56              		.cfi_offset 4, -4
  57              	.L3:
  45:Core/Src/NOS_LIB_Driver/Src/NOS_ModBus.c ****    {
  46:Core/Src/NOS_LIB_Driver/Src/NOS_ModBus.c ****       nTemp = *nData++ ^ wCRCWord;
  58              		.loc 1 46 7 is_stmt 1 view .LVU11
  59              	.LVL4:
  60              		.loc 1 46 15 is_stmt 0 view .LVU12
  61 000e 13F8011B 		ldrb	r1, [r3], #1	@ zero_extendqisi2
  62              	.LVL5:
  63              		.loc 1 46 24 view .LVU13
  64 0012 C4B2     		uxtb	r4, r0
  65              		.loc 1 46 13 view .LVU14
  66 0014 6140     		eors	r1, r1, r4
  67              	.LVL6:
ARM GAS  C:\Users\user\AppData\Local\Temp\cc7htgA1.s 			page 3


  47:Core/Src/NOS_LIB_Driver/Src/NOS_ModBus.c ****       wCRCWord >>= 8;
  68              		.loc 1 47 7 is_stmt 1 view .LVU15
  48:Core/Src/NOS_LIB_Driver/Src/NOS_ModBus.c ****       wCRCWord ^= wCRCTable[nTemp];
  69              		.loc 1 48 7 view .LVU16
  70              		.loc 1 48 28 is_stmt 0 view .LVU17
  71 0016 074C     		ldr	r4, .L9
  72 0018 34F81110 		ldrh	r1, [r4, r1, lsl #1]
  73              	.LVL7:
  74              		.loc 1 48 16 view .LVU18
  75 001c 81EA1020 		eor	r0, r1, r0, lsr #8
  76              	.LVL8:
  44:Core/Src/NOS_LIB_Driver/Src/NOS_ModBus.c ****    {
  77              		.loc 1 44 18 view .LVU19
  78 0020 1146     		mov	r1, r2
  44:Core/Src/NOS_LIB_Driver/Src/NOS_ModBus.c ****    {
  79              		.loc 1 44 10 is_stmt 1 view .LVU20
  44:Core/Src/NOS_LIB_Driver/Src/NOS_ModBus.c ****    {
  80              		.loc 1 44 18 is_stmt 0 view .LVU21
  81 0022 013A     		subs	r2, r2, #1
  82              	.LVL9:
  44:Core/Src/NOS_LIB_Driver/Src/NOS_ModBus.c ****    {
  83              		.loc 1 44 18 view .LVU22
  84 0024 D2B2     		uxtb	r2, r2
  85              	.LVL10:
  44:Core/Src/NOS_LIB_Driver/Src/NOS_ModBus.c ****    {
  86              		.loc 1 44 10 view .LVU23
  87 0026 0029     		cmp	r1, #0
  88 0028 F1D1     		bne	.L3
  49:Core/Src/NOS_LIB_Driver/Src/NOS_ModBus.c ****    }
  50:Core/Src/NOS_LIB_Driver/Src/NOS_ModBus.c ****    return wCRCWord;
  89              		.loc 1 50 4 is_stmt 1 view .LVU24
  51:Core/Src/NOS_LIB_Driver/Src/NOS_ModBus.c **** 
  52:Core/Src/NOS_LIB_Driver/Src/NOS_ModBus.c **** }
  90              		.loc 1 52 1 is_stmt 0 view .LVU25
  91 002a 5DF8044B 		ldr	r4, [sp], #4
  92              	.LCFI1:
  93              		.cfi_restore 4
  94              		.cfi_def_cfa_offset 0
  95 002e 7047     		bx	lr
  96              	.L8:
  97              		.loc 1 52 1 view .LVU26
  98 0030 7047     		bx	lr
  99              	.L10:
 100 0032 00BF     		.align	2
 101              	.L9:
 102 0034 00000000 		.word	.LANCHOR0
 103              		.cfi_endproc
 104              	.LFE130:
 106              		.section	.text.NOS_ModBus_ParseMasterCommand,"ax",%progbits
 107              		.align	1
 108              		.global	NOS_ModBus_ParseMasterCommand
 109              		.syntax unified
 110              		.thumb
 111              		.thumb_func
 112              		.fpu fpv4-sp-d16
 114              	NOS_ModBus_ParseMasterCommand:
 115              	.LVL11:
ARM GAS  C:\Users\user\AppData\Local\Temp\cc7htgA1.s 			page 4


 116              	.LFB131:
  53:Core/Src/NOS_LIB_Driver/Src/NOS_ModBus.c **** 
  54:Core/Src/NOS_LIB_Driver/Src/NOS_ModBus.c **** void NOS_ModBus_ParseMasterCommand(ModBus_Master_Command* master,uint8_t* buff,uint8_t offset)
  55:Core/Src/NOS_LIB_Driver/Src/NOS_ModBus.c **** {
 117              		.loc 1 55 1 is_stmt 1 view -0
 118              		.cfi_startproc
 119              		@ args = 0, pretend = 0, frame = 0
 120              		@ frame_needed = 0, uses_anonymous_args = 0
 121              		@ link register save eliminated.
  56:Core/Src/NOS_LIB_Driver/Src/NOS_ModBus.c ****     NOS_Short com;
 122              		.loc 1 56 5 view .LVU28
  57:Core/Src/NOS_LIB_Driver/Src/NOS_ModBus.c ****     master->Addr = buff[offset];
 123              		.loc 1 57 5 view .LVU29
 124              		.loc 1 57 24 is_stmt 0 view .LVU30
 125 0000 8B5C     		ldrb	r3, [r1, r2]	@ zero_extendqisi2
 126              		.loc 1 57 18 view .LVU31
 127 0002 0370     		strb	r3, [r0]
  58:Core/Src/NOS_LIB_Driver/Src/NOS_ModBus.c ****     master->Command = buff[offset + 1];
 128              		.loc 1 58 5 is_stmt 1 view .LVU32
 129              		.loc 1 58 27 is_stmt 0 view .LVU33
 130 0004 8B18     		adds	r3, r1, r2
 131 0006 5B78     		ldrb	r3, [r3, #1]	@ zero_extendqisi2
 132              		.loc 1 58 21 view .LVU34
 133 0008 4370     		strb	r3, [r0, #1]
  59:Core/Src/NOS_LIB_Driver/Src/NOS_ModBus.c **** 
  60:Core/Src/NOS_LIB_Driver/Src/NOS_ModBus.c ****     switch(master->Command)
 134              		.loc 1 60 5 is_stmt 1 view .LVU35
 135 000a 062B     		cmp	r3, #6
 136 000c 16D0     		beq	.L12
 137 000e 102B     		cmp	r3, #16
 138 0010 26D0     		beq	.L13
 139 0012 032B     		cmp	r3, #3
 140 0014 00D0     		beq	.L15
 141              	.LVL12:
 142              	.L11:
  61:Core/Src/NOS_LIB_Driver/Src/NOS_ModBus.c ****     {
  62:Core/Src/NOS_LIB_Driver/Src/NOS_ModBus.c ****     case 0x03:
  63:Core/Src/NOS_LIB_Driver/Src/NOS_ModBus.c ****         com.bytes[1] = buff[offset + 2];
  64:Core/Src/NOS_LIB_Driver/Src/NOS_ModBus.c ****         com.bytes[0] = buff[offset + 3];
  65:Core/Src/NOS_LIB_Driver/Src/NOS_ModBus.c ****         master->Reg_Addr.data = com.data;
  66:Core/Src/NOS_LIB_Driver/Src/NOS_ModBus.c ****         com.bytes[1] = buff[offset + 4];
  67:Core/Src/NOS_LIB_Driver/Src/NOS_ModBus.c ****         com.bytes[0] = buff[offset + 5];
  68:Core/Src/NOS_LIB_Driver/Src/NOS_ModBus.c ****         master->Reg_Count.data = com.data;
  69:Core/Src/NOS_LIB_Driver/Src/NOS_ModBus.c ****         break;
  70:Core/Src/NOS_LIB_Driver/Src/NOS_ModBus.c **** 
  71:Core/Src/NOS_LIB_Driver/Src/NOS_ModBus.c ****     case 0x06:
  72:Core/Src/NOS_LIB_Driver/Src/NOS_ModBus.c ****         com.bytes[1] = buff[offset + 2];
  73:Core/Src/NOS_LIB_Driver/Src/NOS_ModBus.c ****         com.bytes[0] = buff[offset + 3];
  74:Core/Src/NOS_LIB_Driver/Src/NOS_ModBus.c ****         master->Reg_Addr.data = com.data;
  75:Core/Src/NOS_LIB_Driver/Src/NOS_ModBus.c ****         com.bytes[1] = buff[offset + 4];
  76:Core/Src/NOS_LIB_Driver/Src/NOS_ModBus.c ****         com.bytes[0] = buff[offset + 5];
  77:Core/Src/NOS_LIB_Driver/Src/NOS_ModBus.c ****         master->ShortValue.data = com.data;
  78:Core/Src/NOS_LIB_Driver/Src/NOS_ModBus.c ****         break;
  79:Core/Src/NOS_LIB_Driver/Src/NOS_ModBus.c **** 
  80:Core/Src/NOS_LIB_Driver/Src/NOS_ModBus.c ****     case 0x10:
  81:Core/Src/NOS_LIB_Driver/Src/NOS_ModBus.c ****         com.bytes[1] = buff[offset + 3];
  82:Core/Src/NOS_LIB_Driver/Src/NOS_ModBus.c ****         com.bytes[0] = buff[offset + 4];
ARM GAS  C:\Users\user\AppData\Local\Temp\cc7htgA1.s 			page 5


  83:Core/Src/NOS_LIB_Driver/Src/NOS_ModBus.c ****         master->Reg_Addr.data = com.data;
  84:Core/Src/NOS_LIB_Driver/Src/NOS_ModBus.c ****         com.bytes[1] = buff[offset + 5];
  85:Core/Src/NOS_LIB_Driver/Src/NOS_ModBus.c ****         com.bytes[0] = buff[offset + 6];
  86:Core/Src/NOS_LIB_Driver/Src/NOS_ModBus.c ****         master->Reg_Count.data = com.data;
  87:Core/Src/NOS_LIB_Driver/Src/NOS_ModBus.c ****         master->Byte_Count = buff[offset + 7];
  88:Core/Src/NOS_LIB_Driver/Src/NOS_ModBus.c ****         master->FloatValue.bytes[3] = buff[offset + 8];
  89:Core/Src/NOS_LIB_Driver/Src/NOS_ModBus.c ****         master->FloatValue.bytes[2] = buff[offset + 9];
  90:Core/Src/NOS_LIB_Driver/Src/NOS_ModBus.c ****         master->FloatValue.bytes[1] = buff[offset + 10];
  91:Core/Src/NOS_LIB_Driver/Src/NOS_ModBus.c ****         master->FloatValue.bytes[0] = buff[offset + 11];
  92:Core/Src/NOS_LIB_Driver/Src/NOS_ModBus.c ****         break;
  93:Core/Src/NOS_LIB_Driver/Src/NOS_ModBus.c ****     
  94:Core/Src/NOS_LIB_Driver/Src/NOS_ModBus.c ****     default:
  95:Core/Src/NOS_LIB_Driver/Src/NOS_ModBus.c ****    // NOS_Error_Handler("Master command out of range");
  96:Core/Src/NOS_LIB_Driver/Src/NOS_ModBus.c ****         break;
  97:Core/Src/NOS_LIB_Driver/Src/NOS_ModBus.c ****     }
  98:Core/Src/NOS_LIB_Driver/Src/NOS_ModBus.c **** }
 143              		.loc 1 98 1 is_stmt 0 view .LVU36
 144 0016 7047     		bx	lr
 145              	.LVL13:
 146              	.L15:
  63:Core/Src/NOS_LIB_Driver/Src/NOS_ModBus.c ****         com.bytes[0] = buff[offset + 3];
 147              		.loc 1 63 9 is_stmt 1 view .LVU37
  63:Core/Src/NOS_LIB_Driver/Src/NOS_ModBus.c ****         com.bytes[0] = buff[offset + 3];
 148              		.loc 1 63 28 is_stmt 0 view .LVU38
 149 0018 1144     		add	r1, r1, r2
 150              	.LVL14:
  63:Core/Src/NOS_LIB_Driver/Src/NOS_ModBus.c ****         com.bytes[0] = buff[offset + 3];
 151              		.loc 1 63 28 view .LVU39
 152 001a 8A78     		ldrb	r2, [r1, #2]	@ zero_extendqisi2
 153              	.LVL15:
  63:Core/Src/NOS_LIB_Driver/Src/NOS_ModBus.c ****         com.bytes[0] = buff[offset + 3];
 154              		.loc 1 63 22 view .LVU40
 155 001c 4FF00003 		mov	r3, #0	@ movhi
 156              	.LVL16:
  63:Core/Src/NOS_LIB_Driver/Src/NOS_ModBus.c ****         com.bytes[0] = buff[offset + 3];
 157              		.loc 1 63 22 view .LVU41
 158 0020 62F30F23 		bfi	r3, r2, #8, #8
 159              	.LVL17:
  64:Core/Src/NOS_LIB_Driver/Src/NOS_ModBus.c ****         master->Reg_Addr.data = com.data;
 160              		.loc 1 64 9 is_stmt 1 view .LVU42
  64:Core/Src/NOS_LIB_Driver/Src/NOS_ModBus.c ****         master->Reg_Addr.data = com.data;
 161              		.loc 1 64 28 is_stmt 0 view .LVU43
 162 0024 CA78     		ldrb	r2, [r1, #3]	@ zero_extendqisi2
  64:Core/Src/NOS_LIB_Driver/Src/NOS_ModBus.c ****         master->Reg_Addr.data = com.data;
 163              		.loc 1 64 22 view .LVU44
 164 0026 62F30703 		bfi	r3, r2, #0, #8
  65:Core/Src/NOS_LIB_Driver/Src/NOS_ModBus.c ****         com.bytes[1] = buff[offset + 4];
 165              		.loc 1 65 9 is_stmt 1 view .LVU45
  65:Core/Src/NOS_LIB_Driver/Src/NOS_ModBus.c ****         com.bytes[1] = buff[offset + 4];
 166              		.loc 1 65 31 is_stmt 0 view .LVU46
 167 002a 8380     		strh	r3, [r0, #4]	@ movhi
  66:Core/Src/NOS_LIB_Driver/Src/NOS_ModBus.c ****         com.bytes[0] = buff[offset + 5];
 168              		.loc 1 66 9 is_stmt 1 view .LVU47
  66:Core/Src/NOS_LIB_Driver/Src/NOS_ModBus.c ****         com.bytes[0] = buff[offset + 5];
 169              		.loc 1 66 28 is_stmt 0 view .LVU48
 170 002c 0A79     		ldrb	r2, [r1, #4]	@ zero_extendqisi2
  66:Core/Src/NOS_LIB_Driver/Src/NOS_ModBus.c ****         com.bytes[0] = buff[offset + 5];
ARM GAS  C:\Users\user\AppData\Local\Temp\cc7htgA1.s 			page 6


 171              		.loc 1 66 22 view .LVU49
 172 002e 62F30F23 		bfi	r3, r2, #8, #8
  67:Core/Src/NOS_LIB_Driver/Src/NOS_ModBus.c ****         master->Reg_Count.data = com.data;
 173              		.loc 1 67 9 is_stmt 1 view .LVU50
  67:Core/Src/NOS_LIB_Driver/Src/NOS_ModBus.c ****         master->Reg_Count.data = com.data;
 174              		.loc 1 67 28 is_stmt 0 view .LVU51
 175 0032 4A79     		ldrb	r2, [r1, #5]	@ zero_extendqisi2
  67:Core/Src/NOS_LIB_Driver/Src/NOS_ModBus.c ****         master->Reg_Count.data = com.data;
 176              		.loc 1 67 22 view .LVU52
 177 0034 62F30703 		bfi	r3, r2, #0, #8
  68:Core/Src/NOS_LIB_Driver/Src/NOS_ModBus.c ****         break;
 178              		.loc 1 68 9 is_stmt 1 view .LVU53
  68:Core/Src/NOS_LIB_Driver/Src/NOS_ModBus.c ****         break;
 179              		.loc 1 68 32 is_stmt 0 view .LVU54
 180 0038 C380     		strh	r3, [r0, #6]	@ movhi
  69:Core/Src/NOS_LIB_Driver/Src/NOS_ModBus.c **** 
 181              		.loc 1 69 9 is_stmt 1 view .LVU55
 182 003a 7047     		bx	lr
 183              	.LVL18:
 184              	.L12:
  72:Core/Src/NOS_LIB_Driver/Src/NOS_ModBus.c ****         com.bytes[0] = buff[offset + 3];
 185              		.loc 1 72 9 view .LVU56
  72:Core/Src/NOS_LIB_Driver/Src/NOS_ModBus.c ****         com.bytes[0] = buff[offset + 3];
 186              		.loc 1 72 28 is_stmt 0 view .LVU57
 187 003c 1144     		add	r1, r1, r2
 188              	.LVL19:
  72:Core/Src/NOS_LIB_Driver/Src/NOS_ModBus.c ****         com.bytes[0] = buff[offset + 3];
 189              		.loc 1 72 28 view .LVU58
 190 003e 8A78     		ldrb	r2, [r1, #2]	@ zero_extendqisi2
 191              	.LVL20:
  72:Core/Src/NOS_LIB_Driver/Src/NOS_ModBus.c ****         com.bytes[0] = buff[offset + 3];
 192              		.loc 1 72 22 view .LVU59
 193 0040 4FF00003 		mov	r3, #0	@ movhi
  72:Core/Src/NOS_LIB_Driver/Src/NOS_ModBus.c ****         com.bytes[0] = buff[offset + 3];
 194              		.loc 1 72 22 view .LVU60
 195 0044 62F30F23 		bfi	r3, r2, #8, #8
 196              	.LVL21:
  73:Core/Src/NOS_LIB_Driver/Src/NOS_ModBus.c ****         master->Reg_Addr.data = com.data;
 197              		.loc 1 73 9 is_stmt 1 view .LVU61
  73:Core/Src/NOS_LIB_Driver/Src/NOS_ModBus.c ****         master->Reg_Addr.data = com.data;
 198              		.loc 1 73 28 is_stmt 0 view .LVU62
 199 0048 CA78     		ldrb	r2, [r1, #3]	@ zero_extendqisi2
  73:Core/Src/NOS_LIB_Driver/Src/NOS_ModBus.c ****         master->Reg_Addr.data = com.data;
 200              		.loc 1 73 22 view .LVU63
 201 004a 62F30703 		bfi	r3, r2, #0, #8
  74:Core/Src/NOS_LIB_Driver/Src/NOS_ModBus.c ****         com.bytes[1] = buff[offset + 4];
 202              		.loc 1 74 9 is_stmt 1 view .LVU64
  74:Core/Src/NOS_LIB_Driver/Src/NOS_ModBus.c ****         com.bytes[1] = buff[offset + 4];
 203              		.loc 1 74 31 is_stmt 0 view .LVU65
 204 004e 8380     		strh	r3, [r0, #4]	@ movhi
  75:Core/Src/NOS_LIB_Driver/Src/NOS_ModBus.c ****         com.bytes[0] = buff[offset + 5];
 205              		.loc 1 75 9 is_stmt 1 view .LVU66
  75:Core/Src/NOS_LIB_Driver/Src/NOS_ModBus.c ****         com.bytes[0] = buff[offset + 5];
 206              		.loc 1 75 28 is_stmt 0 view .LVU67
 207 0050 0A79     		ldrb	r2, [r1, #4]	@ zero_extendqisi2
  75:Core/Src/NOS_LIB_Driver/Src/NOS_ModBus.c ****         com.bytes[0] = buff[offset + 5];
 208              		.loc 1 75 22 view .LVU68
ARM GAS  C:\Users\user\AppData\Local\Temp\cc7htgA1.s 			page 7


 209 0052 62F30F23 		bfi	r3, r2, #8, #8
  76:Core/Src/NOS_LIB_Driver/Src/NOS_ModBus.c ****         master->ShortValue.data = com.data;
 210              		.loc 1 76 9 is_stmt 1 view .LVU69
  76:Core/Src/NOS_LIB_Driver/Src/NOS_ModBus.c ****         master->ShortValue.data = com.data;
 211              		.loc 1 76 28 is_stmt 0 view .LVU70
 212 0056 4A79     		ldrb	r2, [r1, #5]	@ zero_extendqisi2
  76:Core/Src/NOS_LIB_Driver/Src/NOS_ModBus.c ****         master->ShortValue.data = com.data;
 213              		.loc 1 76 22 view .LVU71
 214 0058 62F30703 		bfi	r3, r2, #0, #8
  77:Core/Src/NOS_LIB_Driver/Src/NOS_ModBus.c ****         break;
 215              		.loc 1 77 9 is_stmt 1 view .LVU72
  77:Core/Src/NOS_LIB_Driver/Src/NOS_ModBus.c ****         break;
 216              		.loc 1 77 33 is_stmt 0 view .LVU73
 217 005c 0381     		strh	r3, [r0, #8]	@ movhi
  78:Core/Src/NOS_LIB_Driver/Src/NOS_ModBus.c **** 
 218              		.loc 1 78 9 is_stmt 1 view .LVU74
 219 005e 7047     		bx	lr
 220              	.LVL22:
 221              	.L13:
  81:Core/Src/NOS_LIB_Driver/Src/NOS_ModBus.c ****         com.bytes[0] = buff[offset + 4];
 222              		.loc 1 81 9 view .LVU75
  81:Core/Src/NOS_LIB_Driver/Src/NOS_ModBus.c ****         com.bytes[0] = buff[offset + 4];
 223              		.loc 1 81 28 is_stmt 0 view .LVU76
 224 0060 1144     		add	r1, r1, r2
 225              	.LVL23:
  81:Core/Src/NOS_LIB_Driver/Src/NOS_ModBus.c ****         com.bytes[0] = buff[offset + 4];
 226              		.loc 1 81 28 view .LVU77
 227 0062 CA78     		ldrb	r2, [r1, #3]	@ zero_extendqisi2
 228              	.LVL24:
  81:Core/Src/NOS_LIB_Driver/Src/NOS_ModBus.c ****         com.bytes[0] = buff[offset + 4];
 229              		.loc 1 81 22 view .LVU78
 230 0064 4FF00003 		mov	r3, #0	@ movhi
  81:Core/Src/NOS_LIB_Driver/Src/NOS_ModBus.c ****         com.bytes[0] = buff[offset + 4];
 231              		.loc 1 81 22 view .LVU79
 232 0068 62F30F23 		bfi	r3, r2, #8, #8
 233              	.LVL25:
  82:Core/Src/NOS_LIB_Driver/Src/NOS_ModBus.c ****         master->Reg_Addr.data = com.data;
 234              		.loc 1 82 9 is_stmt 1 view .LVU80
  82:Core/Src/NOS_LIB_Driver/Src/NOS_ModBus.c ****         master->Reg_Addr.data = com.data;
 235              		.loc 1 82 28 is_stmt 0 view .LVU81
 236 006c 0A79     		ldrb	r2, [r1, #4]	@ zero_extendqisi2
  82:Core/Src/NOS_LIB_Driver/Src/NOS_ModBus.c ****         master->Reg_Addr.data = com.data;
 237              		.loc 1 82 22 view .LVU82
 238 006e 62F30703 		bfi	r3, r2, #0, #8
  83:Core/Src/NOS_LIB_Driver/Src/NOS_ModBus.c ****         com.bytes[1] = buff[offset + 5];
 239              		.loc 1 83 9 is_stmt 1 view .LVU83
  83:Core/Src/NOS_LIB_Driver/Src/NOS_ModBus.c ****         com.bytes[1] = buff[offset + 5];
 240              		.loc 1 83 31 is_stmt 0 view .LVU84
 241 0072 8380     		strh	r3, [r0, #4]	@ movhi
  84:Core/Src/NOS_LIB_Driver/Src/NOS_ModBus.c ****         com.bytes[0] = buff[offset + 6];
 242              		.loc 1 84 9 is_stmt 1 view .LVU85
  84:Core/Src/NOS_LIB_Driver/Src/NOS_ModBus.c ****         com.bytes[0] = buff[offset + 6];
 243              		.loc 1 84 28 is_stmt 0 view .LVU86
 244 0074 4A79     		ldrb	r2, [r1, #5]	@ zero_extendqisi2
  84:Core/Src/NOS_LIB_Driver/Src/NOS_ModBus.c ****         com.bytes[0] = buff[offset + 6];
 245              		.loc 1 84 22 view .LVU87
 246 0076 62F30F23 		bfi	r3, r2, #8, #8
ARM GAS  C:\Users\user\AppData\Local\Temp\cc7htgA1.s 			page 8


  85:Core/Src/NOS_LIB_Driver/Src/NOS_ModBus.c ****         master->Reg_Count.data = com.data;
 247              		.loc 1 85 9 is_stmt 1 view .LVU88
  85:Core/Src/NOS_LIB_Driver/Src/NOS_ModBus.c ****         master->Reg_Count.data = com.data;
 248              		.loc 1 85 28 is_stmt 0 view .LVU89
 249 007a 8A79     		ldrb	r2, [r1, #6]	@ zero_extendqisi2
  85:Core/Src/NOS_LIB_Driver/Src/NOS_ModBus.c ****         master->Reg_Count.data = com.data;
 250              		.loc 1 85 22 view .LVU90
 251 007c 62F30703 		bfi	r3, r2, #0, #8
  86:Core/Src/NOS_LIB_Driver/Src/NOS_ModBus.c ****         master->Byte_Count = buff[offset + 7];
 252              		.loc 1 86 9 is_stmt 1 view .LVU91
  86:Core/Src/NOS_LIB_Driver/Src/NOS_ModBus.c ****         master->Byte_Count = buff[offset + 7];
 253              		.loc 1 86 32 is_stmt 0 view .LVU92
 254 0080 C380     		strh	r3, [r0, #6]	@ movhi
  87:Core/Src/NOS_LIB_Driver/Src/NOS_ModBus.c ****         master->FloatValue.bytes[3] = buff[offset + 8];
 255              		.loc 1 87 9 is_stmt 1 view .LVU93
  87:Core/Src/NOS_LIB_Driver/Src/NOS_ModBus.c ****         master->FloatValue.bytes[3] = buff[offset + 8];
 256              		.loc 1 87 34 is_stmt 0 view .LVU94
 257 0082 CB79     		ldrb	r3, [r1, #7]	@ zero_extendqisi2
 258              	.LVL26:
  87:Core/Src/NOS_LIB_Driver/Src/NOS_ModBus.c ****         master->FloatValue.bytes[3] = buff[offset + 8];
 259              		.loc 1 87 28 view .LVU95
 260 0084 8370     		strb	r3, [r0, #2]
  88:Core/Src/NOS_LIB_Driver/Src/NOS_ModBus.c ****         master->FloatValue.bytes[2] = buff[offset + 9];
 261              		.loc 1 88 9 is_stmt 1 view .LVU96
  88:Core/Src/NOS_LIB_Driver/Src/NOS_ModBus.c ****         master->FloatValue.bytes[2] = buff[offset + 9];
 262              		.loc 1 88 43 is_stmt 0 view .LVU97
 263 0086 0B7A     		ldrb	r3, [r1, #8]	@ zero_extendqisi2
  88:Core/Src/NOS_LIB_Driver/Src/NOS_ModBus.c ****         master->FloatValue.bytes[2] = buff[offset + 9];
 264              		.loc 1 88 37 view .LVU98
 265 0088 C373     		strb	r3, [r0, #15]
  89:Core/Src/NOS_LIB_Driver/Src/NOS_ModBus.c ****         master->FloatValue.bytes[1] = buff[offset + 10];
 266              		.loc 1 89 9 is_stmt 1 view .LVU99
  89:Core/Src/NOS_LIB_Driver/Src/NOS_ModBus.c ****         master->FloatValue.bytes[1] = buff[offset + 10];
 267              		.loc 1 89 43 is_stmt 0 view .LVU100
 268 008a 4B7A     		ldrb	r3, [r1, #9]	@ zero_extendqisi2
  89:Core/Src/NOS_LIB_Driver/Src/NOS_ModBus.c ****         master->FloatValue.bytes[1] = buff[offset + 10];
 269              		.loc 1 89 37 view .LVU101
 270 008c 8373     		strb	r3, [r0, #14]
  90:Core/Src/NOS_LIB_Driver/Src/NOS_ModBus.c ****         master->FloatValue.bytes[0] = buff[offset + 11];
 271              		.loc 1 90 9 is_stmt 1 view .LVU102
  90:Core/Src/NOS_LIB_Driver/Src/NOS_ModBus.c ****         master->FloatValue.bytes[0] = buff[offset + 11];
 272              		.loc 1 90 43 is_stmt 0 view .LVU103
 273 008e 8B7A     		ldrb	r3, [r1, #10]	@ zero_extendqisi2
  90:Core/Src/NOS_LIB_Driver/Src/NOS_ModBus.c ****         master->FloatValue.bytes[0] = buff[offset + 11];
 274              		.loc 1 90 37 view .LVU104
 275 0090 4373     		strb	r3, [r0, #13]
  91:Core/Src/NOS_LIB_Driver/Src/NOS_ModBus.c ****         break;
 276              		.loc 1 91 9 is_stmt 1 view .LVU105
  91:Core/Src/NOS_LIB_Driver/Src/NOS_ModBus.c ****         break;
 277              		.loc 1 91 43 is_stmt 0 view .LVU106
 278 0092 CB7A     		ldrb	r3, [r1, #11]	@ zero_extendqisi2
  91:Core/Src/NOS_LIB_Driver/Src/NOS_ModBus.c ****         break;
 279              		.loc 1 91 37 view .LVU107
 280 0094 0373     		strb	r3, [r0, #12]
  92:Core/Src/NOS_LIB_Driver/Src/NOS_ModBus.c ****     
 281              		.loc 1 92 9 is_stmt 1 view .LVU108
 282              		.loc 1 98 1 is_stmt 0 view .LVU109
ARM GAS  C:\Users\user\AppData\Local\Temp\cc7htgA1.s 			page 9


 283 0096 BEE7     		b	.L11
 284              		.cfi_endproc
 285              	.LFE131:
 287              		.section	.text.NOS_ModBus_ParseSlaveCommand,"ax",%progbits
 288              		.align	1
 289              		.global	NOS_ModBus_ParseSlaveCommand
 290              		.syntax unified
 291              		.thumb
 292              		.thumb_func
 293              		.fpu fpv4-sp-d16
 295              	NOS_ModBus_ParseSlaveCommand:
 296              	.LVL27:
 297              	.LFB132:
  99:Core/Src/NOS_LIB_Driver/Src/NOS_ModBus.c **** 
 100:Core/Src/NOS_LIB_Driver/Src/NOS_ModBus.c **** void NOS_ModBus_ParseSlaveCommand(ModBus_Slave_Command* slave,uint8_t* buff,uint8_t offset)
 101:Core/Src/NOS_LIB_Driver/Src/NOS_ModBus.c **** {
 298              		.loc 1 101 1 is_stmt 1 view -0
 299              		.cfi_startproc
 300              		@ args = 0, pretend = 0, frame = 0
 301              		@ frame_needed = 0, uses_anonymous_args = 0
 302              		@ link register save eliminated.
 102:Core/Src/NOS_LIB_Driver/Src/NOS_ModBus.c ****    slave->Addr = buff[offset];
 303              		.loc 1 102 4 view .LVU111
 304              		.loc 1 102 22 is_stmt 0 view .LVU112
 305 0000 8B5C     		ldrb	r3, [r1, r2]	@ zero_extendqisi2
 306              		.loc 1 102 16 view .LVU113
 307 0002 4370     		strb	r3, [r0, #1]
 103:Core/Src/NOS_LIB_Driver/Src/NOS_ModBus.c ****    slave->Command = buff[offset + 1];
 308              		.loc 1 103 4 is_stmt 1 view .LVU114
 309              		.loc 1 103 25 is_stmt 0 view .LVU115
 310 0004 01EB020C 		add	ip, r1, r2
 311 0008 9CF80130 		ldrb	r3, [ip, #1]	@ zero_extendqisi2
 312              		.loc 1 103 19 view .LVU116
 313 000c 8370     		strb	r3, [r0, #2]
 104:Core/Src/NOS_LIB_Driver/Src/NOS_ModBus.c ****    slave->Byte_Count = buff[offset + 2];
 314              		.loc 1 104 4 is_stmt 1 view .LVU117
 315              		.loc 1 104 28 is_stmt 0 view .LVU118
 316 000e 9CF802C0 		ldrb	ip, [ip, #2]	@ zero_extendqisi2
 317              		.loc 1 104 22 view .LVU119
 318 0012 80F803C0 		strb	ip, [r0, #3]
 105:Core/Src/NOS_LIB_Driver/Src/NOS_ModBus.c **** 
 106:Core/Src/NOS_LIB_Driver/Src/NOS_ModBus.c ****    switch(slave->Command)
 319              		.loc 1 106 4 is_stmt 1 view .LVU120
 320 0016 032B     		cmp	r3, #3
 321 0018 00D0     		beq	.L19
 322              	.LVL28:
 323              	.L16:
 107:Core/Src/NOS_LIB_Driver/Src/NOS_ModBus.c ****    {
 108:Core/Src/NOS_LIB_Driver/Src/NOS_ModBus.c ****        case 0x03:
 109:Core/Src/NOS_LIB_Driver/Src/NOS_ModBus.c ****        if(slave->Byte_Count == 2)
 110:Core/Src/NOS_LIB_Driver/Src/NOS_ModBus.c ****        {
 111:Core/Src/NOS_LIB_Driver/Src/NOS_ModBus.c ****           slave->ShortValue.bytes[1] = buff[offset + 3];
 112:Core/Src/NOS_LIB_Driver/Src/NOS_ModBus.c ****           slave->ShortValue.bytes[0] = buff[offset + 4];
 113:Core/Src/NOS_LIB_Driver/Src/NOS_ModBus.c ****        }
 114:Core/Src/NOS_LIB_Driver/Src/NOS_ModBus.c ****        else
 115:Core/Src/NOS_LIB_Driver/Src/NOS_ModBus.c ****        {
 116:Core/Src/NOS_LIB_Driver/Src/NOS_ModBus.c ****           slave->FloatValue.bytes[3] = buff[offset + 3];
ARM GAS  C:\Users\user\AppData\Local\Temp\cc7htgA1.s 			page 10


 117:Core/Src/NOS_LIB_Driver/Src/NOS_ModBus.c ****           slave->FloatValue.bytes[2] = buff[offset + 4];
 118:Core/Src/NOS_LIB_Driver/Src/NOS_ModBus.c ****           slave->FloatValue.bytes[1] = buff[offset + 5];
 119:Core/Src/NOS_LIB_Driver/Src/NOS_ModBus.c ****           slave->FloatValue.bytes[0] = buff[offset + 6];
 120:Core/Src/NOS_LIB_Driver/Src/NOS_ModBus.c ****        }
 121:Core/Src/NOS_LIB_Driver/Src/NOS_ModBus.c ****        break;
 122:Core/Src/NOS_LIB_Driver/Src/NOS_ModBus.c **** 
 123:Core/Src/NOS_LIB_Driver/Src/NOS_ModBus.c ****        default:
 124:Core/Src/NOS_LIB_Driver/Src/NOS_ModBus.c ****  //         NOS_Error_Handler("Slave command out of range");
 125:Core/Src/NOS_LIB_Driver/Src/NOS_ModBus.c ****        break;
 126:Core/Src/NOS_LIB_Driver/Src/NOS_ModBus.c ****    }
 127:Core/Src/NOS_LIB_Driver/Src/NOS_ModBus.c **** }
 324              		.loc 1 127 1 is_stmt 0 view .LVU121
 325 001a 7047     		bx	lr
 326              	.LVL29:
 327              	.L19:
 109:Core/Src/NOS_LIB_Driver/Src/NOS_ModBus.c ****        {
 328              		.loc 1 109 8 is_stmt 1 view .LVU122
 109:Core/Src/NOS_LIB_Driver/Src/NOS_ModBus.c ****        {
 329              		.loc 1 109 10 is_stmt 0 view .LVU123
 330 001c BCF1020F 		cmp	ip, #2
 331 0020 09D0     		beq	.L20
 116:Core/Src/NOS_LIB_Driver/Src/NOS_ModBus.c ****           slave->FloatValue.bytes[2] = buff[offset + 4];
 332              		.loc 1 116 11 is_stmt 1 view .LVU124
 116:Core/Src/NOS_LIB_Driver/Src/NOS_ModBus.c ****           slave->FloatValue.bytes[2] = buff[offset + 4];
 333              		.loc 1 116 44 is_stmt 0 view .LVU125
 334 0022 1144     		add	r1, r1, r2
 335              	.LVL30:
 116:Core/Src/NOS_LIB_Driver/Src/NOS_ModBus.c ****           slave->FloatValue.bytes[2] = buff[offset + 4];
 336              		.loc 1 116 44 view .LVU126
 337 0024 CB78     		ldrb	r3, [r1, #3]	@ zero_extendqisi2
 116:Core/Src/NOS_LIB_Driver/Src/NOS_ModBus.c ****           slave->FloatValue.bytes[2] = buff[offset + 4];
 338              		.loc 1 116 38 view .LVU127
 339 0026 C372     		strb	r3, [r0, #11]
 117:Core/Src/NOS_LIB_Driver/Src/NOS_ModBus.c ****           slave->FloatValue.bytes[1] = buff[offset + 5];
 340              		.loc 1 117 11 is_stmt 1 view .LVU128
 117:Core/Src/NOS_LIB_Driver/Src/NOS_ModBus.c ****           slave->FloatValue.bytes[1] = buff[offset + 5];
 341              		.loc 1 117 44 is_stmt 0 view .LVU129
 342 0028 0B79     		ldrb	r3, [r1, #4]	@ zero_extendqisi2
 117:Core/Src/NOS_LIB_Driver/Src/NOS_ModBus.c ****           slave->FloatValue.bytes[1] = buff[offset + 5];
 343              		.loc 1 117 38 view .LVU130
 344 002a 8372     		strb	r3, [r0, #10]
 118:Core/Src/NOS_LIB_Driver/Src/NOS_ModBus.c ****           slave->FloatValue.bytes[0] = buff[offset + 6];
 345              		.loc 1 118 11 is_stmt 1 view .LVU131
 118:Core/Src/NOS_LIB_Driver/Src/NOS_ModBus.c ****           slave->FloatValue.bytes[0] = buff[offset + 6];
 346              		.loc 1 118 44 is_stmt 0 view .LVU132
 347 002c 4B79     		ldrb	r3, [r1, #5]	@ zero_extendqisi2
 118:Core/Src/NOS_LIB_Driver/Src/NOS_ModBus.c ****           slave->FloatValue.bytes[0] = buff[offset + 6];
 348              		.loc 1 118 38 view .LVU133
 349 002e 4372     		strb	r3, [r0, #9]
 119:Core/Src/NOS_LIB_Driver/Src/NOS_ModBus.c ****        }
 350              		.loc 1 119 11 is_stmt 1 view .LVU134
 119:Core/Src/NOS_LIB_Driver/Src/NOS_ModBus.c ****        }
 351              		.loc 1 119 44 is_stmt 0 view .LVU135
 352 0030 8B79     		ldrb	r3, [r1, #6]	@ zero_extendqisi2
 119:Core/Src/NOS_LIB_Driver/Src/NOS_ModBus.c ****        }
 353              		.loc 1 119 38 view .LVU136
 354 0032 0372     		strb	r3, [r0, #8]
ARM GAS  C:\Users\user\AppData\Local\Temp\cc7htgA1.s 			page 11


 355              		.loc 1 127 1 view .LVU137
 356 0034 F1E7     		b	.L16
 357              	.LVL31:
 358              	.L20:
 111:Core/Src/NOS_LIB_Driver/Src/NOS_ModBus.c ****           slave->ShortValue.bytes[0] = buff[offset + 4];
 359              		.loc 1 111 11 is_stmt 1 view .LVU138
 111:Core/Src/NOS_LIB_Driver/Src/NOS_ModBus.c ****           slave->ShortValue.bytes[0] = buff[offset + 4];
 360              		.loc 1 111 44 is_stmt 0 view .LVU139
 361 0036 1144     		add	r1, r1, r2
 362              	.LVL32:
 111:Core/Src/NOS_LIB_Driver/Src/NOS_ModBus.c ****           slave->ShortValue.bytes[0] = buff[offset + 4];
 363              		.loc 1 111 44 view .LVU140
 364 0038 CB78     		ldrb	r3, [r1, #3]	@ zero_extendqisi2
 111:Core/Src/NOS_LIB_Driver/Src/NOS_ModBus.c ****           slave->ShortValue.bytes[0] = buff[offset + 4];
 365              		.loc 1 111 38 view .LVU141
 366 003a C371     		strb	r3, [r0, #7]
 112:Core/Src/NOS_LIB_Driver/Src/NOS_ModBus.c ****        }
 367              		.loc 1 112 11 is_stmt 1 view .LVU142
 112:Core/Src/NOS_LIB_Driver/Src/NOS_ModBus.c ****        }
 368              		.loc 1 112 44 is_stmt 0 view .LVU143
 369 003c 0B79     		ldrb	r3, [r1, #4]	@ zero_extendqisi2
 112:Core/Src/NOS_LIB_Driver/Src/NOS_ModBus.c ****        }
 370              		.loc 1 112 38 view .LVU144
 371 003e 8371     		strb	r3, [r0, #6]
 372 0040 7047     		bx	lr
 373              		.cfi_endproc
 374              	.LFE132:
 376              		.section	.text.NOS_ModBus_AddShortValueToBuff,"ax",%progbits
 377              		.align	1
 378              		.global	NOS_ModBus_AddShortValueToBuff
 379              		.syntax unified
 380              		.thumb
 381              		.thumb_func
 382              		.fpu fpv4-sp-d16
 384              	NOS_ModBus_AddShortValueToBuff:
 385              	.LVL33:
 386              	.LFB133:
 128:Core/Src/NOS_LIB_Driver/Src/NOS_ModBus.c **** 
 129:Core/Src/NOS_LIB_Driver/Src/NOS_ModBus.c **** 
 130:Core/Src/NOS_LIB_Driver/Src/NOS_ModBus.c **** 
 131:Core/Src/NOS_LIB_Driver/Src/NOS_ModBus.c **** 
 132:Core/Src/NOS_LIB_Driver/Src/NOS_ModBus.c **** void NOS_ModBus_AddShortValueToBuff(ModBus_Struct* mb,NOS_Short value)
 133:Core/Src/NOS_LIB_Driver/Src/NOS_ModBus.c **** {
 387              		.loc 1 133 1 is_stmt 1 view -0
 388              		.cfi_startproc
 389              		@ args = 0, pretend = 0, frame = 0
 390              		@ frame_needed = 0, uses_anonymous_args = 0
 391              		@ link register save eliminated.
 134:Core/Src/NOS_LIB_Driver/Src/NOS_ModBus.c ****    
 135:Core/Src/NOS_LIB_Driver/Src/NOS_ModBus.c **** }
 392              		.loc 1 135 1 view .LVU146
 393 0000 7047     		bx	lr
 394              		.cfi_endproc
 395              	.LFE133:
 397              		.section	.text.NOS_ModBus_SetSlaveCommand,"ax",%progbits
 398              		.align	1
 399              		.global	NOS_ModBus_SetSlaveCommand
ARM GAS  C:\Users\user\AppData\Local\Temp\cc7htgA1.s 			page 12


 400              		.syntax unified
 401              		.thumb
 402              		.thumb_func
 403              		.fpu fpv4-sp-d16
 405              	NOS_ModBus_SetSlaveCommand:
 406              	.LVL34:
 407              	.LFB134:
 136:Core/Src/NOS_LIB_Driver/Src/NOS_ModBus.c **** 
 137:Core/Src/NOS_LIB_Driver/Src/NOS_ModBus.c **** 
 138:Core/Src/NOS_LIB_Driver/Src/NOS_ModBus.c **** 
 139:Core/Src/NOS_LIB_Driver/Src/NOS_ModBus.c **** void NOS_ModBus_SetSlaveCommand(ModBus_Slave_Command* slave,uint8_t addr,uint8_t command,uint8_t by
 140:Core/Src/NOS_LIB_Driver/Src/NOS_ModBus.c **** {
 408              		.loc 1 140 1 view -0
 409              		.cfi_startproc
 410              		@ args = 12, pretend = 0, frame = 0
 411              		@ frame_needed = 0, uses_anonymous_args = 0
 412              		@ link register save eliminated.
 141:Core/Src/NOS_LIB_Driver/Src/NOS_ModBus.c ****    slave->Addr = addr;
 413              		.loc 1 141 4 view .LVU148
 414              		.loc 1 141 16 is_stmt 0 view .LVU149
 415 0000 4170     		strb	r1, [r0, #1]
 142:Core/Src/NOS_LIB_Driver/Src/NOS_ModBus.c ****    slave->Byte_Count = byteCount;
 416              		.loc 1 142 4 is_stmt 1 view .LVU150
 417              		.loc 1 142 22 is_stmt 0 view .LVU151
 418 0002 C370     		strb	r3, [r0, #3]
 143:Core/Src/NOS_LIB_Driver/Src/NOS_ModBus.c ****    slave->ShortValue = sVal;
 419              		.loc 1 143 4 is_stmt 1 view .LVU152
 420              		.loc 1 143 22 is_stmt 0 view .LVU153
 421 0004 BDF80430 		ldrh	r3, [sp, #4]
 422              	.LVL35:
 423              		.loc 1 143 22 view .LVU154
 424 0008 C380     		strh	r3, [r0, #6]	@ movhi
 144:Core/Src/NOS_LIB_Driver/Src/NOS_ModBus.c **** }
 425              		.loc 1 144 1 view .LVU155
 426 000a 7047     		bx	lr
 427              		.cfi_endproc
 428              	.LFE134:
 430              		.section	.text.NOS_ModBus_InitDevice,"ax",%progbits
 431              		.align	1
 432              		.global	NOS_ModBus_InitDevice
 433              		.syntax unified
 434              		.thumb
 435              		.thumb_func
 436              		.fpu fpv4-sp-d16
 438              	NOS_ModBus_InitDevice:
 439              	.LVL36:
 440              	.LFB135:
 145:Core/Src/NOS_LIB_Driver/Src/NOS_ModBus.c **** 
 146:Core/Src/NOS_LIB_Driver/Src/NOS_ModBus.c **** void NOS_ModBus_InitDevice(Modbus_Device* device,uint8_t address,NOS_Short* regAddrs,uint8_t regCou
 147:Core/Src/NOS_LIB_Driver/Src/NOS_ModBus.c **** {
 441              		.loc 1 147 1 is_stmt 1 view -0
 442              		.cfi_startproc
 443              		@ args = 4, pretend = 0, frame = 0
 444              		@ frame_needed = 0, uses_anonymous_args = 0
 445              		@ link register save eliminated.
 148:Core/Src/NOS_LIB_Driver/Src/NOS_ModBus.c ****    if(address > 0 && address < 249)
 446              		.loc 1 148 4 view .LVU157
ARM GAS  C:\Users\user\AppData\Local\Temp\cc7htgA1.s 			page 13


 447              		.loc 1 148 19 is_stmt 0 view .LVU158
 448 0000 01F1FF3C 		add	ip, r1, #-1
 449 0004 5FFA8CFC 		uxtb	ip, ip
 450              		.loc 1 148 6 view .LVU159
 451 0008 BCF1F70F 		cmp	ip, #247
 452 000c 05D8     		bhi	.L23
 149:Core/Src/NOS_LIB_Driver/Src/NOS_ModBus.c ****    {
 150:Core/Src/NOS_LIB_Driver/Src/NOS_ModBus.c ****       device->Addr = address;
 453              		.loc 1 150 7 is_stmt 1 view .LVU160
 454              		.loc 1 150 20 is_stmt 0 view .LVU161
 455 000e 4170     		strb	r1, [r0, #1]
 151:Core/Src/NOS_LIB_Driver/Src/NOS_ModBus.c ****       device->RegisterAddress = regAddrs;
 456              		.loc 1 151 7 is_stmt 1 view .LVU162
 457              		.loc 1 151 31 is_stmt 0 view .LVU163
 458 0010 4260     		str	r2, [r0, #4]
 152:Core/Src/NOS_LIB_Driver/Src/NOS_ModBus.c ****       device->RegisterCount = regCount;
 459              		.loc 1 152 7 is_stmt 1 view .LVU164
 460              		.loc 1 152 29 is_stmt 0 view .LVU165
 461 0012 8370     		strb	r3, [r0, #2]
 153:Core/Src/NOS_LIB_Driver/Src/NOS_ModBus.c ****       device->Descriptor = _descriptor;
 462              		.loc 1 153 7 is_stmt 1 view .LVU166
 463              		.loc 1 153 26 is_stmt 0 view .LVU167
 464 0014 9DF80030 		ldrb	r3, [sp]	@ zero_extendqisi2
 465              	.LVL37:
 466              		.loc 1 153 26 view .LVU168
 467 0018 0370     		strb	r3, [r0]
 468              	.LVL38:
 469              	.L23:
 154:Core/Src/NOS_LIB_Driver/Src/NOS_ModBus.c ****    }
 155:Core/Src/NOS_LIB_Driver/Src/NOS_ModBus.c **** }
 470              		.loc 1 155 1 view .LVU169
 471 001a 7047     		bx	lr
 472              		.cfi_endproc
 473              	.LFE135:
 475              		.section	.text.NOS_ModBus_ReceiveHandler,"ax",%progbits
 476              		.align	1
 477              		.global	NOS_ModBus_ReceiveHandler
 478              		.syntax unified
 479              		.thumb
 480              		.thumb_func
 481              		.fpu fpv4-sp-d16
 483              	NOS_ModBus_ReceiveHandler:
 484              	.LVL39:
 485              	.LFB136:
 156:Core/Src/NOS_LIB_Driver/Src/NOS_ModBus.c **** 
 157:Core/Src/NOS_LIB_Driver/Src/NOS_ModBus.c **** void NOS_ModBus_GetParam(Modbus_Device* device);
 158:Core/Src/NOS_LIB_Driver/Src/NOS_ModBus.c **** 
 159:Core/Src/NOS_LIB_Driver/Src/NOS_ModBus.c **** 
 160:Core/Src/NOS_LIB_Driver/Src/NOS_ModBus.c **** 
 161:Core/Src/NOS_LIB_Driver/Src/NOS_ModBus.c **** void NOS_ModBus_ReceiveHandler(ModBus_Struct* MB_struct)
 162:Core/Src/NOS_LIB_Driver/Src/NOS_ModBus.c **** {
 486              		.loc 1 162 1 is_stmt 1 view -0
 487              		.cfi_startproc
 488              		@ args = 0, pretend = 0, frame = 0
 489              		@ frame_needed = 0, uses_anonymous_args = 0
 490              		.loc 1 162 1 is_stmt 0 view .LVU171
 491 0000 08B5     		push	{r3, lr}
ARM GAS  C:\Users\user\AppData\Local\Temp\cc7htgA1.s 			page 14


 492              	.LCFI2:
 493              		.cfi_def_cfa_offset 8
 494              		.cfi_offset 3, -8
 495              		.cfi_offset 14, -4
 163:Core/Src/NOS_LIB_Driver/Src/NOS_ModBus.c ****    uint8_t* rx_buff_ptr = MB_struct->rx_buff;
 496              		.loc 1 163 4 is_stmt 1 view .LVU172
 497              		.loc 1 163 13 is_stmt 0 view .LVU173
 498 0002 016F     		ldr	r1, [r0, #112]
 499              	.LVL40:
 164:Core/Src/NOS_LIB_Driver/Src/NOS_ModBus.c ****    
 165:Core/Src/NOS_LIB_Driver/Src/NOS_ModBus.c ****    for(int i = 0; i < MB_struct->devicesCount; i++)
 500              		.loc 1 165 4 is_stmt 1 view .LVU174
 501              	.LBB2:
 502              		.loc 1 165 8 view .LVU175
 503              		.loc 1 165 12 is_stmt 0 view .LVU176
 504 0004 0023     		movs	r3, #0
 505              		.loc 1 165 4 view .LVU177
 506 0006 03E0     		b	.L26
 507              	.LVL41:
 508              	.L28:
 166:Core/Src/NOS_LIB_Driver/Src/NOS_ModBus.c ****    {
 167:Core/Src/NOS_LIB_Driver/Src/NOS_ModBus.c ****      if(*rx_buff_ptr == MB_struct->devices[i].Addr && !MB_struct->addressOk)
 168:Core/Src/NOS_LIB_Driver/Src/NOS_ModBus.c ****      {
 169:Core/Src/NOS_LIB_Driver/Src/NOS_ModBus.c ****          MB_struct->currDevice = i;
 170:Core/Src/NOS_LIB_Driver/Src/NOS_ModBus.c ****          MB_struct->addressOk = true;
 171:Core/Src/NOS_LIB_Driver/Src/NOS_ModBus.c ****          MB_struct->messageLenght = 0;
 172:Core/Src/NOS_LIB_Driver/Src/NOS_ModBus.c ****          if(MB_struct->devices[i].Descriptor == 0)
 173:Core/Src/NOS_LIB_Driver/Src/NOS_ModBus.c ****          {
 174:Core/Src/NOS_LIB_Driver/Src/NOS_ModBus.c ****             MB_struct->state = ReceiveFromSlave;
 175:Core/Src/NOS_LIB_Driver/Src/NOS_ModBus.c ****          }
 176:Core/Src/NOS_LIB_Driver/Src/NOS_ModBus.c ****          else
 177:Core/Src/NOS_LIB_Driver/Src/NOS_ModBus.c ****          {
 178:Core/Src/NOS_LIB_Driver/Src/NOS_ModBus.c ****             MB_struct->state = ReceiveFromMaster;
 509              		.loc 1 178 13 is_stmt 1 view .LVU178
 510              		.loc 1 178 30 is_stmt 0 view .LVU179
 511 0008 0122     		movs	r2, #1
 512 000a 80F87C20 		strb	r2, [r0, #124]
 513              	.L27:
 165:Core/Src/NOS_LIB_Driver/Src/NOS_ModBus.c ****    {
 514              		.loc 1 165 48 is_stmt 1 discriminator 2 view .LVU180
 165:Core/Src/NOS_LIB_Driver/Src/NOS_ModBus.c ****    {
 515              		.loc 1 165 49 is_stmt 0 discriminator 2 view .LVU181
 516 000e 0133     		adds	r3, r3, #1
 517              	.LVL42:
 518              	.L26:
 165:Core/Src/NOS_LIB_Driver/Src/NOS_ModBus.c ****    {
 519              		.loc 1 165 19 is_stmt 1 discriminator 1 view .LVU182
 165:Core/Src/NOS_LIB_Driver/Src/NOS_ModBus.c ****    {
 520              		.loc 1 165 32 is_stmt 0 discriminator 1 view .LVU183
 521 0010 90F87D20 		ldrb	r2, [r0, #125]	@ zero_extendqisi2
 165:Core/Src/NOS_LIB_Driver/Src/NOS_ModBus.c ****    {
 522              		.loc 1 165 4 discriminator 1 view .LVU184
 523 0014 9A42     		cmp	r2, r3
 524 0016 1ADD     		ble	.L40
 167:Core/Src/NOS_LIB_Driver/Src/NOS_ModBus.c ****      {
 525              		.loc 1 167 6 is_stmt 1 view .LVU185
 167:Core/Src/NOS_LIB_Driver/Src/NOS_ModBus.c ****      {
ARM GAS  C:\Users\user\AppData\Local\Temp\cc7htgA1.s 			page 15


 526              		.loc 1 167 9 is_stmt 0 view .LVU186
 527 0018 91F800C0 		ldrb	ip, [r1]	@ zero_extendqisi2
 167:Core/Src/NOS_LIB_Driver/Src/NOS_ModBus.c ****      {
 528              		.loc 1 167 46 view .LVU187
 529 001c 00EBC302 		add	r2, r0, r3, lsl #3
 530 0020 5278     		ldrb	r2, [r2, #1]	@ zero_extendqisi2
 167:Core/Src/NOS_LIB_Driver/Src/NOS_ModBus.c ****      {
 531              		.loc 1 167 8 view .LVU188
 532 0022 9445     		cmp	ip, r2
 533 0024 F3D1     		bne	.L27
 167:Core/Src/NOS_LIB_Driver/Src/NOS_ModBus.c ****      {
 534              		.loc 1 167 65 discriminator 1 view .LVU189
 535 0026 90F88220 		ldrb	r2, [r0, #130]	@ zero_extendqisi2
 167:Core/Src/NOS_LIB_Driver/Src/NOS_ModBus.c ****      {
 536              		.loc 1 167 52 discriminator 1 view .LVU190
 537 002a 002A     		cmp	r2, #0
 538 002c EFD1     		bne	.L27
 169:Core/Src/NOS_LIB_Driver/Src/NOS_ModBus.c ****          MB_struct->addressOk = true;
 539              		.loc 1 169 10 is_stmt 1 view .LVU191
 169:Core/Src/NOS_LIB_Driver/Src/NOS_ModBus.c ****          MB_struct->addressOk = true;
 540              		.loc 1 169 32 is_stmt 0 view .LVU192
 541 002e 80F88030 		strb	r3, [r0, #128]
 170:Core/Src/NOS_LIB_Driver/Src/NOS_ModBus.c ****          MB_struct->messageLenght = 0;
 542              		.loc 1 170 10 is_stmt 1 view .LVU193
 170:Core/Src/NOS_LIB_Driver/Src/NOS_ModBus.c ****          MB_struct->messageLenght = 0;
 543              		.loc 1 170 31 is_stmt 0 view .LVU194
 544 0032 0122     		movs	r2, #1
 545 0034 80F88220 		strb	r2, [r0, #130]
 171:Core/Src/NOS_LIB_Driver/Src/NOS_ModBus.c ****          if(MB_struct->devices[i].Descriptor == 0)
 546              		.loc 1 171 10 is_stmt 1 view .LVU195
 171:Core/Src/NOS_LIB_Driver/Src/NOS_ModBus.c ****          if(MB_struct->devices[i].Descriptor == 0)
 547              		.loc 1 171 35 is_stmt 0 view .LVU196
 548 0038 0022     		movs	r2, #0
 549 003a 80F87E20 		strb	r2, [r0, #126]
 172:Core/Src/NOS_LIB_Driver/Src/NOS_ModBus.c ****          {
 550              		.loc 1 172 10 is_stmt 1 view .LVU197
 172:Core/Src/NOS_LIB_Driver/Src/NOS_ModBus.c ****          {
 551              		.loc 1 172 34 is_stmt 0 view .LVU198
 552 003e 10F83320 		ldrb	r2, [r0, r3, lsl #3]	@ zero_extendqisi2
 172:Core/Src/NOS_LIB_Driver/Src/NOS_ModBus.c ****          {
 553              		.loc 1 172 12 view .LVU199
 554 0042 002A     		cmp	r2, #0
 555 0044 E0D1     		bne	.L28
 174:Core/Src/NOS_LIB_Driver/Src/NOS_ModBus.c ****          }
 556              		.loc 1 174 13 is_stmt 1 view .LVU200
 174:Core/Src/NOS_LIB_Driver/Src/NOS_ModBus.c ****          }
 557              		.loc 1 174 30 is_stmt 0 view .LVU201
 558 0046 0222     		movs	r2, #2
 559 0048 80F87C20 		strb	r2, [r0, #124]
 560 004c DFE7     		b	.L27
 561              	.L40:
 174:Core/Src/NOS_LIB_Driver/Src/NOS_ModBus.c ****          }
 562              		.loc 1 174 30 view .LVU202
 563              	.LBE2:
 179:Core/Src/NOS_LIB_Driver/Src/NOS_ModBus.c ****          }
 180:Core/Src/NOS_LIB_Driver/Src/NOS_ModBus.c ****      }
 181:Core/Src/NOS_LIB_Driver/Src/NOS_ModBus.c ****    }
ARM GAS  C:\Users\user\AppData\Local\Temp\cc7htgA1.s 			page 16


 182:Core/Src/NOS_LIB_Driver/Src/NOS_ModBus.c **** 
 183:Core/Src/NOS_LIB_Driver/Src/NOS_ModBus.c ****    if(MB_struct->addressOk && MB_struct->messageLenght == 1)
 564              		.loc 1 183 4 is_stmt 1 view .LVU203
 565              		.loc 1 183 16 is_stmt 0 view .LVU204
 566 004e 90F88230 		ldrb	r3, [r0, #130]	@ zero_extendqisi2
 567              	.LVL43:
 568              		.loc 1 183 6 view .LVU205
 569 0052 1BB1     		cbz	r3, .L30
 570              		.loc 1 183 40 discriminator 1 view .LVU206
 571 0054 90F87E20 		ldrb	r2, [r0, #126]	@ zero_extendqisi2
 572              		.loc 1 183 28 discriminator 1 view .LVU207
 573 0058 012A     		cmp	r2, #1
 574 005a 1CD0     		beq	.L41
 575              	.L30:
 184:Core/Src/NOS_LIB_Driver/Src/NOS_ModBus.c ****    {
 185:Core/Src/NOS_LIB_Driver/Src/NOS_ModBus.c ****       MB_struct->currCommand = *rx_buff_ptr;
 186:Core/Src/NOS_LIB_Driver/Src/NOS_ModBus.c ****    }
 187:Core/Src/NOS_LIB_Driver/Src/NOS_ModBus.c **** 
 188:Core/Src/NOS_LIB_Driver/Src/NOS_ModBus.c ****    if(MB_struct->addressOk && MB_struct->messageLenght == 2)
 576              		.loc 1 188 4 is_stmt 1 view .LVU208
 577              		.loc 1 188 6 is_stmt 0 view .LVU209
 578 005c 1BB1     		cbz	r3, .L31
 579              		.loc 1 188 40 discriminator 1 view .LVU210
 580 005e 90F87E30 		ldrb	r3, [r0, #126]	@ zero_extendqisi2
 581              		.loc 1 188 28 discriminator 1 view .LVU211
 582 0062 022B     		cmp	r3, #2
 583 0064 1BD0     		beq	.L42
 584              	.L31:
 189:Core/Src/NOS_LIB_Driver/Src/NOS_ModBus.c ****    {
 190:Core/Src/NOS_LIB_Driver/Src/NOS_ModBus.c ****       switch (MB_struct->currCommand)
 191:Core/Src/NOS_LIB_Driver/Src/NOS_ModBus.c ****       {
 192:Core/Src/NOS_LIB_Driver/Src/NOS_ModBus.c ****       case 0x03:
 193:Core/Src/NOS_LIB_Driver/Src/NOS_ModBus.c ****          MB_struct->expectedMessageLenght = 7;
 194:Core/Src/NOS_LIB_Driver/Src/NOS_ModBus.c ****          break;
 195:Core/Src/NOS_LIB_Driver/Src/NOS_ModBus.c ****       case 0x06:
 196:Core/Src/NOS_LIB_Driver/Src/NOS_ModBus.c ****          MB_struct->expectedMessageLenght = 7;
 197:Core/Src/NOS_LIB_Driver/Src/NOS_ModBus.c ****          break;
 198:Core/Src/NOS_LIB_Driver/Src/NOS_ModBus.c ****       case 0x10:
 199:Core/Src/NOS_LIB_Driver/Src/NOS_ModBus.c ****          MB_struct->expectedMessageLenght = 13;
 200:Core/Src/NOS_LIB_Driver/Src/NOS_ModBus.c ****          break;  
 201:Core/Src/NOS_LIB_Driver/Src/NOS_ModBus.c ****       
 202:Core/Src/NOS_LIB_Driver/Src/NOS_ModBus.c ****       default:
 203:Core/Src/NOS_LIB_Driver/Src/NOS_ModBus.c ****          break;
 204:Core/Src/NOS_LIB_Driver/Src/NOS_ModBus.c ****       }
 205:Core/Src/NOS_LIB_Driver/Src/NOS_ModBus.c ****    }
 206:Core/Src/NOS_LIB_Driver/Src/NOS_ModBus.c **** 
 207:Core/Src/NOS_LIB_Driver/Src/NOS_ModBus.c ****    if(MB_struct->messageLenght > MB_struct->expectedMessageLenght)
 585              		.loc 1 207 4 is_stmt 1 view .LVU212
 586              		.loc 1 207 16 is_stmt 0 view .LVU213
 587 0066 90F87E20 		ldrb	r2, [r0, #126]	@ zero_extendqisi2
 588              		.loc 1 207 43 view .LVU214
 589 006a 90F88130 		ldrb	r3, [r0, #129]	@ zero_extendqisi2
 590              		.loc 1 207 6 view .LVU215
 591 006e 9A42     		cmp	r2, r3
 592 0070 29D9     		bls	.L34
 208:Core/Src/NOS_LIB_Driver/Src/NOS_ModBus.c ****    {
 209:Core/Src/NOS_LIB_Driver/Src/NOS_ModBus.c ****       rx_buff_ptr = MB_struct->rx_buff;
ARM GAS  C:\Users\user\AppData\Local\Temp\cc7htgA1.s 			page 17


 593              		.loc 1 209 7 is_stmt 1 view .LVU216
 210:Core/Src/NOS_LIB_Driver/Src/NOS_ModBus.c ****       MB_struct->messageLenght = 0;
 594              		.loc 1 210 7 view .LVU217
 595              		.loc 1 210 32 is_stmt 0 view .LVU218
 596 0072 0023     		movs	r3, #0
 597 0074 80F87E30 		strb	r3, [r0, #126]
 211:Core/Src/NOS_LIB_Driver/Src/NOS_ModBus.c ****       MB_struct->addressOk = false;
 598              		.loc 1 211 7 is_stmt 1 view .LVU219
 599              		.loc 1 211 28 is_stmt 0 view .LVU220
 600 0078 80F88230 		strb	r3, [r0, #130]
 212:Core/Src/NOS_LIB_Driver/Src/NOS_ModBus.c ****       MB_struct->state = Free;
 601              		.loc 1 212 7 is_stmt 1 view .LVU221
 602              		.loc 1 212 24 is_stmt 0 view .LVU222
 603 007c 80F87C30 		strb	r3, [r0, #124]
 213:Core/Src/NOS_LIB_Driver/Src/NOS_ModBus.c ****       for(int i = 0; i < MB_struct->expectedMessageLenght; i++)
 604              		.loc 1 213 7 is_stmt 1 view .LVU223
 605              	.LBB3:
 606              		.loc 1 213 11 view .LVU224
 607              	.LVL44:
 608              	.L35:
 609              		.loc 1 213 22 discriminator 1 view .LVU225
 610              		.loc 1 213 35 is_stmt 0 discriminator 1 view .LVU226
 611 0080 90F88120 		ldrb	r2, [r0, #129]	@ zero_extendqisi2
 612              		.loc 1 213 7 discriminator 1 view .LVU227
 613 0084 9A42     		cmp	r2, r3
 614 0086 1EDD     		ble	.L34
 214:Core/Src/NOS_LIB_Driver/Src/NOS_ModBus.c ****       {
 215:Core/Src/NOS_LIB_Driver/Src/NOS_ModBus.c ****          MB_struct->rx_buff[i] = 0;
 615              		.loc 1 215 10 is_stmt 1 discriminator 3 view .LVU228
 616              		.loc 1 215 19 is_stmt 0 discriminator 3 view .LVU229
 617 0088 026F     		ldr	r2, [r0, #112]
 618              		.loc 1 215 32 discriminator 3 view .LVU230
 619 008a 4FF0000C 		mov	ip, #0
 620 008e 02F803C0 		strb	ip, [r2, r3]
 213:Core/Src/NOS_LIB_Driver/Src/NOS_ModBus.c ****       for(int i = 0; i < MB_struct->expectedMessageLenght; i++)
 621              		.loc 1 213 60 is_stmt 1 discriminator 3 view .LVU231
 213:Core/Src/NOS_LIB_Driver/Src/NOS_ModBus.c ****       for(int i = 0; i < MB_struct->expectedMessageLenght; i++)
 622              		.loc 1 213 61 is_stmt 0 discriminator 3 view .LVU232
 623 0092 0133     		adds	r3, r3, #1
 624              	.LVL45:
 213:Core/Src/NOS_LIB_Driver/Src/NOS_ModBus.c ****       for(int i = 0; i < MB_struct->expectedMessageLenght; i++)
 625              		.loc 1 213 61 discriminator 3 view .LVU233
 626 0094 F4E7     		b	.L35
 627              	.LVL46:
 628              	.L41:
 213:Core/Src/NOS_LIB_Driver/Src/NOS_ModBus.c ****       for(int i = 0; i < MB_struct->expectedMessageLenght; i++)
 629              		.loc 1 213 61 discriminator 3 view .LVU234
 630              	.LBE3:
 185:Core/Src/NOS_LIB_Driver/Src/NOS_ModBus.c ****    }
 631              		.loc 1 185 7 is_stmt 1 view .LVU235
 185:Core/Src/NOS_LIB_Driver/Src/NOS_ModBus.c ****    }
 632              		.loc 1 185 32 is_stmt 0 view .LVU236
 633 0096 0A78     		ldrb	r2, [r1]	@ zero_extendqisi2
 185:Core/Src/NOS_LIB_Driver/Src/NOS_ModBus.c ****    }
 634              		.loc 1 185 30 view .LVU237
 635 0098 80F87F20 		strb	r2, [r0, #127]
 636 009c DEE7     		b	.L30
ARM GAS  C:\Users\user\AppData\Local\Temp\cc7htgA1.s 			page 18


 637              	.L42:
 190:Core/Src/NOS_LIB_Driver/Src/NOS_ModBus.c ****       {
 638              		.loc 1 190 7 is_stmt 1 view .LVU238
 190:Core/Src/NOS_LIB_Driver/Src/NOS_ModBus.c ****       {
 639              		.loc 1 190 24 is_stmt 0 view .LVU239
 640 009e 90F87F30 		ldrb	r3, [r0, #127]	@ zero_extendqisi2
 190:Core/Src/NOS_LIB_Driver/Src/NOS_ModBus.c ****       {
 641              		.loc 1 190 7 view .LVU240
 642 00a2 062B     		cmp	r3, #6
 643 00a4 07D0     		beq	.L32
 644 00a6 102B     		cmp	r3, #16
 645 00a8 09D0     		beq	.L33
 646 00aa 032B     		cmp	r3, #3
 647 00ac DBD1     		bne	.L31
 193:Core/Src/NOS_LIB_Driver/Src/NOS_ModBus.c ****          break;
 648              		.loc 1 193 10 is_stmt 1 view .LVU241
 193:Core/Src/NOS_LIB_Driver/Src/NOS_ModBus.c ****          break;
 649              		.loc 1 193 43 is_stmt 0 view .LVU242
 650 00ae 0723     		movs	r3, #7
 651 00b0 80F88130 		strb	r3, [r0, #129]
 194:Core/Src/NOS_LIB_Driver/Src/NOS_ModBus.c ****       case 0x06:
 652              		.loc 1 194 10 is_stmt 1 view .LVU243
 653 00b4 D7E7     		b	.L31
 654              	.L32:
 196:Core/Src/NOS_LIB_Driver/Src/NOS_ModBus.c ****          break;
 655              		.loc 1 196 10 view .LVU244
 196:Core/Src/NOS_LIB_Driver/Src/NOS_ModBus.c ****          break;
 656              		.loc 1 196 43 is_stmt 0 view .LVU245
 657 00b6 0723     		movs	r3, #7
 658 00b8 80F88130 		strb	r3, [r0, #129]
 197:Core/Src/NOS_LIB_Driver/Src/NOS_ModBus.c ****       case 0x10:
 659              		.loc 1 197 10 is_stmt 1 view .LVU246
 660 00bc D3E7     		b	.L31
 661              	.L33:
 199:Core/Src/NOS_LIB_Driver/Src/NOS_ModBus.c ****          break;  
 662              		.loc 1 199 10 view .LVU247
 199:Core/Src/NOS_LIB_Driver/Src/NOS_ModBus.c ****          break;  
 663              		.loc 1 199 43 is_stmt 0 view .LVU248
 664 00be 0D23     		movs	r3, #13
 665 00c0 80F88130 		strb	r3, [r0, #129]
 200:Core/Src/NOS_LIB_Driver/Src/NOS_ModBus.c ****       
 666              		.loc 1 200 10 is_stmt 1 view .LVU249
 667 00c4 CFE7     		b	.L31
 668              	.L34:
 216:Core/Src/NOS_LIB_Driver/Src/NOS_ModBus.c ****       }
 217:Core/Src/NOS_LIB_Driver/Src/NOS_ModBus.c ****    }
 218:Core/Src/NOS_LIB_Driver/Src/NOS_ModBus.c **** 
 219:Core/Src/NOS_LIB_Driver/Src/NOS_ModBus.c ****    if(MB_struct->addressOk && MB_struct->messageLenght == MB_struct->expectedMessageLenght)
 669              		.loc 1 219 4 view .LVU250
 670              		.loc 1 219 16 is_stmt 0 view .LVU251
 671 00c6 90F88230 		ldrb	r3, [r0, #130]	@ zero_extendqisi2
 672              		.loc 1 219 6 view .LVU252
 673 00ca 2BB1     		cbz	r3, .L37
 674              		.loc 1 219 40 discriminator 1 view .LVU253
 675 00cc 90F87E20 		ldrb	r2, [r0, #126]	@ zero_extendqisi2
 676              		.loc 1 219 68 discriminator 1 view .LVU254
 677 00d0 90F88130 		ldrb	r3, [r0, #129]	@ zero_extendqisi2
ARM GAS  C:\Users\user\AppData\Local\Temp\cc7htgA1.s 			page 19


 678              		.loc 1 219 28 discriminator 1 view .LVU255
 679 00d4 9A42     		cmp	r2, r3
 680 00d6 10D0     		beq	.L43
 681              	.L37:
 220:Core/Src/NOS_LIB_Driver/Src/NOS_ModBus.c ****    {
 221:Core/Src/NOS_LIB_Driver/Src/NOS_ModBus.c ****       rx_buff_ptr = MB_struct->rx_buff;
 222:Core/Src/NOS_LIB_Driver/Src/NOS_ModBus.c ****       MB_struct->addressOk = false;
 223:Core/Src/NOS_LIB_Driver/Src/NOS_ModBus.c ****       MB_struct->messageLenght = 0;
 224:Core/Src/NOS_LIB_Driver/Src/NOS_ModBus.c ****       MB_struct->rx_flag = true;
 225:Core/Src/NOS_LIB_Driver/Src/NOS_ModBus.c ****    }
 226:Core/Src/NOS_LIB_Driver/Src/NOS_ModBus.c ****    else
 227:Core/Src/NOS_LIB_Driver/Src/NOS_ModBus.c ****    {
 228:Core/Src/NOS_LIB_Driver/Src/NOS_ModBus.c ****       MB_struct->rx_buff[MB_struct->messageLenght] = *rx_buff_ptr;
 682              		.loc 1 228 7 is_stmt 1 view .LVU256
 683              		.loc 1 228 16 is_stmt 0 view .LVU257
 684 00d8 026F     		ldr	r2, [r0, #112]
 685              		.loc 1 228 35 view .LVU258
 686 00da 90F87E30 		ldrb	r3, [r0, #126]	@ zero_extendqisi2
 687              		.loc 1 228 54 view .LVU259
 688 00de 11F801CB 		ldrb	ip, [r1], #1	@ zero_extendqisi2
 689              	.LVL47:
 690              		.loc 1 228 52 view .LVU260
 691 00e2 02F803C0 		strb	ip, [r2, r3]
 229:Core/Src/NOS_LIB_Driver/Src/NOS_ModBus.c ****       ++rx_buff_ptr;
 692              		.loc 1 229 7 is_stmt 1 view .LVU261
 693              	.LVL48:
 230:Core/Src/NOS_LIB_Driver/Src/NOS_ModBus.c ****       ++MB_struct->messageLenght;
 694              		.loc 1 230 7 view .LVU262
 695              		.loc 1 230 18 is_stmt 0 view .LVU263
 696 00e6 90F87E30 		ldrb	r3, [r0, #126]	@ zero_extendqisi2
 697              		.loc 1 230 7 view .LVU264
 698 00ea 0133     		adds	r3, r3, #1
 699 00ec 80F87E30 		strb	r3, [r0, #126]
 700              	.L38:
 231:Core/Src/NOS_LIB_Driver/Src/NOS_ModBus.c ****    }
 232:Core/Src/NOS_LIB_Driver/Src/NOS_ModBus.c ****    HAL_UART_Receive_IT (MB_struct->huart, rx_buff_ptr, 1); 
 701              		.loc 1 232 4 is_stmt 1 view .LVU265
 702 00f0 0122     		movs	r2, #1
 703 00f2 C06E     		ldr	r0, [r0, #108]
 704              	.LVL49:
 705              		.loc 1 232 4 is_stmt 0 view .LVU266
 706 00f4 FFF7FEFF 		bl	HAL_UART_Receive_IT
 707              	.LVL50:
 233:Core/Src/NOS_LIB_Driver/Src/NOS_ModBus.c **** }
 708              		.loc 1 233 1 view .LVU267
 709 00f8 08BD     		pop	{r3, pc}
 710              	.LVL51:
 711              	.L43:
 221:Core/Src/NOS_LIB_Driver/Src/NOS_ModBus.c ****       MB_struct->addressOk = false;
 712              		.loc 1 221 7 is_stmt 1 view .LVU268
 221:Core/Src/NOS_LIB_Driver/Src/NOS_ModBus.c ****       MB_struct->addressOk = false;
 713              		.loc 1 221 19 is_stmt 0 view .LVU269
 714 00fa 016F     		ldr	r1, [r0, #112]
 715              	.LVL52:
 222:Core/Src/NOS_LIB_Driver/Src/NOS_ModBus.c ****       MB_struct->messageLenght = 0;
 716              		.loc 1 222 7 is_stmt 1 view .LVU270
 222:Core/Src/NOS_LIB_Driver/Src/NOS_ModBus.c ****       MB_struct->messageLenght = 0;
ARM GAS  C:\Users\user\AppData\Local\Temp\cc7htgA1.s 			page 20


 717              		.loc 1 222 28 is_stmt 0 view .LVU271
 718 00fc 0023     		movs	r3, #0
 719 00fe 80F88230 		strb	r3, [r0, #130]
 223:Core/Src/NOS_LIB_Driver/Src/NOS_ModBus.c ****       MB_struct->rx_flag = true;
 720              		.loc 1 223 7 is_stmt 1 view .LVU272
 223:Core/Src/NOS_LIB_Driver/Src/NOS_ModBus.c ****       MB_struct->rx_flag = true;
 721              		.loc 1 223 32 is_stmt 0 view .LVU273
 722 0102 80F87E30 		strb	r3, [r0, #126]
 224:Core/Src/NOS_LIB_Driver/Src/NOS_ModBus.c ****    }
 723              		.loc 1 224 7 is_stmt 1 view .LVU274
 224:Core/Src/NOS_LIB_Driver/Src/NOS_ModBus.c ****    }
 724              		.loc 1 224 26 is_stmt 0 view .LVU275
 725 0106 0123     		movs	r3, #1
 726 0108 80F88330 		strb	r3, [r0, #131]
 727 010c F0E7     		b	.L38
 728              		.cfi_endproc
 729              	.LFE136:
 731              		.section	.text.NOS_ModBus_InitStruct,"ax",%progbits
 732              		.align	1
 733              		.global	NOS_ModBus_InitStruct
 734              		.syntax unified
 735              		.thumb
 736              		.thumb_func
 737              		.fpu fpv4-sp-d16
 739              	NOS_ModBus_InitStruct:
 740              	.LVL53:
 741              	.LFB137:
 234:Core/Src/NOS_LIB_Driver/Src/NOS_ModBus.c **** 
 235:Core/Src/NOS_LIB_Driver/Src/NOS_ModBus.c **** void NOS_ModBus_InitStruct(ModBus_Struct* mb,UART_HandleTypeDef* huart,uint8_t* _buff,GPIO_PIN pin)
 236:Core/Src/NOS_LIB_Driver/Src/NOS_ModBus.c **** {
 742              		.loc 1 236 1 is_stmt 1 view -0
 743              		.cfi_startproc
 744              		@ args = 12, pretend = 8, frame = 0
 745              		@ frame_needed = 0, uses_anonymous_args = 0
 746              		@ link register save eliminated.
 747              		.loc 1 236 1 is_stmt 0 view .LVU277
 748 0000 82B0     		sub	sp, sp, #8
 749              	.LCFI3:
 750              		.cfi_def_cfa_offset 8
 751 0002 EC46     		mov	ip, sp
 752 0004 4CF8043F 		str	r3, [ip, #4]!
 237:Core/Src/NOS_LIB_Driver/Src/NOS_ModBus.c ****    mb->huart = huart;
 753              		.loc 1 237 4 is_stmt 1 view .LVU278
 754              		.loc 1 237 14 is_stmt 0 view .LVU279
 755 0008 C166     		str	r1, [r0, #108]
 238:Core/Src/NOS_LIB_Driver/Src/NOS_ModBus.c ****    mb->rx_buff = _buff;
 756              		.loc 1 238 4 is_stmt 1 view .LVU280
 757              		.loc 1 238 16 is_stmt 0 view .LVU281
 758 000a 0267     		str	r2, [r0, #112]
 239:Core/Src/NOS_LIB_Driver/Src/NOS_ModBus.c ****    mb->RW = pin;
 759              		.loc 1 239 4 is_stmt 1 view .LVU282
 760              		.loc 1 239 11 is_stmt 0 view .LVU283
 761 000c 00F17403 		add	r3, r0, #116
 762 0010 9CE80300 		ldm	ip, {r0, r1}
 763              	.LVL54:
 764              		.loc 1 239 11 view .LVU284
 765 0014 83E80300 		stm	r3, {r0, r1}
ARM GAS  C:\Users\user\AppData\Local\Temp\cc7htgA1.s 			page 21


 240:Core/Src/NOS_LIB_Driver/Src/NOS_ModBus.c **** }
 766              		.loc 1 240 1 view .LVU285
 767 0018 02B0     		add	sp, sp, #8
 768              	.LCFI4:
 769              		.cfi_def_cfa_offset 0
 770 001a 7047     		bx	lr
 771              		.cfi_endproc
 772              	.LFE137:
 774              		.section	.text.NOS_ModBus_AddDevice,"ax",%progbits
 775              		.align	1
 776              		.global	NOS_ModBus_AddDevice
 777              		.syntax unified
 778              		.thumb
 779              		.thumb_func
 780              		.fpu fpv4-sp-d16
 782              	NOS_ModBus_AddDevice:
 783              	.LVL55:
 784              	.LFB138:
 241:Core/Src/NOS_LIB_Driver/Src/NOS_ModBus.c **** 
 242:Core/Src/NOS_LIB_Driver/Src/NOS_ModBus.c **** void NOS_ModBus_AddDevice(ModBus_Struct* mb,Modbus_Device* device)
 243:Core/Src/NOS_LIB_Driver/Src/NOS_ModBus.c **** {
 785              		.loc 1 243 1 is_stmt 1 view -0
 786              		.cfi_startproc
 787              		@ args = 0, pretend = 0, frame = 0
 788              		@ frame_needed = 0, uses_anonymous_args = 0
 789              		@ link register save eliminated.
 244:Core/Src/NOS_LIB_Driver/Src/NOS_ModBus.c ****    if(mb->devicesCount < 10)
 790              		.loc 1 244 4 view .LVU287
 791              		.loc 1 244 9 is_stmt 0 view .LVU288
 792 0000 90F87D30 		ldrb	r3, [r0, #125]	@ zero_extendqisi2
 793              		.loc 1 244 6 view .LVU289
 794 0004 092B     		cmp	r3, #9
 795 0006 14D8     		bhi	.L49
 243:Core/Src/NOS_LIB_Driver/Src/NOS_ModBus.c ****    if(mb->devicesCount < 10)
 796              		.loc 1 243 1 view .LVU290
 797 0008 10B4     		push	{r4}
 798              	.LCFI5:
 799              		.cfi_def_cfa_offset 4
 800              		.cfi_offset 4, -4
 245:Core/Src/NOS_LIB_Driver/Src/NOS_ModBus.c ****    {
 246:Core/Src/NOS_LIB_Driver/Src/NOS_ModBus.c ****       mb->devices[mb->devicesCount].Addr = device->Addr;
 801              		.loc 1 246 7 is_stmt 1 view .LVU291
 802              		.loc 1 246 50 is_stmt 0 view .LVU292
 803 000a 91F801C0 		ldrb	ip, [r1, #1]	@ zero_extendqisi2
 804              		.loc 1 246 42 view .LVU293
 805 000e 00EBC302 		add	r2, r0, r3, lsl #3
 806 0012 82F801C0 		strb	ip, [r2, #1]
 247:Core/Src/NOS_LIB_Driver/Src/NOS_ModBus.c ****       mb->devices[mb->devicesCount].Descriptor = device->Descriptor;
 807              		.loc 1 247 7 is_stmt 1 view .LVU294
 808              		.loc 1 247 56 is_stmt 0 view .LVU295
 809 0016 91F800C0 		ldrb	ip, [r1]	@ zero_extendqisi2
 810              		.loc 1 247 48 view .LVU296
 811 001a 00F833C0 		strb	ip, [r0, r3, lsl #3]
 248:Core/Src/NOS_LIB_Driver/Src/NOS_ModBus.c ****       mb->devices[mb->devicesCount].RegisterAddress = device->RegisterAddress;
 812              		.loc 1 248 7 is_stmt 1 view .LVU297
 813              		.loc 1 248 53 is_stmt 0 view .LVU298
 814 001e 4C68     		ldr	r4, [r1, #4]
ARM GAS  C:\Users\user\AppData\Local\Temp\cc7htgA1.s 			page 22


 815 0020 5460     		str	r4, [r2, #4]
 249:Core/Src/NOS_LIB_Driver/Src/NOS_ModBus.c ****       mb->devices[mb->devicesCount].RegisterCount = device->RegisterCount;
 816              		.loc 1 249 7 is_stmt 1 view .LVU299
 817              		.loc 1 249 59 is_stmt 0 view .LVU300
 818 0022 8978     		ldrb	r1, [r1, #2]	@ zero_extendqisi2
 819              	.LVL56:
 820              		.loc 1 249 51 view .LVU301
 821 0024 9170     		strb	r1, [r2, #2]
 250:Core/Src/NOS_LIB_Driver/Src/NOS_ModBus.c ****       mb->devicesCount++;
 822              		.loc 1 250 7 is_stmt 1 view .LVU302
 823              		.loc 1 250 23 is_stmt 0 view .LVU303
 824 0026 0133     		adds	r3, r3, #1
 825 0028 80F87D30 		strb	r3, [r0, #125]
 251:Core/Src/NOS_LIB_Driver/Src/NOS_ModBus.c ****    }
 252:Core/Src/NOS_LIB_Driver/Src/NOS_ModBus.c ****    else 
 253:Core/Src/NOS_LIB_Driver/Src/NOS_ModBus.c ****    {
 254:Core/Src/NOS_LIB_Driver/Src/NOS_ModBus.c ****       //NOS_Error_Handler("ModBus Device out of range");
 255:Core/Src/NOS_LIB_Driver/Src/NOS_ModBus.c ****    }
 826              		.loc 1 255 4 is_stmt 1 view .LVU304
 256:Core/Src/NOS_LIB_Driver/Src/NOS_ModBus.c **** }
 827              		.loc 1 256 1 is_stmt 0 view .LVU305
 828 002c 5DF8044B 		ldr	r4, [sp], #4
 829              	.LCFI6:
 830              		.cfi_restore 4
 831              		.cfi_def_cfa_offset 0
 832 0030 7047     		bx	lr
 833              	.LVL57:
 834              	.L49:
 835              		.loc 1 256 1 view .LVU306
 836 0032 7047     		bx	lr
 837              		.cfi_endproc
 838              	.LFE138:
 840              		.section	.text.NOS_ModBus_DeleteDevice,"ax",%progbits
 841              		.align	1
 842              		.global	NOS_ModBus_DeleteDevice
 843              		.syntax unified
 844              		.thumb
 845              		.thumb_func
 846              		.fpu fpv4-sp-d16
 848              	NOS_ModBus_DeleteDevice:
 849              	.LVL58:
 850              	.LFB139:
 257:Core/Src/NOS_LIB_Driver/Src/NOS_ModBus.c **** 
 258:Core/Src/NOS_LIB_Driver/Src/NOS_ModBus.c **** void NOS_ModBus_DeleteDevice(ModBus_Struct* mb,uint8_t pos)
 259:Core/Src/NOS_LIB_Driver/Src/NOS_ModBus.c **** {
 851              		.loc 1 259 1 is_stmt 1 view -0
 852              		.cfi_startproc
 853              		@ args = 0, pretend = 0, frame = 0
 854              		@ frame_needed = 0, uses_anonymous_args = 0
 855              		@ link register save eliminated.
 260:Core/Src/NOS_LIB_Driver/Src/NOS_ModBus.c ****    for(int i = pos - 1; i < mb->devicesCount - 1; i++)
 856              		.loc 1 260 4 view .LVU308
 857              	.LBB4:
 858              		.loc 1 260 8 view .LVU309
 859              		.loc 1 260 12 is_stmt 0 view .LVU310
 860 0000 0139     		subs	r1, r1, #1
 861              	.LVL59:
ARM GAS  C:\Users\user\AppData\Local\Temp\cc7htgA1.s 			page 23


 862              		.loc 1 260 25 is_stmt 1 view .LVU311
 863              		.loc 1 260 31 is_stmt 0 view .LVU312
 864 0002 90F87D30 		ldrb	r3, [r0, #125]	@ zero_extendqisi2
 865              		.loc 1 260 46 view .LVU313
 866 0006 5A1E     		subs	r2, r3, #1
 867              		.loc 1 260 4 view .LVU314
 868 0008 8A42     		cmp	r2, r1
 869 000a 18DD     		ble	.L59
 870              	.LBE4:
 259:Core/Src/NOS_LIB_Driver/Src/NOS_ModBus.c ****    for(int i = pos - 1; i < mb->devicesCount - 1; i++)
 871              		.loc 1 259 1 view .LVU315
 872 000c 10B4     		push	{r4}
 873              	.LCFI7:
 874              		.cfi_def_cfa_offset 4
 875              		.cfi_offset 4, -4
 876              	.L54:
 877              	.LBB5:
 261:Core/Src/NOS_LIB_Driver/Src/NOS_ModBus.c ****    {
 262:Core/Src/NOS_LIB_Driver/Src/NOS_ModBus.c ****       mb->devices[i].Addr = mb->devices[i + 1].Addr;
 878              		.loc 1 262 7 is_stmt 1 discriminator 3 view .LVU316
 879              		.loc 1 262 43 is_stmt 0 discriminator 3 view .LVU317
 880 000e 4A1C     		adds	r2, r1, #1
 881              		.loc 1 262 47 discriminator 3 view .LVU318
 882 0010 00EBC203 		add	r3, r0, r2, lsl #3
 883 0014 93F801C0 		ldrb	ip, [r3, #1]	@ zero_extendqisi2
 884              		.loc 1 262 27 discriminator 3 view .LVU319
 885 0018 00EBC101 		add	r1, r0, r1, lsl #3
 886              	.LVL60:
 887              		.loc 1 262 27 discriminator 3 view .LVU320
 888 001c 81F801C0 		strb	ip, [r1, #1]
 263:Core/Src/NOS_LIB_Driver/Src/NOS_ModBus.c ****       mb->devices[i].RegisterAddress = mb->devices[i + 1].RegisterAddress;
 889              		.loc 1 263 7 is_stmt 1 discriminator 3 view .LVU321
 890              		.loc 1 263 38 is_stmt 0 discriminator 3 view .LVU322
 891 0020 5C68     		ldr	r4, [r3, #4]
 892 0022 4C60     		str	r4, [r1, #4]
 264:Core/Src/NOS_LIB_Driver/Src/NOS_ModBus.c ****       mb->devices[i].RegisterCount = mb->devices[i + 1].RegisterCount;
 893              		.loc 1 264 7 is_stmt 1 discriminator 3 view .LVU323
 894              		.loc 1 264 56 is_stmt 0 discriminator 3 view .LVU324
 895 0024 9B78     		ldrb	r3, [r3, #2]	@ zero_extendqisi2
 896              		.loc 1 264 36 discriminator 3 view .LVU325
 897 0026 8B70     		strb	r3, [r1, #2]
 260:Core/Src/NOS_LIB_Driver/Src/NOS_ModBus.c ****    {
 898              		.loc 1 260 51 is_stmt 1 discriminator 3 view .LVU326
 899              	.LVL61:
 260:Core/Src/NOS_LIB_Driver/Src/NOS_ModBus.c ****    {
 900              		.loc 1 260 52 is_stmt 0 discriminator 3 view .LVU327
 901 0028 1146     		mov	r1, r2
 260:Core/Src/NOS_LIB_Driver/Src/NOS_ModBus.c ****    {
 902              		.loc 1 260 25 is_stmt 1 discriminator 3 view .LVU328
 260:Core/Src/NOS_LIB_Driver/Src/NOS_ModBus.c ****    {
 903              		.loc 1 260 31 is_stmt 0 discriminator 3 view .LVU329
 904 002a 90F87D30 		ldrb	r3, [r0, #125]	@ zero_extendqisi2
 260:Core/Src/NOS_LIB_Driver/Src/NOS_ModBus.c ****    {
 905              		.loc 1 260 46 discriminator 3 view .LVU330
 906 002e 5A1E     		subs	r2, r3, #1
 907              	.LVL62:
 260:Core/Src/NOS_LIB_Driver/Src/NOS_ModBus.c ****    {
ARM GAS  C:\Users\user\AppData\Local\Temp\cc7htgA1.s 			page 24


 908              		.loc 1 260 4 discriminator 3 view .LVU331
 909 0030 8A42     		cmp	r2, r1
 910 0032 ECDC     		bgt	.L54
 911              	.LBE5:
 265:Core/Src/NOS_LIB_Driver/Src/NOS_ModBus.c ****    }
 266:Core/Src/NOS_LIB_Driver/Src/NOS_ModBus.c ****    mb->devicesCount--;
 912              		.loc 1 266 4 is_stmt 1 view .LVU332
 913              		.loc 1 266 20 is_stmt 0 view .LVU333
 914 0034 80F87D20 		strb	r2, [r0, #125]
 267:Core/Src/NOS_LIB_Driver/Src/NOS_ModBus.c **** }
 915              		.loc 1 267 1 view .LVU334
 916 0038 5DF8044B 		ldr	r4, [sp], #4
 917              	.LCFI8:
 918              		.cfi_restore 4
 919              		.cfi_def_cfa_offset 0
 920 003c 7047     		bx	lr
 921              	.L59:
 266:Core/Src/NOS_LIB_Driver/Src/NOS_ModBus.c **** }
 922              		.loc 1 266 4 is_stmt 1 view .LVU335
 266:Core/Src/NOS_LIB_Driver/Src/NOS_ModBus.c **** }
 923              		.loc 1 266 20 is_stmt 0 view .LVU336
 924 003e 80F87D20 		strb	r2, [r0, #125]
 925 0042 7047     		bx	lr
 926              		.cfi_endproc
 927              	.LFE139:
 929              		.section	.text.NOS_ModBus_DeviceAddRegisterAddress,"ax",%progbits
 930              		.align	1
 931              		.global	NOS_ModBus_DeviceAddRegisterAddress
 932              		.syntax unified
 933              		.thumb
 934              		.thumb_func
 935              		.fpu fpv4-sp-d16
 937              	NOS_ModBus_DeviceAddRegisterAddress:
 938              	.LVL63:
 939              	.LFB140:
 268:Core/Src/NOS_LIB_Driver/Src/NOS_ModBus.c **** 
 269:Core/Src/NOS_LIB_Driver/Src/NOS_ModBus.c **** //void NOS_ModBus_InitDevice(Modbus_Device* md,uint8_t _addr)
 270:Core/Src/NOS_LIB_Driver/Src/NOS_ModBus.c **** //{
 271:Core/Src/NOS_LIB_Driver/Src/NOS_ModBus.c **** //   md->Addr = _addr;
 272:Core/Src/NOS_LIB_Driver/Src/NOS_ModBus.c **** //}
 273:Core/Src/NOS_LIB_Driver/Src/NOS_ModBus.c **** 
 274:Core/Src/NOS_LIB_Driver/Src/NOS_ModBus.c **** void NOS_ModBus_DeviceAddRegisterAddress(Modbus_Device* mb,uint16_t rAddr)
 275:Core/Src/NOS_LIB_Driver/Src/NOS_ModBus.c **** {
 940              		.loc 1 275 1 is_stmt 1 view -0
 941              		.cfi_startproc
 942              		@ args = 0, pretend = 0, frame = 0
 943              		@ frame_needed = 0, uses_anonymous_args = 0
 944              		@ link register save eliminated.
 276:Core/Src/NOS_LIB_Driver/Src/NOS_ModBus.c **** 
 277:Core/Src/NOS_LIB_Driver/Src/NOS_ModBus.c **** }...
 945              		.loc 1 277 1 view .LVU338
 946 0000 7047     		bx	lr
 947              		.cfi_endproc
 948              	.LFE140:
 950              		.section	.rodata.wCRCTable.0,"a"
 951              		.align	2
 952              		.set	.LANCHOR0,. + 0
ARM GAS  C:\Users\user\AppData\Local\Temp\cc7htgA1.s 			page 25


 955              	wCRCTable.0:
 956 0000 0000     		.short	0
 957 0002 C1C0     		.short	-16191
 958 0004 81C1     		.short	-15999
 959 0006 4001     		.short	320
 960 0008 01C3     		.short	-15615
 961 000a C003     		.short	960
 962 000c 8002     		.short	640
 963 000e 41C2     		.short	-15807
 964 0010 01C6     		.short	-14847
 965 0012 C006     		.short	1728
 966 0014 8007     		.short	1920
 967 0016 41C7     		.short	-14527
 968 0018 0005     		.short	1280
 969 001a C1C5     		.short	-14911
 970 001c 81C4     		.short	-15231
 971 001e 4004     		.short	1088
 972 0020 01CC     		.short	-13311
 973 0022 C00C     		.short	3264
 974 0024 800D     		.short	3456
 975 0026 41CD     		.short	-12991
 976 0028 000F     		.short	3840
 977 002a C1CF     		.short	-12351
 978 002c 81CE     		.short	-12671
 979 002e 400E     		.short	3648
 980 0030 000A     		.short	2560
 981 0032 C1CA     		.short	-13631
 982 0034 81CB     		.short	-13439
 983 0036 400B     		.short	2880
 984 0038 01C9     		.short	-14079
 985 003a C009     		.short	2496
 986 003c 8008     		.short	2176
 987 003e 41C8     		.short	-14271
 988 0040 01D8     		.short	-10239
 989 0042 C018     		.short	6336
 990 0044 8019     		.short	6528
 991 0046 41D9     		.short	-9919
 992 0048 001B     		.short	6912
 993 004a C1DB     		.short	-9279
 994 004c 81DA     		.short	-9599
 995 004e 401A     		.short	6720
 996 0050 001E     		.short	7680
 997 0052 C1DE     		.short	-8511
 998 0054 81DF     		.short	-8319
 999 0056 401F     		.short	8000
 1000 0058 01DD     		.short	-8959
 1001 005a C01D     		.short	7616
 1002 005c 801C     		.short	7296
 1003 005e 41DC     		.short	-9151
 1004 0060 0014     		.short	5120
 1005 0062 C1D4     		.short	-11071
 1006 0064 81D5     		.short	-10879
 1007 0066 4015     		.short	5440
 1008 0068 01D7     		.short	-10495
 1009 006a C017     		.short	6080
 1010 006c 8016     		.short	5760
 1011 006e 41D6     		.short	-10687
ARM GAS  C:\Users\user\AppData\Local\Temp\cc7htgA1.s 			page 26


 1012 0070 01D2     		.short	-11775
 1013 0072 C012     		.short	4800
 1014 0074 8013     		.short	4992
 1015 0076 41D3     		.short	-11455
 1016 0078 0011     		.short	4352
 1017 007a C1D1     		.short	-11839
 1018 007c 81D0     		.short	-12159
 1019 007e 4010     		.short	4160
 1020 0080 01F0     		.short	-4095
 1021 0082 C030     		.short	12480
 1022 0084 8031     		.short	12672
 1023 0086 41F1     		.short	-3775
 1024 0088 0033     		.short	13056
 1025 008a C1F3     		.short	-3135
 1026 008c 81F2     		.short	-3455
 1027 008e 4032     		.short	12864
 1028 0090 0036     		.short	13824
 1029 0092 C1F6     		.short	-2367
 1030 0094 81F7     		.short	-2175
 1031 0096 4037     		.short	14144
 1032 0098 01F5     		.short	-2815
 1033 009a C035     		.short	13760
 1034 009c 8034     		.short	13440
 1035 009e 41F4     		.short	-3007
 1036 00a0 003C     		.short	15360
 1037 00a2 C1FC     		.short	-831
 1038 00a4 81FD     		.short	-639
 1039 00a6 403D     		.short	15680
 1040 00a8 01FF     		.short	-255
 1041 00aa C03F     		.short	16320
 1042 00ac 803E     		.short	16000
 1043 00ae 41FE     		.short	-447
 1044 00b0 01FA     		.short	-1535
 1045 00b2 C03A     		.short	15040
 1046 00b4 803B     		.short	15232
 1047 00b6 41FB     		.short	-1215
 1048 00b8 0039     		.short	14592
 1049 00ba C1F9     		.short	-1599
 1050 00bc 81F8     		.short	-1919
 1051 00be 4038     		.short	14400
 1052 00c0 0028     		.short	10240
 1053 00c2 C1E8     		.short	-5951
 1054 00c4 81E9     		.short	-5759
 1055 00c6 4029     		.short	10560
 1056 00c8 01EB     		.short	-5375
 1057 00ca C02B     		.short	11200
 1058 00cc 802A     		.short	10880
 1059 00ce 41EA     		.short	-5567
 1060 00d0 01EE     		.short	-4607
 1061 00d2 C02E     		.short	11968
 1062 00d4 802F     		.short	12160
 1063 00d6 41EF     		.short	-4287
 1064 00d8 002D     		.short	11520
 1065 00da C1ED     		.short	-4671
 1066 00dc 81EC     		.short	-4991
 1067 00de 402C     		.short	11328
 1068 00e0 01E4     		.short	-7167
ARM GAS  C:\Users\user\AppData\Local\Temp\cc7htgA1.s 			page 27


 1069 00e2 C024     		.short	9408
 1070 00e4 8025     		.short	9600
 1071 00e6 41E5     		.short	-6847
 1072 00e8 0027     		.short	9984
 1073 00ea C1E7     		.short	-6207
 1074 00ec 81E6     		.short	-6527
 1075 00ee 4026     		.short	9792
 1076 00f0 0022     		.short	8704
 1077 00f2 C1E2     		.short	-7487
 1078 00f4 81E3     		.short	-7295
 1079 00f6 4023     		.short	9024
 1080 00f8 01E1     		.short	-7935
 1081 00fa C021     		.short	8640
 1082 00fc 8020     		.short	8320
 1083 00fe 41E0     		.short	-8127
 1084 0100 01A0     		.short	-24575
 1085 0102 C060     		.short	24768
 1086 0104 8061     		.short	24960
 1087 0106 41A1     		.short	-24255
 1088 0108 0063     		.short	25344
 1089 010a C1A3     		.short	-23615
 1090 010c 81A2     		.short	-23935
 1091 010e 4062     		.short	25152
 1092 0110 0066     		.short	26112
 1093 0112 C1A6     		.short	-22847
 1094 0114 81A7     		.short	-22655
 1095 0116 4067     		.short	26432
 1096 0118 01A5     		.short	-23295
 1097 011a C065     		.short	26048
 1098 011c 8064     		.short	25728
 1099 011e 41A4     		.short	-23487
 1100 0120 006C     		.short	27648
 1101 0122 C1AC     		.short	-21311
 1102 0124 81AD     		.short	-21119
 1103 0126 406D     		.short	27968
 1104 0128 01AF     		.short	-20735
 1105 012a C06F     		.short	28608
 1106 012c 806E     		.short	28288
 1107 012e 41AE     		.short	-20927
 1108 0130 01AA     		.short	-22015
 1109 0132 C06A     		.short	27328
 1110 0134 806B     		.short	27520
 1111 0136 41AB     		.short	-21695
 1112 0138 0069     		.short	26880
 1113 013a C1A9     		.short	-22079
 1114 013c 81A8     		.short	-22399
 1115 013e 4068     		.short	26688
 1116 0140 0078     		.short	30720
 1117 0142 C1B8     		.short	-18239
 1118 0144 81B9     		.short	-18047
 1119 0146 4079     		.short	31040
 1120 0148 01BB     		.short	-17663
 1121 014a C07B     		.short	31680
 1122 014c 807A     		.short	31360
 1123 014e 41BA     		.short	-17855
 1124 0150 01BE     		.short	-16895
 1125 0152 C07E     		.short	32448
ARM GAS  C:\Users\user\AppData\Local\Temp\cc7htgA1.s 			page 28


 1126 0154 807F     		.short	32640
 1127 0156 41BF     		.short	-16575
 1128 0158 007D     		.short	32000
 1129 015a C1BD     		.short	-16959
 1130 015c 81BC     		.short	-17279
 1131 015e 407C     		.short	31808
 1132 0160 01B4     		.short	-19455
 1133 0162 C074     		.short	29888
 1134 0164 8075     		.short	30080
 1135 0166 41B5     		.short	-19135
 1136 0168 0077     		.short	30464
 1137 016a C1B7     		.short	-18495
 1138 016c 81B6     		.short	-18815
 1139 016e 4076     		.short	30272
 1140 0170 0072     		.short	29184
 1141 0172 C1B2     		.short	-19775
 1142 0174 81B3     		.short	-19583
 1143 0176 4073     		.short	29504
 1144 0178 01B1     		.short	-20223
 1145 017a C071     		.short	29120
 1146 017c 8070     		.short	28800
 1147 017e 41B0     		.short	-20415
 1148 0180 0050     		.short	20480
 1149 0182 C190     		.short	-28479
 1150 0184 8191     		.short	-28287
 1151 0186 4051     		.short	20800
 1152 0188 0193     		.short	-27903
 1153 018a C053     		.short	21440
 1154 018c 8052     		.short	21120
 1155 018e 4192     		.short	-28095
 1156 0190 0196     		.short	-27135
 1157 0192 C056     		.short	22208
 1158 0194 8057     		.short	22400
 1159 0196 4197     		.short	-26815
 1160 0198 0055     		.short	21760
 1161 019a C195     		.short	-27199
 1162 019c 8194     		.short	-27519
 1163 019e 4054     		.short	21568
 1164 01a0 019C     		.short	-25599
 1165 01a2 C05C     		.short	23744
 1166 01a4 805D     		.short	23936
 1167 01a6 419D     		.short	-25279
 1168 01a8 005F     		.short	24320
 1169 01aa C19F     		.short	-24639
 1170 01ac 819E     		.short	-24959
 1171 01ae 405E     		.short	24128
 1172 01b0 005A     		.short	23040
 1173 01b2 C19A     		.short	-25919
 1174 01b4 819B     		.short	-25727
 1175 01b6 405B     		.short	23360
 1176 01b8 0199     		.short	-26367
 1177 01ba C059     		.short	22976
 1178 01bc 8058     		.short	22656
 1179 01be 4198     		.short	-26559
 1180 01c0 0188     		.short	-30719
 1181 01c2 C048     		.short	18624
 1182 01c4 8049     		.short	18816
ARM GAS  C:\Users\user\AppData\Local\Temp\cc7htgA1.s 			page 29


 1183 01c6 4189     		.short	-30399
 1184 01c8 004B     		.short	19200
 1185 01ca C18B     		.short	-29759
 1186 01cc 818A     		.short	-30079
 1187 01ce 404A     		.short	19008
 1188 01d0 004E     		.short	19968
 1189 01d2 C18E     		.short	-28991
 1190 01d4 818F     		.short	-28799
 1191 01d6 404F     		.short	20288
 1192 01d8 018D     		.short	-29439
 1193 01da C04D     		.short	19904
 1194 01dc 804C     		.short	19584
 1195 01de 418C     		.short	-29631
 1196 01e0 0044     		.short	17408
 1197 01e2 C184     		.short	-31551
 1198 01e4 8185     		.short	-31359
 1199 01e6 4045     		.short	17728
 1200 01e8 0187     		.short	-30975
 1201 01ea C047     		.short	18368
 1202 01ec 8046     		.short	18048
 1203 01ee 4186     		.short	-31167
 1204 01f0 0182     		.short	-32255
 1205 01f2 C042     		.short	17088
 1206 01f4 8043     		.short	17280
 1207 01f6 4183     		.short	-31935
 1208 01f8 0041     		.short	16640
 1209 01fa C181     		.short	-32319
 1210 01fc 8180     		.short	-32639
 1211 01fe 4040     		.short	16448
 1212              		.text
 1213              	.Letext0:
 1214              		.file 2 "c:\\users\\user\\appdata\\roaming\\code\\user\\globalstorage\\bmd.stm32-for-vscode\\@xpac
 1215              		.file 3 "c:\\users\\user\\appdata\\roaming\\code\\user\\globalstorage\\bmd.stm32-for-vscode\\@xpac
 1216              		.file 4 "Drivers/CMSIS/Device/ST/STM32F4xx/Include/stm32f407xx.h"
 1217              		.file 5 "Drivers/STM32F4xx_HAL_Driver/Inc/stm32f4xx_hal_def.h"
 1218              		.file 6 "Drivers/STM32F4xx_HAL_Driver/Inc/stm32f4xx_hal_dma.h"
 1219              		.file 7 "Drivers/STM32F4xx_HAL_Driver/Inc/stm32f4xx_hal_uart.h"
 1220              		.file 8 "Core/Src/NOS_LIB_Driver/Inc/NOS_Typedefs.h"
ARM GAS  C:\Users\user\AppData\Local\Temp\cc7htgA1.s 			page 30

