ARM GAS  C:\Users\user\AppData\Local\Temp\ccrAJRWE.s 			page 1


   1              		.cpu cortex-m4
   2              		.eabi_attribute 27, 1
   3              		.eabi_attribute 28, 1
   4              		.eabi_attribute 20, 1
   5              		.eabi_attribute 21, 1
   6              		.eabi_attribute 23, 3
   7              		.eabi_attribute 24, 1
   8              		.eabi_attribute 25, 1
   9              		.eabi_attribute 26, 1
  10              		.eabi_attribute 30, 1
  11              		.eabi_attribute 34, 1
  12              		.eabi_attribute 18, 4
  13              		.file	"WS2812B.c"
  14              		.text
  15              	.Ltext0:
  16              		.cfi_sections	.debug_frame
  17              		.section	.text.NOS_WS2812B_Matrix_Init,"ax",%progbits
  18              		.align	1
  19              		.global	NOS_WS2812B_Matrix_Init
  20              		.arch armv7e-m
  21              		.syntax unified
  22              		.thumb
  23              		.thumb_func
  24              		.fpu fpv4-sp-d16
  26              	NOS_WS2812B_Matrix_Init:
  27              	.LVL0:
  28              	.LFB0:
  29              		.file 1 "Core/Src/NOS_LIB_Driver/Src/WS2812B.c"
   1:Core/Src/NOS_LIB_Driver/Src/WS2812B.c **** #include "WS2812B.h"
   2:Core/Src/NOS_LIB_Driver/Src/WS2812B.c **** #include "CharLib(7x5).h"
   3:Core/Src/NOS_LIB_Driver/Src/WS2812B.c **** #include <stdbool.h>
   4:Core/Src/NOS_LIB_Driver/Src/WS2812B.c **** #include "NOS_Math.h"
   5:Core/Src/NOS_LIB_Driver/Src/WS2812B.c **** 
   6:Core/Src/NOS_LIB_Driver/Src/WS2812B.c **** void NOS_WS2812B_Matrix_Init(WS2812B_Matrix* matrix,uint8_t* buff,uint16_t ledsCount)
   7:Core/Src/NOS_LIB_Driver/Src/WS2812B.c **** {
  30              		.loc 1 7 1 view -0
  31              		.cfi_startproc
  32              		@ args = 0, pretend = 0, frame = 0
  33              		@ frame_needed = 0, uses_anonymous_args = 0
  34              		@ link register save eliminated.
   8:Core/Src/NOS_LIB_Driver/Src/WS2812B.c ****      matrix->buffer = buff;
  35              		.loc 1 8 6 view .LVU1
  36              		.loc 1 8 21 is_stmt 0 view .LVU2
  37 0000 0160     		str	r1, [r0]
   9:Core/Src/NOS_LIB_Driver/Src/WS2812B.c ****      matrix->ledsCount.data = ledsCount;
  38              		.loc 1 9 6 is_stmt 1 view .LVU3
  39              		.loc 1 9 29 is_stmt 0 view .LVU4
  40 0002 8280     		strh	r2, [r0, #4]	@ movhi
  10:Core/Src/NOS_LIB_Driver/Src/WS2812B.c **** }
  41              		.loc 1 10 1 view .LVU5
  42 0004 7047     		bx	lr
  43              		.cfi_endproc
  44              	.LFE0:
  46              		.section	.text.NOS_WS2812B_Matrix_SetPixel,"ax",%progbits
  47              		.align	1
  48              		.global	NOS_WS2812B_Matrix_SetPixel
  49              		.syntax unified
ARM GAS  C:\Users\user\AppData\Local\Temp\ccrAJRWE.s 			page 2


  50              		.thumb
  51              		.thumb_func
  52              		.fpu fpv4-sp-d16
  54              	NOS_WS2812B_Matrix_SetPixel:
  55              	.LVL1:
  56              	.LFB1:
  11:Core/Src/NOS_LIB_Driver/Src/WS2812B.c **** 
  12:Core/Src/NOS_LIB_Driver/Src/WS2812B.c **** void NOS_WS2812B_Matrix_SetPixel(WS2812B_Matrix* matrix,PixelColor* color,uint16_t pixelPos)
  13:Core/Src/NOS_LIB_Driver/Src/WS2812B.c **** {
  57              		.loc 1 13 1 is_stmt 1 view -0
  58              		.cfi_startproc
  59              		@ args = 0, pretend = 0, frame = 0
  60              		@ frame_needed = 0, uses_anonymous_args = 0
  61              		@ link register save eliminated.
  62              		.loc 1 13 1 is_stmt 0 view .LVU7
  63 0000 10B4     		push	{r4}
  64              	.LCFI0:
  65              		.cfi_def_cfa_offset 4
  66              		.cfi_offset 4, -4
  14:Core/Src/NOS_LIB_Driver/Src/WS2812B.c ****     matrix->buffer[pixelPos * 3] = color->R;
  67              		.loc 1 14 5 is_stmt 1 view .LVU8
  68              		.loc 1 14 11 is_stmt 0 view .LVU9
  69 0002 0368     		ldr	r3, [r0]
  70              		.loc 1 14 29 view .LVU10
  71 0004 02EB4202 		add	r2, r2, r2, lsl #1
  72              	.LVL2:
  73              		.loc 1 14 41 view .LVU11
  74 0008 91F800C0 		ldrb	ip, [r1]	@ zero_extendqisi2
  75              		.loc 1 14 34 view .LVU12
  76 000c 03F802C0 		strb	ip, [r3, r2]
  15:Core/Src/NOS_LIB_Driver/Src/WS2812B.c ****     matrix->buffer[pixelPos * 3 + 1] = color->G;
  77              		.loc 1 15 5 is_stmt 1 view .LVU13
  78              		.loc 1 15 19 is_stmt 0 view .LVU14
  79 0010 531C     		adds	r3, r2, #1
  80              		.loc 1 15 45 view .LVU15
  81 0012 91F801C0 		ldrb	ip, [r1, #1]	@ zero_extendqisi2
  82              		.loc 1 15 38 view .LVU16
  83 0016 0468     		ldr	r4, [r0]
  84 0018 04F803C0 		strb	ip, [r4, r3]
  16:Core/Src/NOS_LIB_Driver/Src/WS2812B.c ****     matrix->buffer[pixelPos * 3 + 2] = color->B;
  85              		.loc 1 16 5 is_stmt 1 view .LVU17
  86              		.loc 1 16 11 is_stmt 0 view .LVU18
  87 001c 0368     		ldr	r3, [r0]
  88              		.loc 1 16 19 view .LVU19
  89 001e 0232     		adds	r2, r2, #2
  90              		.loc 1 16 45 view .LVU20
  91 0020 8978     		ldrb	r1, [r1, #2]	@ zero_extendqisi2
  92              	.LVL3:
  93              		.loc 1 16 38 view .LVU21
  94 0022 9954     		strb	r1, [r3, r2]
  17:Core/Src/NOS_LIB_Driver/Src/WS2812B.c **** }
  95              		.loc 1 17 1 view .LVU22
  96 0024 5DF8044B 		ldr	r4, [sp], #4
  97              	.LCFI1:
  98              		.cfi_restore 4
  99              		.cfi_def_cfa_offset 0
 100 0028 7047     		bx	lr
ARM GAS  C:\Users\user\AppData\Local\Temp\ccrAJRWE.s 			page 3


 101              		.cfi_endproc
 102              	.LFE1:
 104              		.section	.text.GetPixelPos,"ax",%progbits
 105              		.align	1
 106              		.global	GetPixelPos
 107              		.syntax unified
 108              		.thumb
 109              		.thumb_func
 110              		.fpu fpv4-sp-d16
 112              	GetPixelPos:
 113              	.LVL4:
 114              	.LFB2:
  18:Core/Src/NOS_LIB_Driver/Src/WS2812B.c **** 
  19:Core/Src/NOS_LIB_Driver/Src/WS2812B.c **** uint16_t GetPixelPos(uint8_t x, uint8_t y)
  20:Core/Src/NOS_LIB_Driver/Src/WS2812B.c **** {
 115              		.loc 1 20 1 is_stmt 1 view -0
 116              		.cfi_startproc
 117              		@ args = 0, pretend = 0, frame = 0
 118              		@ frame_needed = 0, uses_anonymous_args = 0
 119              		@ link register save eliminated.
  21:Core/Src/NOS_LIB_Driver/Src/WS2812B.c ****     if (x % 2 == 0)
 120              		.loc 1 21 5 view .LVU24
 121              		.loc 1 21 8 is_stmt 0 view .LVU25
 122 0000 10F0010F 		tst	r0, #1
 123 0004 02D1     		bne	.L5
  22:Core/Src/NOS_LIB_Driver/Src/WS2812B.c ****     {
  23:Core/Src/NOS_LIB_Driver/Src/WS2812B.c ****         return (x * 8) + y;
 124              		.loc 1 23 9 is_stmt 1 view .LVU26
 125              		.loc 1 23 24 is_stmt 0 view .LVU27
 126 0006 01EBC000 		add	r0, r1, r0, lsl #3
 127              	.LVL5:
 128              		.loc 1 23 24 view .LVU28
 129 000a 7047     		bx	lr
 130              	.LVL6:
 131              	.L5:
  24:Core/Src/NOS_LIB_Driver/Src/WS2812B.c ****     }
  25:Core/Src/NOS_LIB_Driver/Src/WS2812B.c ****     else
  26:Core/Src/NOS_LIB_Driver/Src/WS2812B.c ****     {
  27:Core/Src/NOS_LIB_Driver/Src/WS2812B.c ****         return(x * 8) + (8 - y);
 132              		.loc 1 27 9 is_stmt 1 view .LVU29
 133              		.loc 1 27 23 is_stmt 0 view .LVU30
 134 000c C1EBC000 		rsb	r0, r1, r0, lsl #3
 135              	.LVL7:
 136              		.loc 1 27 23 view .LVU31
 137 0010 0830     		adds	r0, r0, #8
 138 0012 80B2     		uxth	r0, r0
  28:Core/Src/NOS_LIB_Driver/Src/WS2812B.c ****     }
  29:Core/Src/NOS_LIB_Driver/Src/WS2812B.c **** }
 139              		.loc 1 29 1 view .LVU32
 140 0014 7047     		bx	lr
 141              		.cfi_endproc
 142              	.LFE2:
 144              		.section	.text.NOS_WS2812B_Matrix_Update,"ax",%progbits
 145              		.align	1
 146              		.global	NOS_WS2812B_Matrix_Update
 147              		.syntax unified
 148              		.thumb
ARM GAS  C:\Users\user\AppData\Local\Temp\ccrAJRWE.s 			page 4


 149              		.thumb_func
 150              		.fpu fpv4-sp-d16
 152              	NOS_WS2812B_Matrix_Update:
 153              	.LVL8:
 154              	.LFB3:
  30:Core/Src/NOS_LIB_Driver/Src/WS2812B.c **** 
  31:Core/Src/NOS_LIB_Driver/Src/WS2812B.c **** void NOS_WS2812B_Matrix_Update(WS2812B_Matrix* matrix,uint16_t offset)
  32:Core/Src/NOS_LIB_Driver/Src/WS2812B.c **** {
 155              		.loc 1 32 1 is_stmt 1 view -0
 156              		.cfi_startproc
 157              		@ args = 0, pretend = 0, frame = 8
 158              		@ frame_needed = 0, uses_anonymous_args = 0
 159              		.loc 1 32 1 is_stmt 0 view .LVU34
 160 0000 2DE9F04F 		push	{r4, r5, r6, r7, r8, r9, r10, fp, lr}
 161              	.LCFI2:
 162              		.cfi_def_cfa_offset 36
 163              		.cfi_offset 4, -36
 164              		.cfi_offset 5, -32
 165              		.cfi_offset 6, -28
 166              		.cfi_offset 7, -24
 167              		.cfi_offset 8, -20
 168              		.cfi_offset 9, -16
 169              		.cfi_offset 10, -12
 170              		.cfi_offset 11, -8
 171              		.cfi_offset 14, -4
 172 0004 83B0     		sub	sp, sp, #12
 173              	.LCFI3:
 174              		.cfi_def_cfa_offset 48
 175 0006 0446     		mov	r4, r0
 176 0008 0E46     		mov	r6, r1
  33:Core/Src/NOS_LIB_Driver/Src/WS2812B.c ****      uint16_t currColumn = offset;
 177              		.loc 1 33 6 is_stmt 1 view .LVU35
 178              	.LVL9:
  34:Core/Src/NOS_LIB_Driver/Src/WS2812B.c ****      uint8_t currByte = 0;
 179              		.loc 1 34 6 view .LVU36
  35:Core/Src/NOS_LIB_Driver/Src/WS2812B.c ****      bool bit = false;
 180              		.loc 1 35 6 view .LVU37
  36:Core/Src/NOS_LIB_Driver/Src/WS2812B.c ****      uint8_t symvolCount = matrix->size->col / 6;
 181              		.loc 1 36 6 view .LVU38
 182              		.loc 1 36 34 is_stmt 0 view .LVU39
 183 000a 8368     		ldr	r3, [r0, #8]
 184              		.loc 1 36 40 view .LVU40
 185 000c 1B78     		ldrb	r3, [r3]	@ zero_extendqisi2
 186              		.loc 1 36 14 view .LVU41
 187 000e 4A4A     		ldr	r2, .L27
 188 0010 A2FB0323 		umull	r2, r3, r2, r3
 189 0014 9B08     		lsrs	r3, r3, #2
 190              	.LVL10:
  37:Core/Src/NOS_LIB_Driver/Src/WS2812B.c ****      symvolCount--;
 191              		.loc 1 37 6 is_stmt 1 view .LVU42
 192              		.loc 1 37 17 is_stmt 0 view .LVU43
 193 0016 013B     		subs	r3, r3, #1
 194              	.LVL11:
 195              		.loc 1 37 17 view .LVU44
 196 0018 DBB2     		uxtb	r3, r3
 197              	.LVL12:
 198              		.loc 1 37 17 view .LVU45
ARM GAS  C:\Users\user\AppData\Local\Temp\ccrAJRWE.s 			page 5


 199 001a 0193     		str	r3, [sp, #4]
 200              	.LVL13:
  38:Core/Src/NOS_LIB_Driver/Src/WS2812B.c ****      int currX = 0;
 201              		.loc 1 38 6 is_stmt 1 view .LVU46
  39:Core/Src/NOS_LIB_Driver/Src/WS2812B.c **** 
  40:Core/Src/NOS_LIB_Driver/Src/WS2812B.c ****      for(int currSymvol = 0; currSymvol < symvolCount; currSymvol++)
 202              		.loc 1 40 6 view .LVU47
 203              	.LBB2:
 204              		.loc 1 40 10 view .LVU48
 205              		.loc 1 40 14 is_stmt 0 view .LVU49
 206 001c 4FF0000A 		mov	r10, #0
 207              		.loc 1 40 6 view .LVU50
 208 0020 81E0     		b	.L8
 209              	.LVL14:
 210              	.L11:
 211              	.LBB3:
 212              	.LBB4:
  41:Core/Src/NOS_LIB_Driver/Src/WS2812B.c ****      {
  42:Core/Src/NOS_LIB_Driver/Src/WS2812B.c ****         for(int Column = 0; Column < 5 ; Column++)
  43:Core/Src/NOS_LIB_Driver/Src/WS2812B.c ****         {
  44:Core/Src/NOS_LIB_Driver/Src/WS2812B.c ****             currByte = matrix->symvols[currSymvol].data[Column];
  45:Core/Src/NOS_LIB_Driver/Src/WS2812B.c **** 
  46:Core/Src/NOS_LIB_Driver/Src/WS2812B.c ****             if(currColumn % 2 == 0)
  47:Core/Src/NOS_LIB_Driver/Src/WS2812B.c ****             {
  48:Core/Src/NOS_LIB_Driver/Src/WS2812B.c ****                currX = 0;
  49:Core/Src/NOS_LIB_Driver/Src/WS2812B.c ****                for(int currBit = 0; currBit < 8; currBit++)
  50:Core/Src/NOS_LIB_Driver/Src/WS2812B.c ****                {
  51:Core/Src/NOS_LIB_Driver/Src/WS2812B.c ****                    bit = ((1 << currBit) & currByte);
  52:Core/Src/NOS_LIB_Driver/Src/WS2812B.c **** 
  53:Core/Src/NOS_LIB_Driver/Src/WS2812B.c ****                    if(bit)
  54:Core/Src/NOS_LIB_Driver/Src/WS2812B.c ****                    {
  55:Core/Src/NOS_LIB_Driver/Src/WS2812B.c ****                        NOS_WS2812B_Matrix_SetPixel(matrix,matrix->textColor,GetPixelPos(NOS_Math_No
  56:Core/Src/NOS_LIB_Driver/Src/WS2812B.c ****                    }
  57:Core/Src/NOS_LIB_Driver/Src/WS2812B.c ****                    else
  58:Core/Src/NOS_LIB_Driver/Src/WS2812B.c ****                    {
  59:Core/Src/NOS_LIB_Driver/Src/WS2812B.c ****                        NOS_WS2812B_Matrix_SetPixel(matrix,matrix->foneColor,GetPixelPos(NOS_Math_No
 213              		.loc 1 59 24 is_stmt 1 view .LVU51
 214 0022 D4F810B0 		ldr	fp, [r4, #16]
 215              		.loc 1 59 130 is_stmt 0 view .LVU52
 216 0026 A368     		ldr	r3, [r4, #8]
 217              	.LVL15:
 218              		.loc 1 59 89 view .LVU53
 219 0028 1978     		ldrb	r1, [r3]	@ zero_extendqisi2
 220 002a 3046     		mov	r0, r6
 221 002c FFF7FEFF 		bl	NOS_Math_NormalizeValue
 222              	.LVL16:
 223              		.loc 1 59 24 view .LVU54
 224 0030 F9B2     		uxtb	r1, r7
 225 0032 C0B2     		uxtb	r0, r0
 226 0034 FFF7FEFF 		bl	GetPixelPos
 227              	.LVL17:
 228 0038 0246     		mov	r2, r0
 229 003a 5946     		mov	r1, fp
 230 003c 2046     		mov	r0, r4
 231 003e FFF7FEFF 		bl	NOS_WS2812B_Matrix_SetPixel
 232              	.LVL18:
 233              	.L12:
ARM GAS  C:\Users\user\AppData\Local\Temp\ccrAJRWE.s 			page 6


  60:Core/Src/NOS_LIB_Driver/Src/WS2812B.c ****                    }
  61:Core/Src/NOS_LIB_Driver/Src/WS2812B.c ****                    currX++;
 234              		.loc 1 61 20 is_stmt 1 discriminator 2 view .LVU55
 235              		.loc 1 61 25 is_stmt 0 discriminator 2 view .LVU56
 236 0042 0137     		adds	r7, r7, #1
 237              	.LVL19:
  49:Core/Src/NOS_LIB_Driver/Src/WS2812B.c ****                {
 238              		.loc 1 49 50 is_stmt 1 discriminator 2 view .LVU57
  49:Core/Src/NOS_LIB_Driver/Src/WS2812B.c ****                {
 239              		.loc 1 49 57 is_stmt 0 discriminator 2 view .LVU58
 240 0044 0135     		adds	r5, r5, #1
 241              	.LVL20:
 242              	.L9:
  49:Core/Src/NOS_LIB_Driver/Src/WS2812B.c ****                {
 243              		.loc 1 49 37 is_stmt 1 discriminator 1 view .LVU59
  49:Core/Src/NOS_LIB_Driver/Src/WS2812B.c ****                {
 244              		.loc 1 49 16 is_stmt 0 discriminator 1 view .LVU60
 245 0046 072D     		cmp	r5, #7
 246 0048 42DC     		bgt	.L14
  51:Core/Src/NOS_LIB_Driver/Src/WS2812B.c **** 
 247              		.loc 1 51 20 is_stmt 1 view .LVU61
  51:Core/Src/NOS_LIB_Driver/Src/WS2812B.c **** 
 248              		.loc 1 51 30 is_stmt 0 view .LVU62
 249 004a 0123     		movs	r3, #1
 250 004c AB40     		lsls	r3, r3, r5
 251              	.LVL21:
  53:Core/Src/NOS_LIB_Driver/Src/WS2812B.c ****                    {
 252              		.loc 1 53 20 is_stmt 1 view .LVU63
  53:Core/Src/NOS_LIB_Driver/Src/WS2812B.c ****                    {
 253              		.loc 1 53 22 is_stmt 0 view .LVU64
 254 004e 18EA030F 		tst	r8, r3
 255 0052 E6D0     		beq	.L11
  55:Core/Src/NOS_LIB_Driver/Src/WS2812B.c ****                    }
 256              		.loc 1 55 24 is_stmt 1 view .LVU65
 257 0054 D4F80CB0 		ldr	fp, [r4, #12]
  55:Core/Src/NOS_LIB_Driver/Src/WS2812B.c ****                    }
 258              		.loc 1 55 130 is_stmt 0 view .LVU66
 259 0058 A368     		ldr	r3, [r4, #8]
 260              	.LVL22:
  55:Core/Src/NOS_LIB_Driver/Src/WS2812B.c ****                    }
 261              		.loc 1 55 89 view .LVU67
 262 005a 1978     		ldrb	r1, [r3]	@ zero_extendqisi2
 263 005c 3046     		mov	r0, r6
 264 005e FFF7FEFF 		bl	NOS_Math_NormalizeValue
 265              	.LVL23:
  55:Core/Src/NOS_LIB_Driver/Src/WS2812B.c ****                    }
 266              		.loc 1 55 24 view .LVU68
 267 0062 F9B2     		uxtb	r1, r7
 268 0064 C0B2     		uxtb	r0, r0
 269 0066 FFF7FEFF 		bl	GetPixelPos
 270              	.LVL24:
 271 006a 0246     		mov	r2, r0
 272 006c 5946     		mov	r1, fp
 273 006e 2046     		mov	r0, r4
 274 0070 FFF7FEFF 		bl	NOS_WS2812B_Matrix_SetPixel
 275              	.LVL25:
 276 0074 E5E7     		b	.L12
ARM GAS  C:\Users\user\AppData\Local\Temp\ccrAJRWE.s 			page 7


 277              	.LVL26:
 278              	.L22:
  49:Core/Src/NOS_LIB_Driver/Src/WS2812B.c ****                {
 279              		.loc 1 49 24 view .LVU69
 280 0076 0025     		movs	r5, #0
 281              	.LBE4:
  48:Core/Src/NOS_LIB_Driver/Src/WS2812B.c ****                for(int currBit = 0; currBit < 8; currBit++)
 282              		.loc 1 48 22 view .LVU70
 283 0078 2F46     		mov	r7, r5
 284 007a E4E7     		b	.L9
 285              	.LVL27:
 286              	.L15:
 287              	.LBB5:
  62:Core/Src/NOS_LIB_Driver/Src/WS2812B.c ****                 }
  63:Core/Src/NOS_LIB_Driver/Src/WS2812B.c ****             }
  64:Core/Src/NOS_LIB_Driver/Src/WS2812B.c ****             else
  65:Core/Src/NOS_LIB_Driver/Src/WS2812B.c ****             {
  66:Core/Src/NOS_LIB_Driver/Src/WS2812B.c ****                currX = 1;
  67:Core/Src/NOS_LIB_Driver/Src/WS2812B.c ****                for(int currBit = 0; currBit < 8; currBit++)
  68:Core/Src/NOS_LIB_Driver/Src/WS2812B.c ****                {
  69:Core/Src/NOS_LIB_Driver/Src/WS2812B.c ****                    bit = ((1 << currBit) & currByte);
  70:Core/Src/NOS_LIB_Driver/Src/WS2812B.c **** 
  71:Core/Src/NOS_LIB_Driver/Src/WS2812B.c ****                    if(bit)
  72:Core/Src/NOS_LIB_Driver/Src/WS2812B.c ****                    {
  73:Core/Src/NOS_LIB_Driver/Src/WS2812B.c ****                        NOS_WS2812B_Matrix_SetPixel(matrix,matrix->textColor,GetPixelPos(NOS_Math_No
  74:Core/Src/NOS_LIB_Driver/Src/WS2812B.c ****                    }
  75:Core/Src/NOS_LIB_Driver/Src/WS2812B.c ****                    else
  76:Core/Src/NOS_LIB_Driver/Src/WS2812B.c ****                    {
  77:Core/Src/NOS_LIB_Driver/Src/WS2812B.c ****                        NOS_WS2812B_Matrix_SetPixel(matrix,matrix->foneColor,GetPixelPos(NOS_Math_No
 288              		.loc 1 77 24 is_stmt 1 view .LVU71
 289 007c D4F810B0 		ldr	fp, [r4, #16]
 290              		.loc 1 77 130 is_stmt 0 view .LVU72
 291 0080 A368     		ldr	r3, [r4, #8]
 292              	.LVL28:
 293              		.loc 1 77 89 view .LVU73
 294 0082 1978     		ldrb	r1, [r3]	@ zero_extendqisi2
 295 0084 3046     		mov	r0, r6
 296 0086 FFF7FEFF 		bl	NOS_Math_NormalizeValue
 297              	.LVL29:
 298              		.loc 1 77 24 view .LVU74
 299 008a F9B2     		uxtb	r1, r7
 300 008c C0B2     		uxtb	r0, r0
 301 008e FFF7FEFF 		bl	GetPixelPos
 302              	.LVL30:
 303 0092 0246     		mov	r2, r0
 304 0094 5946     		mov	r1, fp
 305 0096 2046     		mov	r0, r4
 306 0098 FFF7FEFF 		bl	NOS_WS2812B_Matrix_SetPixel
 307              	.LVL31:
 308              	.L16:
  78:Core/Src/NOS_LIB_Driver/Src/WS2812B.c ****                    }
  79:Core/Src/NOS_LIB_Driver/Src/WS2812B.c ****                    currX++;
 309              		.loc 1 79 20 is_stmt 1 discriminator 2 view .LVU75
 310              		.loc 1 79 25 is_stmt 0 discriminator 2 view .LVU76
 311 009c 0137     		adds	r7, r7, #1
 312              	.LVL32:
  67:Core/Src/NOS_LIB_Driver/Src/WS2812B.c ****                {
ARM GAS  C:\Users\user\AppData\Local\Temp\ccrAJRWE.s 			page 8


 313              		.loc 1 67 50 is_stmt 1 discriminator 2 view .LVU77
  67:Core/Src/NOS_LIB_Driver/Src/WS2812B.c ****                {
 314              		.loc 1 67 57 is_stmt 0 discriminator 2 view .LVU78
 315 009e 0135     		adds	r5, r5, #1
 316              	.LVL33:
 317              	.L10:
  67:Core/Src/NOS_LIB_Driver/Src/WS2812B.c ****                {
 318              		.loc 1 67 37 is_stmt 1 discriminator 1 view .LVU79
  67:Core/Src/NOS_LIB_Driver/Src/WS2812B.c ****                {
 319              		.loc 1 67 16 is_stmt 0 discriminator 1 view .LVU80
 320 00a0 072D     		cmp	r5, #7
 321 00a2 15DC     		bgt	.L14
  69:Core/Src/NOS_LIB_Driver/Src/WS2812B.c **** 
 322              		.loc 1 69 20 is_stmt 1 view .LVU81
  69:Core/Src/NOS_LIB_Driver/Src/WS2812B.c **** 
 323              		.loc 1 69 30 is_stmt 0 view .LVU82
 324 00a4 0123     		movs	r3, #1
 325 00a6 AB40     		lsls	r3, r3, r5
 326              	.LVL34:
  71:Core/Src/NOS_LIB_Driver/Src/WS2812B.c ****                    {
 327              		.loc 1 71 20 is_stmt 1 view .LVU83
  71:Core/Src/NOS_LIB_Driver/Src/WS2812B.c ****                    {
 328              		.loc 1 71 22 is_stmt 0 view .LVU84
 329 00a8 18EA030F 		tst	r8, r3
 330 00ac E6D0     		beq	.L15
  73:Core/Src/NOS_LIB_Driver/Src/WS2812B.c ****                    }
 331              		.loc 1 73 24 is_stmt 1 view .LVU85
 332 00ae D4F80CB0 		ldr	fp, [r4, #12]
  73:Core/Src/NOS_LIB_Driver/Src/WS2812B.c ****                    }
 333              		.loc 1 73 130 is_stmt 0 view .LVU86
 334 00b2 A368     		ldr	r3, [r4, #8]
 335              	.LVL35:
  73:Core/Src/NOS_LIB_Driver/Src/WS2812B.c ****                    }
 336              		.loc 1 73 89 view .LVU87
 337 00b4 1978     		ldrb	r1, [r3]	@ zero_extendqisi2
 338 00b6 3046     		mov	r0, r6
 339 00b8 FFF7FEFF 		bl	NOS_Math_NormalizeValue
 340              	.LVL36:
  73:Core/Src/NOS_LIB_Driver/Src/WS2812B.c ****                    }
 341              		.loc 1 73 24 view .LVU88
 342 00bc F9B2     		uxtb	r1, r7
 343 00be C0B2     		uxtb	r0, r0
 344 00c0 FFF7FEFF 		bl	GetPixelPos
 345              	.LVL37:
 346 00c4 0246     		mov	r2, r0
 347 00c6 5946     		mov	r1, fp
 348 00c8 2046     		mov	r0, r4
 349 00ca FFF7FEFF 		bl	NOS_WS2812B_Matrix_SetPixel
 350              	.LVL38:
 351 00ce E5E7     		b	.L16
 352              	.LVL39:
 353              	.L14:
  73:Core/Src/NOS_LIB_Driver/Src/WS2812B.c ****                    }
 354              		.loc 1 73 24 view .LVU89
 355              	.LBE5:
  80:Core/Src/NOS_LIB_Driver/Src/WS2812B.c ****                 }
  81:Core/Src/NOS_LIB_Driver/Src/WS2812B.c **** 
ARM GAS  C:\Users\user\AppData\Local\Temp\ccrAJRWE.s 			page 9


  82:Core/Src/NOS_LIB_Driver/Src/WS2812B.c ****             }
  83:Core/Src/NOS_LIB_Driver/Src/WS2812B.c ****             currColumn++;
 356              		.loc 1 83 13 is_stmt 1 discriminator 2 view .LVU90
 357              		.loc 1 83 23 is_stmt 0 discriminator 2 view .LVU91
 358 00d0 0136     		adds	r6, r6, #1
 359              	.LVL40:
 360              		.loc 1 83 23 discriminator 2 view .LVU92
 361 00d2 B6B2     		uxth	r6, r6
 362              	.LVL41:
  42:Core/Src/NOS_LIB_Driver/Src/WS2812B.c ****         {
 363              		.loc 1 42 42 is_stmt 1 discriminator 2 view .LVU93
  42:Core/Src/NOS_LIB_Driver/Src/WS2812B.c ****         {
 364              		.loc 1 42 48 is_stmt 0 discriminator 2 view .LVU94
 365 00d4 09F10109 		add	r9, r9, #1
 366              	.LVL42:
 367              	.L21:
  42:Core/Src/NOS_LIB_Driver/Src/WS2812B.c ****         {
 368              		.loc 1 42 29 is_stmt 1 discriminator 1 view .LVU95
  42:Core/Src/NOS_LIB_Driver/Src/WS2812B.c ****         {
 369              		.loc 1 42 9 is_stmt 0 discriminator 1 view .LVU96
 370 00d8 B9F1040F 		cmp	r9, #4
 371 00dc 0BDC     		bgt	.L25
  44:Core/Src/NOS_LIB_Driver/Src/WS2812B.c **** 
 372              		.loc 1 44 13 is_stmt 1 view .LVU97
  44:Core/Src/NOS_LIB_Driver/Src/WS2812B.c **** 
 373              		.loc 1 44 30 is_stmt 0 view .LVU98
 374 00de 6369     		ldr	r3, [r4, #20]
  44:Core/Src/NOS_LIB_Driver/Src/WS2812B.c **** 
 375              		.loc 1 44 39 view .LVU99
 376 00e0 0AEB8A02 		add	r2, r10, r10, lsl #2
 377 00e4 1344     		add	r3, r3, r2
  44:Core/Src/NOS_LIB_Driver/Src/WS2812B.c **** 
 378              		.loc 1 44 22 view .LVU100
 379 00e6 13F80980 		ldrb	r8, [r3, r9]	@ zero_extendqisi2
 380              	.LVL43:
  46:Core/Src/NOS_LIB_Driver/Src/WS2812B.c ****             {
 381              		.loc 1 46 13 is_stmt 1 view .LVU101
  46:Core/Src/NOS_LIB_Driver/Src/WS2812B.c ****             {
 382              		.loc 1 46 15 is_stmt 0 view .LVU102
 383 00ea 16F0010F 		tst	r6, #1
 384 00ee C2D0     		beq	.L22
 385              	.LBB6:
  67:Core/Src/NOS_LIB_Driver/Src/WS2812B.c ****                {
 386              		.loc 1 67 24 view .LVU103
 387 00f0 0025     		movs	r5, #0
 388              	.LBE6:
  66:Core/Src/NOS_LIB_Driver/Src/WS2812B.c ****                for(int currBit = 0; currBit < 8; currBit++)
 389              		.loc 1 66 22 view .LVU104
 390 00f2 0127     		movs	r7, #1
 391 00f4 D4E7     		b	.L10
 392              	.LVL44:
 393              	.L25:
  66:Core/Src/NOS_LIB_Driver/Src/WS2812B.c ****                for(int currBit = 0; currBit < 8; currBit++)
 394              		.loc 1 66 22 view .LVU105
 395              	.LBE3:
 396              	.LBB7:
  84:Core/Src/NOS_LIB_Driver/Src/WS2812B.c ****         }
ARM GAS  C:\Users\user\AppData\Local\Temp\ccrAJRWE.s 			page 10


  85:Core/Src/NOS_LIB_Driver/Src/WS2812B.c **** 
  86:Core/Src/NOS_LIB_Driver/Src/WS2812B.c ****         for(int i = 1; i < 9; i++)
 397              		.loc 1 86 17 view .LVU106
 398 00f6 0125     		movs	r5, #1
 399 00f8 0FE0     		b	.L19
 400              	.LVL45:
 401              	.L20:
  87:Core/Src/NOS_LIB_Driver/Src/WS2812B.c ****         {
  88:Core/Src/NOS_LIB_Driver/Src/WS2812B.c ****             NOS_WS2812B_Matrix_SetPixel(matrix,matrix->foneColor,GetPixelPos(NOS_Math_NormalizeValu
 402              		.loc 1 88 13 is_stmt 1 discriminator 3 view .LVU107
 403 00fa 2769     		ldr	r7, [r4, #16]
 404              		.loc 1 88 119 is_stmt 0 discriminator 3 view .LVU108
 405 00fc A368     		ldr	r3, [r4, #8]
 406              		.loc 1 88 78 discriminator 3 view .LVU109
 407 00fe 1978     		ldrb	r1, [r3]	@ zero_extendqisi2
 408 0100 3046     		mov	r0, r6
 409 0102 FFF7FEFF 		bl	NOS_Math_NormalizeValue
 410              	.LVL46:
 411              		.loc 1 88 13 discriminator 3 view .LVU110
 412 0106 E9B2     		uxtb	r1, r5
 413 0108 C0B2     		uxtb	r0, r0
 414 010a FFF7FEFF 		bl	GetPixelPos
 415              	.LVL47:
 416 010e 0246     		mov	r2, r0
 417 0110 3946     		mov	r1, r7
 418 0112 2046     		mov	r0, r4
 419 0114 FFF7FEFF 		bl	NOS_WS2812B_Matrix_SetPixel
 420              	.LVL48:
  86:Core/Src/NOS_LIB_Driver/Src/WS2812B.c ****         {
 421              		.loc 1 86 31 is_stmt 1 discriminator 3 view .LVU111
  86:Core/Src/NOS_LIB_Driver/Src/WS2812B.c ****         {
 422              		.loc 1 86 32 is_stmt 0 discriminator 3 view .LVU112
 423 0118 0135     		adds	r5, r5, #1
 424              	.LVL49:
 425              	.L19:
  86:Core/Src/NOS_LIB_Driver/Src/WS2812B.c ****         {
 426              		.loc 1 86 24 is_stmt 1 discriminator 1 view .LVU113
  86:Core/Src/NOS_LIB_Driver/Src/WS2812B.c ****         {
 427              		.loc 1 86 9 is_stmt 0 discriminator 1 view .LVU114
 428 011a 082D     		cmp	r5, #8
 429 011c EDDD     		ble	.L20
 430              	.LBE7:
  89:Core/Src/NOS_LIB_Driver/Src/WS2812B.c ****         }
  90:Core/Src/NOS_LIB_Driver/Src/WS2812B.c ****         currColumn++;
 431              		.loc 1 90 9 is_stmt 1 discriminator 2 view .LVU115
 432              		.loc 1 90 19 is_stmt 0 discriminator 2 view .LVU116
 433 011e 0136     		adds	r6, r6, #1
 434              	.LVL50:
 435              		.loc 1 90 19 discriminator 2 view .LVU117
 436 0120 B6B2     		uxth	r6, r6
 437              	.LVL51:
  40:Core/Src/NOS_LIB_Driver/Src/WS2812B.c ****      {
 438              		.loc 1 40 56 is_stmt 1 discriminator 2 view .LVU118
  40:Core/Src/NOS_LIB_Driver/Src/WS2812B.c ****      {
 439              		.loc 1 40 66 is_stmt 0 discriminator 2 view .LVU119
 440 0122 0AF1010A 		add	r10, r10, #1
 441              	.LVL52:
ARM GAS  C:\Users\user\AppData\Local\Temp\ccrAJRWE.s 			page 11


 442              	.L8:
  40:Core/Src/NOS_LIB_Driver/Src/WS2812B.c ****      {
 443              		.loc 1 40 30 is_stmt 1 discriminator 1 view .LVU120
  40:Core/Src/NOS_LIB_Driver/Src/WS2812B.c ****      {
 444              		.loc 1 40 6 is_stmt 0 discriminator 1 view .LVU121
 445 0126 019B     		ldr	r3, [sp, #4]
 446 0128 5345     		cmp	r3, r10
 447 012a 02DD     		ble	.L26
 448              	.LBB8:
  42:Core/Src/NOS_LIB_Driver/Src/WS2812B.c ****         {
 449              		.loc 1 42 17 view .LVU122
 450 012c 4FF00009 		mov	r9, #0
 451 0130 D2E7     		b	.L21
 452              	.L26:
 453              	.LBE8:
 454              	.LBE2:
  91:Core/Src/NOS_LIB_Driver/Src/WS2812B.c ****      }
  92:Core/Src/NOS_LIB_Driver/Src/WS2812B.c **** }
 455              		.loc 1 92 1 view .LVU123
 456 0132 03B0     		add	sp, sp, #12
 457              	.LCFI4:
 458              		.cfi_def_cfa_offset 36
 459              		@ sp needed
 460 0134 BDE8F08F 		pop	{r4, r5, r6, r7, r8, r9, r10, fp, pc}
 461              	.LVL53:
 462              	.L28:
 463              		.loc 1 92 1 view .LVU124
 464              		.align	2
 465              	.L27:
 466 0138 ABAAAAAA 		.word	-1431655765
 467              		.cfi_endproc
 468              	.LFE3:
 470              		.section	.text.Symvol_GetBitMap,"ax",%progbits
 471              		.align	1
 472              		.global	Symvol_GetBitMap
 473              		.syntax unified
 474              		.thumb
 475              		.thumb_func
 476              		.fpu fpv4-sp-d16
 478              	Symvol_GetBitMap:
 479              	.LVL54:
 480              	.LFB8:
  93:Core/Src/NOS_LIB_Driver/Src/WS2812B.c **** 
  94:Core/Src/NOS_LIB_Driver/Src/WS2812B.c **** void NOS_WS2812B_Matrix_SetSymvol(WS2812B_Matrix* matrix,char sym,uint8_t pos)
  95:Core/Src/NOS_LIB_Driver/Src/WS2812B.c **** {
  96:Core/Src/NOS_LIB_Driver/Src/WS2812B.c ****     uint8_t* buff = Symvol_GetBitMap(sym);
  97:Core/Src/NOS_LIB_Driver/Src/WS2812B.c ****     for(int i = 0; i < 5; i++)
  98:Core/Src/NOS_LIB_Driver/Src/WS2812B.c ****     {
  99:Core/Src/NOS_LIB_Driver/Src/WS2812B.c ****         matrix->symvols[pos].data[i] = buff[i];
 100:Core/Src/NOS_LIB_Driver/Src/WS2812B.c ****     }
 101:Core/Src/NOS_LIB_Driver/Src/WS2812B.c **** }
 102:Core/Src/NOS_LIB_Driver/Src/WS2812B.c **** 
 103:Core/Src/NOS_LIB_Driver/Src/WS2812B.c **** void NOS_WS2812B_Matrix_PrintStaticString(WS2812B_Matrix* matrix,char string[],uint8_t startpos,uin
 104:Core/Src/NOS_LIB_Driver/Src/WS2812B.c **** {
 105:Core/Src/NOS_LIB_Driver/Src/WS2812B.c ****     for(int i = startpos; i < startpos + lenght; i++)
 106:Core/Src/NOS_LIB_Driver/Src/WS2812B.c ****     {
 107:Core/Src/NOS_LIB_Driver/Src/WS2812B.c ****         NOS_WS2812B_Matrix_SetSymvol(matrix,string[i - startpos],i);
ARM GAS  C:\Users\user\AppData\Local\Temp\ccrAJRWE.s 			page 12


 108:Core/Src/NOS_LIB_Driver/Src/WS2812B.c ****     }
 109:Core/Src/NOS_LIB_Driver/Src/WS2812B.c **** }
 110:Core/Src/NOS_LIB_Driver/Src/WS2812B.c **** 
 111:Core/Src/NOS_LIB_Driver/Src/WS2812B.c **** void NOS_WS2812B_Matrix_PrintIntNumber(WS2812B_Matrix* matrix,int num,uint8_t startpos,uint8_t leng
 112:Core/Src/NOS_LIB_Driver/Src/WS2812B.c **** {
 113:Core/Src/NOS_LIB_Driver/Src/WS2812B.c **** 
 114:Core/Src/NOS_LIB_Driver/Src/WS2812B.c ****     int probe = 10;
 115:Core/Src/NOS_LIB_Driver/Src/WS2812B.c ****     int a = 0;
 116:Core/Src/NOS_LIB_Driver/Src/WS2812B.c ****     int power = NOS_Math_GetNumberPower(num);
 117:Core/Src/NOS_LIB_Driver/Src/WS2812B.c ****     char buff[16];
 118:Core/Src/NOS_LIB_Driver/Src/WS2812B.c **** 
 119:Core/Src/NOS_LIB_Driver/Src/WS2812B.c **** 
 120:Core/Src/NOS_LIB_Driver/Src/WS2812B.c ****     for (int i = power - 1; i > 0; i--)
 121:Core/Src/NOS_LIB_Driver/Src/WS2812B.c ****     {
 122:Core/Src/NOS_LIB_Driver/Src/WS2812B.c ****         buff[a] = num / pow(10,i);
 123:Core/Src/NOS_LIB_Driver/Src/WS2812B.c ****         num = num - (buff[a] * pow(10,i));
 124:Core/Src/NOS_LIB_Driver/Src/WS2812B.c ****         a++;
 125:Core/Src/NOS_LIB_Driver/Src/WS2812B.c ****     }
 126:Core/Src/NOS_LIB_Driver/Src/WS2812B.c **** 
 127:Core/Src/NOS_LIB_Driver/Src/WS2812B.c ****     buff[a] = num % 10;
 128:Core/Src/NOS_LIB_Driver/Src/WS2812B.c **** 
 129:Core/Src/NOS_LIB_Driver/Src/WS2812B.c ****     for(int i = 0; i < a + 1; i++)
 130:Core/Src/NOS_LIB_Driver/Src/WS2812B.c ****     {
 131:Core/Src/NOS_LIB_Driver/Src/WS2812B.c ****         buff[i] += 48;
 132:Core/Src/NOS_LIB_Driver/Src/WS2812B.c ****         NOS_WS2812B_Matrix_SetSymvol(matrix,buff[i],i + startpos);
 133:Core/Src/NOS_LIB_Driver/Src/WS2812B.c ****     }
 134:Core/Src/NOS_LIB_Driver/Src/WS2812B.c **** }
 135:Core/Src/NOS_LIB_Driver/Src/WS2812B.c **** 
 136:Core/Src/NOS_LIB_Driver/Src/WS2812B.c **** void NOS_WS2812B_Matrix_PrintFloatNumber(WS2812B_Matrix* matrix,float num,uint8_t startpos)
 137:Core/Src/NOS_LIB_Driver/Src/WS2812B.c **** {
 138:Core/Src/NOS_LIB_Driver/Src/WS2812B.c ****     int before = num;
 139:Core/Src/NOS_LIB_Driver/Src/WS2812B.c ****     float after = num - (float)before;
 140:Core/Src/NOS_LIB_Driver/Src/WS2812B.c ****     int af = after * 100;
 141:Core/Src/NOS_LIB_Driver/Src/WS2812B.c ****     int pow = NOS_Math_GetNumberPower(before);
 142:Core/Src/NOS_LIB_Driver/Src/WS2812B.c ****     NOS_WS2812B_Matrix_PrintIntNumber(matrix,before,startpos,pow);
 143:Core/Src/NOS_LIB_Driver/Src/WS2812B.c ****     NOS_WS2812B_Matrix_PrintStaticString(matrix,".",startpos + pow,1);
 144:Core/Src/NOS_LIB_Driver/Src/WS2812B.c ****     NOS_WS2812B_Matrix_PrintIntNumber(matrix,af,startpos + pow + 1,2);
 145:Core/Src/NOS_LIB_Driver/Src/WS2812B.c **** }
 146:Core/Src/NOS_LIB_Driver/Src/WS2812B.c **** 
 147:Core/Src/NOS_LIB_Driver/Src/WS2812B.c **** 
 148:Core/Src/NOS_LIB_Driver/Src/WS2812B.c **** 
 149:Core/Src/NOS_LIB_Driver/Src/WS2812B.c **** uint8_t* Symvol_GetBitMap(char sym)
 150:Core/Src/NOS_LIB_Driver/Src/WS2812B.c **** {
 481              		.loc 1 150 1 is_stmt 1 view -0
 482              		.cfi_startproc
 483              		@ args = 0, pretend = 0, frame = 0
 484              		@ frame_needed = 0, uses_anonymous_args = 0
 485              		@ link register save eliminated.
 151:Core/Src/NOS_LIB_Driver/Src/WS2812B.c ****     switch (sym)
 486              		.loc 1 151 5 view .LVU126
 487 0000 2038     		subs	r0, r0, #32
 488              	.LVL55:
 489              		.loc 1 151 5 is_stmt 0 view .LVU127
 490 0002 5928     		cmp	r0, #89
 491 0004 00F2C480 		bhi	.L30
 492 0008 DFE810F0 		tbh	[pc, r0, lsl #1]
 493              	.L32:
ARM GAS  C:\Users\user\AppData\Local\Temp\ccrAJRWE.s 			page 13


 494 000c A000     		.2byte	(.L84-.L32)/2
 495 000e C200     		.2byte	(.L30-.L32)/2
 496 0010 C200     		.2byte	(.L30-.L32)/2
 497 0012 C200     		.2byte	(.L30-.L32)/2
 498 0014 C200     		.2byte	(.L30-.L32)/2
 499 0016 C200     		.2byte	(.L30-.L32)/2
 500 0018 C200     		.2byte	(.L30-.L32)/2
 501 001a C200     		.2byte	(.L30-.L32)/2
 502 001c C200     		.2byte	(.L30-.L32)/2
 503 001e C200     		.2byte	(.L30-.L32)/2
 504 0020 A800     		.2byte	(.L83-.L32)/2
 505 0022 A200     		.2byte	(.L82-.L32)/2
 506 0024 C200     		.2byte	(.L30-.L32)/2
 507 0026 A400     		.2byte	(.L81-.L32)/2
 508 0028 AA00     		.2byte	(.L80-.L32)/2
 509 002a A600     		.2byte	(.L79-.L32)/2
 510 002c AE00     		.2byte	(.L78-.L32)/2
 511 002e B000     		.2byte	(.L77-.L32)/2
 512 0030 B200     		.2byte	(.L76-.L32)/2
 513 0032 B400     		.2byte	(.L75-.L32)/2
 514 0034 B600     		.2byte	(.L74-.L32)/2
 515 0036 B800     		.2byte	(.L73-.L32)/2
 516 0038 BA00     		.2byte	(.L72-.L32)/2
 517 003a BC00     		.2byte	(.L71-.L32)/2
 518 003c BE00     		.2byte	(.L70-.L32)/2
 519 003e C000     		.2byte	(.L69-.L32)/2
 520 0040 AC00     		.2byte	(.L68-.L32)/2
 521 0042 C200     		.2byte	(.L30-.L32)/2
 522 0044 C200     		.2byte	(.L30-.L32)/2
 523 0046 C200     		.2byte	(.L30-.L32)/2
 524 0048 C200     		.2byte	(.L30-.L32)/2
 525 004a C200     		.2byte	(.L30-.L32)/2
 526 004c C200     		.2byte	(.L30-.L32)/2
 527 004e 5A00     		.2byte	(.L67-.L32)/2
 528 0050 C400     		.2byte	(.L85-.L32)/2
 529 0052 5C00     		.2byte	(.L65-.L32)/2
 530 0054 5E00     		.2byte	(.L64-.L32)/2
 531 0056 6000     		.2byte	(.L63-.L32)/2
 532 0058 6200     		.2byte	(.L62-.L32)/2
 533 005a 6400     		.2byte	(.L61-.L32)/2
 534 005c 6600     		.2byte	(.L60-.L32)/2
 535 005e 6800     		.2byte	(.L59-.L32)/2
 536 0060 6A00     		.2byte	(.L58-.L32)/2
 537 0062 6C00     		.2byte	(.L57-.L32)/2
 538 0064 6E00     		.2byte	(.L56-.L32)/2
 539 0066 7000     		.2byte	(.L55-.L32)/2
 540 0068 7200     		.2byte	(.L54-.L32)/2
 541 006a 7400     		.2byte	(.L53-.L32)/2
 542 006c 7600     		.2byte	(.L52-.L32)/2
 543 006e 7800     		.2byte	(.L51-.L32)/2
 544 0070 7A00     		.2byte	(.L50-.L32)/2
 545 0072 7C00     		.2byte	(.L49-.L32)/2
 546 0074 7E00     		.2byte	(.L48-.L32)/2
 547 0076 8000     		.2byte	(.L47-.L32)/2
 548 0078 8200     		.2byte	(.L46-.L32)/2
 549 007a 8400     		.2byte	(.L45-.L32)/2
 550 007c 8600     		.2byte	(.L44-.L32)/2
ARM GAS  C:\Users\user\AppData\Local\Temp\ccrAJRWE.s 			page 14


 551 007e 8800     		.2byte	(.L43-.L32)/2
 552 0080 8A00     		.2byte	(.L42-.L32)/2
 553 0082 C200     		.2byte	(.L30-.L32)/2
 554 0084 C200     		.2byte	(.L30-.L32)/2
 555 0086 C200     		.2byte	(.L30-.L32)/2
 556 0088 C200     		.2byte	(.L30-.L32)/2
 557 008a C200     		.2byte	(.L30-.L32)/2
 558 008c C200     		.2byte	(.L30-.L32)/2
 559 008e 9000     		.2byte	(.L41-.L32)/2
 560 0090 C200     		.2byte	(.L30-.L32)/2
 561 0092 9200     		.2byte	(.L40-.L32)/2
 562 0094 9800     		.2byte	(.L39-.L32)/2
 563 0096 C200     		.2byte	(.L30-.L32)/2
 564 0098 C200     		.2byte	(.L30-.L32)/2
 565 009a 9C00     		.2byte	(.L38-.L32)/2
 566 009c C200     		.2byte	(.L30-.L32)/2
 567 009e C200     		.2byte	(.L30-.L32)/2
 568 00a0 C200     		.2byte	(.L30-.L32)/2
 569 00a2 9600     		.2byte	(.L37-.L32)/2
 570 00a4 C200     		.2byte	(.L30-.L32)/2
 571 00a6 9400     		.2byte	(.L36-.L32)/2
 572 00a8 C200     		.2byte	(.L30-.L32)/2
 573 00aa 9A00     		.2byte	(.L35-.L32)/2
 574 00ac C200     		.2byte	(.L30-.L32)/2
 575 00ae C200     		.2byte	(.L30-.L32)/2
 576 00b0 C200     		.2byte	(.L30-.L32)/2
 577 00b2 C200     		.2byte	(.L30-.L32)/2
 578 00b4 C200     		.2byte	(.L30-.L32)/2
 579 00b6 8C00     		.2byte	(.L34-.L32)/2
 580 00b8 8E00     		.2byte	(.L33-.L32)/2
 581 00ba C200     		.2byte	(.L30-.L32)/2
 582 00bc C200     		.2byte	(.L30-.L32)/2
 583 00be 9E00     		.2byte	(.L31-.L32)/2
 584              		.p2align 1
 585              	.L67:
 152:Core/Src/NOS_LIB_Driver/Src/WS2812B.c ****     {
 153:Core/Src/NOS_LIB_Driver/Src/WS2812B.c **** /* English upper case */
 154:Core/Src/NOS_LIB_Driver/Src/WS2812B.c **** case 'A':
 155:Core/Src/NOS_LIB_Driver/Src/WS2812B.c ****     return Eng_A;
 156:Core/Src/NOS_LIB_Driver/Src/WS2812B.c ****     break;
 157:Core/Src/NOS_LIB_Driver/Src/WS2812B.c **** case 'B':
 158:Core/Src/NOS_LIB_Driver/Src/WS2812B.c ****     return Eng_B;
 159:Core/Src/NOS_LIB_Driver/Src/WS2812B.c ****     break;
 160:Core/Src/NOS_LIB_Driver/Src/WS2812B.c **** case 'C':
 161:Core/Src/NOS_LIB_Driver/Src/WS2812B.c ****     return Eng_C;
 162:Core/Src/NOS_LIB_Driver/Src/WS2812B.c ****     break;
 163:Core/Src/NOS_LIB_Driver/Src/WS2812B.c **** case 'D':
 164:Core/Src/NOS_LIB_Driver/Src/WS2812B.c ****     return Eng_D;
 165:Core/Src/NOS_LIB_Driver/Src/WS2812B.c ****     break;
 166:Core/Src/NOS_LIB_Driver/Src/WS2812B.c **** case 'E':
 167:Core/Src/NOS_LIB_Driver/Src/WS2812B.c ****     return Eng_E;
 168:Core/Src/NOS_LIB_Driver/Src/WS2812B.c ****     break;
 169:Core/Src/NOS_LIB_Driver/Src/WS2812B.c **** case 'F':
 170:Core/Src/NOS_LIB_Driver/Src/WS2812B.c ****     return Eng_F;
 171:Core/Src/NOS_LIB_Driver/Src/WS2812B.c ****     break;
 172:Core/Src/NOS_LIB_Driver/Src/WS2812B.c **** case 'G':
 173:Core/Src/NOS_LIB_Driver/Src/WS2812B.c ****     return Eng_G;
ARM GAS  C:\Users\user\AppData\Local\Temp\ccrAJRWE.s 			page 15


 174:Core/Src/NOS_LIB_Driver/Src/WS2812B.c ****     break;
 175:Core/Src/NOS_LIB_Driver/Src/WS2812B.c **** case 'H':
 176:Core/Src/NOS_LIB_Driver/Src/WS2812B.c ****     return Eng_H;
 177:Core/Src/NOS_LIB_Driver/Src/WS2812B.c ****     break;
 178:Core/Src/NOS_LIB_Driver/Src/WS2812B.c **** case 'I':
 179:Core/Src/NOS_LIB_Driver/Src/WS2812B.c ****     return Eng_I;
 180:Core/Src/NOS_LIB_Driver/Src/WS2812B.c ****     break;
 181:Core/Src/NOS_LIB_Driver/Src/WS2812B.c **** case 'J':
 182:Core/Src/NOS_LIB_Driver/Src/WS2812B.c ****     return Eng_J;
 183:Core/Src/NOS_LIB_Driver/Src/WS2812B.c ****     break;
 184:Core/Src/NOS_LIB_Driver/Src/WS2812B.c **** case 'K':
 185:Core/Src/NOS_LIB_Driver/Src/WS2812B.c ****     return Eng_K;
 186:Core/Src/NOS_LIB_Driver/Src/WS2812B.c ****     break;
 187:Core/Src/NOS_LIB_Driver/Src/WS2812B.c **** case 'L':
 188:Core/Src/NOS_LIB_Driver/Src/WS2812B.c ****     return Eng_L;
 189:Core/Src/NOS_LIB_Driver/Src/WS2812B.c ****     break;
 190:Core/Src/NOS_LIB_Driver/Src/WS2812B.c **** case 'M':
 191:Core/Src/NOS_LIB_Driver/Src/WS2812B.c ****     return Eng_M;
 192:Core/Src/NOS_LIB_Driver/Src/WS2812B.c ****     break;
 193:Core/Src/NOS_LIB_Driver/Src/WS2812B.c **** case 'N':
 194:Core/Src/NOS_LIB_Driver/Src/WS2812B.c ****     return Eng_N;
 195:Core/Src/NOS_LIB_Driver/Src/WS2812B.c ****     break;
 196:Core/Src/NOS_LIB_Driver/Src/WS2812B.c **** case 'O':
 197:Core/Src/NOS_LIB_Driver/Src/WS2812B.c ****     return Eng_O;
 198:Core/Src/NOS_LIB_Driver/Src/WS2812B.c ****     break;
 199:Core/Src/NOS_LIB_Driver/Src/WS2812B.c **** case 'P':
 200:Core/Src/NOS_LIB_Driver/Src/WS2812B.c ****     return Eng_P;
 201:Core/Src/NOS_LIB_Driver/Src/WS2812B.c ****     break;
 202:Core/Src/NOS_LIB_Driver/Src/WS2812B.c **** case 'Q':
 203:Core/Src/NOS_LIB_Driver/Src/WS2812B.c ****     return Eng_Q;
 204:Core/Src/NOS_LIB_Driver/Src/WS2812B.c ****     break;
 205:Core/Src/NOS_LIB_Driver/Src/WS2812B.c **** case 'R':
 206:Core/Src/NOS_LIB_Driver/Src/WS2812B.c ****     return Eng_R;
 207:Core/Src/NOS_LIB_Driver/Src/WS2812B.c ****     break;
 208:Core/Src/NOS_LIB_Driver/Src/WS2812B.c **** case 'S':
 209:Core/Src/NOS_LIB_Driver/Src/WS2812B.c ****     return Eng_S;
 210:Core/Src/NOS_LIB_Driver/Src/WS2812B.c ****     break;
 211:Core/Src/NOS_LIB_Driver/Src/WS2812B.c **** case 'T':
 212:Core/Src/NOS_LIB_Driver/Src/WS2812B.c ****     return Eng_T;
 213:Core/Src/NOS_LIB_Driver/Src/WS2812B.c ****     break;
 214:Core/Src/NOS_LIB_Driver/Src/WS2812B.c **** case 'U':
 215:Core/Src/NOS_LIB_Driver/Src/WS2812B.c ****     return Eng_U;
 216:Core/Src/NOS_LIB_Driver/Src/WS2812B.c ****     break;
 217:Core/Src/NOS_LIB_Driver/Src/WS2812B.c **** case 'V':
 218:Core/Src/NOS_LIB_Driver/Src/WS2812B.c ****     return Eng_V;
 219:Core/Src/NOS_LIB_Driver/Src/WS2812B.c ****     break;
 220:Core/Src/NOS_LIB_Driver/Src/WS2812B.c **** case 'W':
 221:Core/Src/NOS_LIB_Driver/Src/WS2812B.c ****     return Eng_W;
 222:Core/Src/NOS_LIB_Driver/Src/WS2812B.c ****     break;
 223:Core/Src/NOS_LIB_Driver/Src/WS2812B.c **** case 'X':
 224:Core/Src/NOS_LIB_Driver/Src/WS2812B.c ****     return Eng_X;
 225:Core/Src/NOS_LIB_Driver/Src/WS2812B.c ****     break;
 226:Core/Src/NOS_LIB_Driver/Src/WS2812B.c **** case 'Y':
 227:Core/Src/NOS_LIB_Driver/Src/WS2812B.c ****     return Eng_Y;
 228:Core/Src/NOS_LIB_Driver/Src/WS2812B.c ****     break;
 229:Core/Src/NOS_LIB_Driver/Src/WS2812B.c **** case 'Z':
 230:Core/Src/NOS_LIB_Driver/Src/WS2812B.c ****     return Eng_Z;
ARM GAS  C:\Users\user\AppData\Local\Temp\ccrAJRWE.s 			page 16


 231:Core/Src/NOS_LIB_Driver/Src/WS2812B.c ****     break;
 232:Core/Src/NOS_LIB_Driver/Src/WS2812B.c **** /* English upper case */
 233:Core/Src/NOS_LIB_Driver/Src/WS2812B.c **** 
 234:Core/Src/NOS_LIB_Driver/Src/WS2812B.c **** /* English lower case */
 235:Core/Src/NOS_LIB_Driver/Src/WS2812B.c **** case 'u':
 236:Core/Src/NOS_LIB_Driver/Src/WS2812B.c ****     return Eng_u;
 237:Core/Src/NOS_LIB_Driver/Src/WS2812B.c ****     break;
 238:Core/Src/NOS_LIB_Driver/Src/WS2812B.c **** case 'v':
 239:Core/Src/NOS_LIB_Driver/Src/WS2812B.c ****     return Eng_v;
 240:Core/Src/NOS_LIB_Driver/Src/WS2812B.c ****     break;
 241:Core/Src/NOS_LIB_Driver/Src/WS2812B.c **** case 'a':
 242:Core/Src/NOS_LIB_Driver/Src/WS2812B.c ****     return Eng_a;
 243:Core/Src/NOS_LIB_Driver/Src/WS2812B.c ****     break;
 244:Core/Src/NOS_LIB_Driver/Src/WS2812B.c **** case 'c':
 245:Core/Src/NOS_LIB_Driver/Src/WS2812B.c ****     return Eng_c;
 246:Core/Src/NOS_LIB_Driver/Src/WS2812B.c ****     break;
 247:Core/Src/NOS_LIB_Driver/Src/WS2812B.c **** /* English lower case */
 248:Core/Src/NOS_LIB_Driver/Src/WS2812B.c **** 
 249:Core/Src/NOS_LIB_Driver/Src/WS2812B.c **** case 'm':
 250:Core/Src/NOS_LIB_Driver/Src/WS2812B.c ****     return Ukr_m;
 251:Core/Src/NOS_LIB_Driver/Src/WS2812B.c ****     break;
 252:Core/Src/NOS_LIB_Driver/Src/WS2812B.c **** case 'k':
 253:Core/Src/NOS_LIB_Driver/Src/WS2812B.c ****     return Ukr_k;
 254:Core/Src/NOS_LIB_Driver/Src/WS2812B.c ****     break;
 255:Core/Src/NOS_LIB_Driver/Src/WS2812B.c **** case 'd':
 256:Core/Src/NOS_LIB_Driver/Src/WS2812B.c ****     return Ukr_d;
 257:Core/Src/NOS_LIB_Driver/Src/WS2812B.c ****     break;    
 258:Core/Src/NOS_LIB_Driver/Src/WS2812B.c **** case 'o':
 259:Core/Src/NOS_LIB_Driver/Src/WS2812B.c ****     return Eng_o;
 260:Core/Src/NOS_LIB_Driver/Src/WS2812B.c ****     break;     
 261:Core/Src/NOS_LIB_Driver/Src/WS2812B.c ****  case 'g':
 262:Core/Src/NOS_LIB_Driver/Src/WS2812B.c ****     return Ukr_g;
 263:Core/Src/NOS_LIB_Driver/Src/WS2812B.c ****     break;       
 264:Core/Src/NOS_LIB_Driver/Src/WS2812B.c **** case 'y':
 265:Core/Src/NOS_LIB_Driver/Src/WS2812B.c ****     return Ukr_ch;
 266:Core/Src/NOS_LIB_Driver/Src/WS2812B.c ****     break;
 267:Core/Src/NOS_LIB_Driver/Src/WS2812B.c **** 
 268:Core/Src/NOS_LIB_Driver/Src/WS2812B.c **** /* Special symvols */
 269:Core/Src/NOS_LIB_Driver/Src/WS2812B.c **** case ' ':
 270:Core/Src/NOS_LIB_Driver/Src/WS2812B.c ****     return Space;
 271:Core/Src/NOS_LIB_Driver/Src/WS2812B.c ****     break;
 272:Core/Src/NOS_LIB_Driver/Src/WS2812B.c **** case '+':
 273:Core/Src/NOS_LIB_Driver/Src/WS2812B.c ****     return Plus;
 274:Core/Src/NOS_LIB_Driver/Src/WS2812B.c ****     break;
 275:Core/Src/NOS_LIB_Driver/Src/WS2812B.c **** case '-':
 276:Core/Src/NOS_LIB_Driver/Src/WS2812B.c ****     return Minus;
 277:Core/Src/NOS_LIB_Driver/Src/WS2812B.c ****     break;    
 278:Core/Src/NOS_LIB_Driver/Src/WS2812B.c **** case '/':
 279:Core/Src/NOS_LIB_Driver/Src/WS2812B.c ****     return Slash;
 280:Core/Src/NOS_LIB_Driver/Src/WS2812B.c ****     break;
 281:Core/Src/NOS_LIB_Driver/Src/WS2812B.c **** case '*':
 282:Core/Src/NOS_LIB_Driver/Src/WS2812B.c ****     return Celcium;
 283:Core/Src/NOS_LIB_Driver/Src/WS2812B.c ****     break;
 284:Core/Src/NOS_LIB_Driver/Src/WS2812B.c **** case '.':
 285:Core/Src/NOS_LIB_Driver/Src/WS2812B.c ****     return Dot;
 286:Core/Src/NOS_LIB_Driver/Src/WS2812B.c ****     break;
 287:Core/Src/NOS_LIB_Driver/Src/WS2812B.c **** case ':':
ARM GAS  C:\Users\user\AppData\Local\Temp\ccrAJRWE.s 			page 17


 288:Core/Src/NOS_LIB_Driver/Src/WS2812B.c ****     return DoubleDot;
 289:Core/Src/NOS_LIB_Driver/Src/WS2812B.c ****     break;
 290:Core/Src/NOS_LIB_Driver/Src/WS2812B.c **** 
 291:Core/Src/NOS_LIB_Driver/Src/WS2812B.c **** 
 292:Core/Src/NOS_LIB_Driver/Src/WS2812B.c **** 
 293:Core/Src/NOS_LIB_Driver/Src/WS2812B.c **** /* Special symvols */
 294:Core/Src/NOS_LIB_Driver/Src/WS2812B.c **** 
 295:Core/Src/NOS_LIB_Driver/Src/WS2812B.c **** /* Numbers */
 296:Core/Src/NOS_LIB_Driver/Src/WS2812B.c **** case '0':
 297:Core/Src/NOS_LIB_Driver/Src/WS2812B.c ****     return Num_0;
 298:Core/Src/NOS_LIB_Driver/Src/WS2812B.c ****     break;
 299:Core/Src/NOS_LIB_Driver/Src/WS2812B.c ****     case '1':
 300:Core/Src/NOS_LIB_Driver/Src/WS2812B.c ****     return Num_1;
 301:Core/Src/NOS_LIB_Driver/Src/WS2812B.c ****     break;
 302:Core/Src/NOS_LIB_Driver/Src/WS2812B.c ****     case '2':
 303:Core/Src/NOS_LIB_Driver/Src/WS2812B.c ****     return Num_2;
 304:Core/Src/NOS_LIB_Driver/Src/WS2812B.c ****     break;
 305:Core/Src/NOS_LIB_Driver/Src/WS2812B.c ****     case '3':
 306:Core/Src/NOS_LIB_Driver/Src/WS2812B.c ****     return Num_3;
 307:Core/Src/NOS_LIB_Driver/Src/WS2812B.c ****     break;
 308:Core/Src/NOS_LIB_Driver/Src/WS2812B.c ****     case '4':
 309:Core/Src/NOS_LIB_Driver/Src/WS2812B.c ****     return Num_4;
 310:Core/Src/NOS_LIB_Driver/Src/WS2812B.c ****     break;
 311:Core/Src/NOS_LIB_Driver/Src/WS2812B.c ****     case '5':
 312:Core/Src/NOS_LIB_Driver/Src/WS2812B.c ****     return Num_5;
 313:Core/Src/NOS_LIB_Driver/Src/WS2812B.c ****     break;
 314:Core/Src/NOS_LIB_Driver/Src/WS2812B.c ****     case '6':
 315:Core/Src/NOS_LIB_Driver/Src/WS2812B.c ****     return Num_6;
 316:Core/Src/NOS_LIB_Driver/Src/WS2812B.c ****     break;
 317:Core/Src/NOS_LIB_Driver/Src/WS2812B.c ****     case '7':
 318:Core/Src/NOS_LIB_Driver/Src/WS2812B.c ****     return Num_7;
 319:Core/Src/NOS_LIB_Driver/Src/WS2812B.c ****     break;
 320:Core/Src/NOS_LIB_Driver/Src/WS2812B.c ****     case '8':
 321:Core/Src/NOS_LIB_Driver/Src/WS2812B.c ****     return Num_8;
 322:Core/Src/NOS_LIB_Driver/Src/WS2812B.c ****     break;
 323:Core/Src/NOS_LIB_Driver/Src/WS2812B.c ****     case '9':
 324:Core/Src/NOS_LIB_Driver/Src/WS2812B.c ****     return Num_9;
 586              		.loc 1 324 12 view .LVU128
 587 00c0 3548     		ldr	r0, .L86
 588 00c2 7047     		bx	lr
 589              	.L65:
 159:Core/Src/NOS_LIB_Driver/Src/WS2812B.c **** case 'C':
 590              		.loc 1 159 5 is_stmt 1 view .LVU129
 161:Core/Src/NOS_LIB_Driver/Src/WS2812B.c ****     break;
 591              		.loc 1 161 5 view .LVU130
 161:Core/Src/NOS_LIB_Driver/Src/WS2812B.c ****     break;
 592              		.loc 1 161 12 is_stmt 0 view .LVU131
 593 00c4 3548     		ldr	r0, .L86+4
 594 00c6 7047     		bx	lr
 595              	.L64:
 162:Core/Src/NOS_LIB_Driver/Src/WS2812B.c **** case 'D':
 596              		.loc 1 162 5 is_stmt 1 view .LVU132
 164:Core/Src/NOS_LIB_Driver/Src/WS2812B.c ****     break;
 597              		.loc 1 164 5 view .LVU133
 164:Core/Src/NOS_LIB_Driver/Src/WS2812B.c ****     break;
 598              		.loc 1 164 12 is_stmt 0 view .LVU134
 599 00c8 3548     		ldr	r0, .L86+8
ARM GAS  C:\Users\user\AppData\Local\Temp\ccrAJRWE.s 			page 18


 600 00ca 7047     		bx	lr
 601              	.L63:
 165:Core/Src/NOS_LIB_Driver/Src/WS2812B.c **** case 'E':
 602              		.loc 1 165 5 is_stmt 1 view .LVU135
 167:Core/Src/NOS_LIB_Driver/Src/WS2812B.c ****     break;
 603              		.loc 1 167 5 view .LVU136
 167:Core/Src/NOS_LIB_Driver/Src/WS2812B.c ****     break;
 604              		.loc 1 167 12 is_stmt 0 view .LVU137
 605 00cc 3548     		ldr	r0, .L86+12
 606 00ce 7047     		bx	lr
 607              	.L62:
 168:Core/Src/NOS_LIB_Driver/Src/WS2812B.c **** case 'F':
 608              		.loc 1 168 5 is_stmt 1 view .LVU138
 170:Core/Src/NOS_LIB_Driver/Src/WS2812B.c ****     break;
 609              		.loc 1 170 5 view .LVU139
 170:Core/Src/NOS_LIB_Driver/Src/WS2812B.c ****     break;
 610              		.loc 1 170 12 is_stmt 0 view .LVU140
 611 00d0 3548     		ldr	r0, .L86+16
 612 00d2 7047     		bx	lr
 613              	.L61:
 171:Core/Src/NOS_LIB_Driver/Src/WS2812B.c **** case 'G':
 614              		.loc 1 171 5 is_stmt 1 view .LVU141
 173:Core/Src/NOS_LIB_Driver/Src/WS2812B.c ****     break;
 615              		.loc 1 173 5 view .LVU142
 173:Core/Src/NOS_LIB_Driver/Src/WS2812B.c ****     break;
 616              		.loc 1 173 12 is_stmt 0 view .LVU143
 617 00d4 3548     		ldr	r0, .L86+20
 618 00d6 7047     		bx	lr
 619              	.L60:
 174:Core/Src/NOS_LIB_Driver/Src/WS2812B.c **** case 'H':
 620              		.loc 1 174 5 is_stmt 1 view .LVU144
 176:Core/Src/NOS_LIB_Driver/Src/WS2812B.c ****     break;
 621              		.loc 1 176 5 view .LVU145
 176:Core/Src/NOS_LIB_Driver/Src/WS2812B.c ****     break;
 622              		.loc 1 176 12 is_stmt 0 view .LVU146
 623 00d8 3548     		ldr	r0, .L86+24
 624 00da 7047     		bx	lr
 625              	.L59:
 177:Core/Src/NOS_LIB_Driver/Src/WS2812B.c **** case 'I':
 626              		.loc 1 177 5 is_stmt 1 view .LVU147
 179:Core/Src/NOS_LIB_Driver/Src/WS2812B.c ****     break;
 627              		.loc 1 179 5 view .LVU148
 179:Core/Src/NOS_LIB_Driver/Src/WS2812B.c ****     break;
 628              		.loc 1 179 12 is_stmt 0 view .LVU149
 629 00dc 3548     		ldr	r0, .L86+28
 630 00de 7047     		bx	lr
 631              	.L58:
 180:Core/Src/NOS_LIB_Driver/Src/WS2812B.c **** case 'J':
 632              		.loc 1 180 5 is_stmt 1 view .LVU150
 182:Core/Src/NOS_LIB_Driver/Src/WS2812B.c ****     break;
 633              		.loc 1 182 5 view .LVU151
 182:Core/Src/NOS_LIB_Driver/Src/WS2812B.c ****     break;
 634              		.loc 1 182 12 is_stmt 0 view .LVU152
 635 00e0 3548     		ldr	r0, .L86+32
 636 00e2 7047     		bx	lr
 637              	.L57:
 183:Core/Src/NOS_LIB_Driver/Src/WS2812B.c **** case 'K':
ARM GAS  C:\Users\user\AppData\Local\Temp\ccrAJRWE.s 			page 19


 638              		.loc 1 183 5 is_stmt 1 view .LVU153
 185:Core/Src/NOS_LIB_Driver/Src/WS2812B.c ****     break;
 639              		.loc 1 185 5 view .LVU154
 185:Core/Src/NOS_LIB_Driver/Src/WS2812B.c ****     break;
 640              		.loc 1 185 12 is_stmt 0 view .LVU155
 641 00e4 3548     		ldr	r0, .L86+36
 642 00e6 7047     		bx	lr
 643              	.L56:
 186:Core/Src/NOS_LIB_Driver/Src/WS2812B.c **** case 'L':
 644              		.loc 1 186 5 is_stmt 1 view .LVU156
 188:Core/Src/NOS_LIB_Driver/Src/WS2812B.c ****     break;
 645              		.loc 1 188 5 view .LVU157
 188:Core/Src/NOS_LIB_Driver/Src/WS2812B.c ****     break;
 646              		.loc 1 188 12 is_stmt 0 view .LVU158
 647 00e8 3548     		ldr	r0, .L86+40
 648 00ea 7047     		bx	lr
 649              	.L55:
 189:Core/Src/NOS_LIB_Driver/Src/WS2812B.c **** case 'M':
 650              		.loc 1 189 5 is_stmt 1 view .LVU159
 191:Core/Src/NOS_LIB_Driver/Src/WS2812B.c ****     break;
 651              		.loc 1 191 5 view .LVU160
 191:Core/Src/NOS_LIB_Driver/Src/WS2812B.c ****     break;
 652              		.loc 1 191 12 is_stmt 0 view .LVU161
 653 00ec 3548     		ldr	r0, .L86+44
 654 00ee 7047     		bx	lr
 655              	.L54:
 192:Core/Src/NOS_LIB_Driver/Src/WS2812B.c **** case 'N':
 656              		.loc 1 192 5 is_stmt 1 view .LVU162
 194:Core/Src/NOS_LIB_Driver/Src/WS2812B.c ****     break;
 657              		.loc 1 194 5 view .LVU163
 194:Core/Src/NOS_LIB_Driver/Src/WS2812B.c ****     break;
 658              		.loc 1 194 12 is_stmt 0 view .LVU164
 659 00f0 3548     		ldr	r0, .L86+48
 660 00f2 7047     		bx	lr
 661              	.L53:
 195:Core/Src/NOS_LIB_Driver/Src/WS2812B.c **** case 'O':
 662              		.loc 1 195 5 is_stmt 1 view .LVU165
 197:Core/Src/NOS_LIB_Driver/Src/WS2812B.c ****     break;
 663              		.loc 1 197 5 view .LVU166
 197:Core/Src/NOS_LIB_Driver/Src/WS2812B.c ****     break;
 664              		.loc 1 197 12 is_stmt 0 view .LVU167
 665 00f4 3548     		ldr	r0, .L86+52
 666 00f6 7047     		bx	lr
 667              	.L52:
 198:Core/Src/NOS_LIB_Driver/Src/WS2812B.c **** case 'P':
 668              		.loc 1 198 5 is_stmt 1 view .LVU168
 200:Core/Src/NOS_LIB_Driver/Src/WS2812B.c ****     break;
 669              		.loc 1 200 5 view .LVU169
 200:Core/Src/NOS_LIB_Driver/Src/WS2812B.c ****     break;
 670              		.loc 1 200 12 is_stmt 0 view .LVU170
 671 00f8 3548     		ldr	r0, .L86+56
 672 00fa 7047     		bx	lr
 673              	.L51:
 201:Core/Src/NOS_LIB_Driver/Src/WS2812B.c **** case 'Q':
 674              		.loc 1 201 5 is_stmt 1 view .LVU171
 203:Core/Src/NOS_LIB_Driver/Src/WS2812B.c ****     break;
 675              		.loc 1 203 5 view .LVU172
ARM GAS  C:\Users\user\AppData\Local\Temp\ccrAJRWE.s 			page 20


 203:Core/Src/NOS_LIB_Driver/Src/WS2812B.c ****     break;
 676              		.loc 1 203 12 is_stmt 0 view .LVU173
 677 00fc 3548     		ldr	r0, .L86+60
 678 00fe 7047     		bx	lr
 679              	.L50:
 204:Core/Src/NOS_LIB_Driver/Src/WS2812B.c **** case 'R':
 680              		.loc 1 204 5 is_stmt 1 view .LVU174
 206:Core/Src/NOS_LIB_Driver/Src/WS2812B.c ****     break;
 681              		.loc 1 206 5 view .LVU175
 206:Core/Src/NOS_LIB_Driver/Src/WS2812B.c ****     break;
 682              		.loc 1 206 12 is_stmt 0 view .LVU176
 683 0100 3548     		ldr	r0, .L86+64
 684 0102 7047     		bx	lr
 685              	.L49:
 207:Core/Src/NOS_LIB_Driver/Src/WS2812B.c **** case 'S':
 686              		.loc 1 207 5 is_stmt 1 view .LVU177
 209:Core/Src/NOS_LIB_Driver/Src/WS2812B.c ****     break;
 687              		.loc 1 209 5 view .LVU178
 209:Core/Src/NOS_LIB_Driver/Src/WS2812B.c ****     break;
 688              		.loc 1 209 12 is_stmt 0 view .LVU179
 689 0104 3548     		ldr	r0, .L86+68
 690 0106 7047     		bx	lr
 691              	.L48:
 210:Core/Src/NOS_LIB_Driver/Src/WS2812B.c **** case 'T':
 692              		.loc 1 210 5 is_stmt 1 view .LVU180
 212:Core/Src/NOS_LIB_Driver/Src/WS2812B.c ****     break;
 693              		.loc 1 212 5 view .LVU181
 212:Core/Src/NOS_LIB_Driver/Src/WS2812B.c ****     break;
 694              		.loc 1 212 12 is_stmt 0 view .LVU182
 695 0108 3548     		ldr	r0, .L86+72
 696 010a 7047     		bx	lr
 697              	.L47:
 213:Core/Src/NOS_LIB_Driver/Src/WS2812B.c **** case 'U':
 698              		.loc 1 213 5 is_stmt 1 view .LVU183
 215:Core/Src/NOS_LIB_Driver/Src/WS2812B.c ****     break;
 699              		.loc 1 215 5 view .LVU184
 215:Core/Src/NOS_LIB_Driver/Src/WS2812B.c ****     break;
 700              		.loc 1 215 12 is_stmt 0 view .LVU185
 701 010c 3548     		ldr	r0, .L86+76
 702 010e 7047     		bx	lr
 703              	.L46:
 216:Core/Src/NOS_LIB_Driver/Src/WS2812B.c **** case 'V':
 704              		.loc 1 216 5 is_stmt 1 view .LVU186
 218:Core/Src/NOS_LIB_Driver/Src/WS2812B.c ****     break;
 705              		.loc 1 218 5 view .LVU187
 218:Core/Src/NOS_LIB_Driver/Src/WS2812B.c ****     break;
 706              		.loc 1 218 12 is_stmt 0 view .LVU188
 707 0110 3548     		ldr	r0, .L86+80
 708 0112 7047     		bx	lr
 709              	.L45:
 219:Core/Src/NOS_LIB_Driver/Src/WS2812B.c **** case 'W':
 710              		.loc 1 219 5 is_stmt 1 view .LVU189
 221:Core/Src/NOS_LIB_Driver/Src/WS2812B.c ****     break;
 711              		.loc 1 221 5 view .LVU190
 221:Core/Src/NOS_LIB_Driver/Src/WS2812B.c ****     break;
 712              		.loc 1 221 12 is_stmt 0 view .LVU191
 713 0114 3548     		ldr	r0, .L86+84
ARM GAS  C:\Users\user\AppData\Local\Temp\ccrAJRWE.s 			page 21


 714 0116 7047     		bx	lr
 715              	.L44:
 222:Core/Src/NOS_LIB_Driver/Src/WS2812B.c **** case 'X':
 716              		.loc 1 222 5 is_stmt 1 view .LVU192
 224:Core/Src/NOS_LIB_Driver/Src/WS2812B.c ****     break;
 717              		.loc 1 224 5 view .LVU193
 224:Core/Src/NOS_LIB_Driver/Src/WS2812B.c ****     break;
 718              		.loc 1 224 12 is_stmt 0 view .LVU194
 719 0118 3548     		ldr	r0, .L86+88
 720 011a 7047     		bx	lr
 721              	.L43:
 225:Core/Src/NOS_LIB_Driver/Src/WS2812B.c **** case 'Y':
 722              		.loc 1 225 5 is_stmt 1 view .LVU195
 227:Core/Src/NOS_LIB_Driver/Src/WS2812B.c ****     break;
 723              		.loc 1 227 5 view .LVU196
 227:Core/Src/NOS_LIB_Driver/Src/WS2812B.c ****     break;
 724              		.loc 1 227 12 is_stmt 0 view .LVU197
 725 011c 3548     		ldr	r0, .L86+92
 726 011e 7047     		bx	lr
 727              	.L42:
 228:Core/Src/NOS_LIB_Driver/Src/WS2812B.c **** case 'Z':
 728              		.loc 1 228 5 is_stmt 1 view .LVU198
 230:Core/Src/NOS_LIB_Driver/Src/WS2812B.c ****     break;
 729              		.loc 1 230 5 view .LVU199
 230:Core/Src/NOS_LIB_Driver/Src/WS2812B.c ****     break;
 730              		.loc 1 230 12 is_stmt 0 view .LVU200
 731 0120 3548     		ldr	r0, .L86+96
 732 0122 7047     		bx	lr
 733              	.L34:
 231:Core/Src/NOS_LIB_Driver/Src/WS2812B.c **** /* English upper case */
 734              		.loc 1 231 5 is_stmt 1 view .LVU201
 236:Core/Src/NOS_LIB_Driver/Src/WS2812B.c ****     break;
 735              		.loc 1 236 5 view .LVU202
 236:Core/Src/NOS_LIB_Driver/Src/WS2812B.c ****     break;
 736              		.loc 1 236 12 is_stmt 0 view .LVU203
 737 0124 3548     		ldr	r0, .L86+100
 738 0126 7047     		bx	lr
 739              	.L33:
 237:Core/Src/NOS_LIB_Driver/Src/WS2812B.c **** case 'v':
 740              		.loc 1 237 5 is_stmt 1 view .LVU204
 239:Core/Src/NOS_LIB_Driver/Src/WS2812B.c ****     break;
 741              		.loc 1 239 5 view .LVU205
 239:Core/Src/NOS_LIB_Driver/Src/WS2812B.c ****     break;
 742              		.loc 1 239 12 is_stmt 0 view .LVU206
 743 0128 3548     		ldr	r0, .L86+104
 744 012a 7047     		bx	lr
 745              	.L41:
 240:Core/Src/NOS_LIB_Driver/Src/WS2812B.c **** case 'a':
 746              		.loc 1 240 5 is_stmt 1 view .LVU207
 242:Core/Src/NOS_LIB_Driver/Src/WS2812B.c ****     break;
 747              		.loc 1 242 5 view .LVU208
 242:Core/Src/NOS_LIB_Driver/Src/WS2812B.c ****     break;
 748              		.loc 1 242 12 is_stmt 0 view .LVU209
 749 012c 3548     		ldr	r0, .L86+108
 750 012e 7047     		bx	lr
 751              	.L40:
 243:Core/Src/NOS_LIB_Driver/Src/WS2812B.c **** case 'c':
ARM GAS  C:\Users\user\AppData\Local\Temp\ccrAJRWE.s 			page 22


 752              		.loc 1 243 5 is_stmt 1 view .LVU210
 245:Core/Src/NOS_LIB_Driver/Src/WS2812B.c ****     break;
 753              		.loc 1 245 5 view .LVU211
 245:Core/Src/NOS_LIB_Driver/Src/WS2812B.c ****     break;
 754              		.loc 1 245 12 is_stmt 0 view .LVU212
 755 0130 3548     		ldr	r0, .L86+112
 756 0132 7047     		bx	lr
 757              	.L36:
 246:Core/Src/NOS_LIB_Driver/Src/WS2812B.c **** /* English lower case */
 758              		.loc 1 246 5 is_stmt 1 view .LVU213
 250:Core/Src/NOS_LIB_Driver/Src/WS2812B.c ****     break;
 759              		.loc 1 250 5 view .LVU214
 250:Core/Src/NOS_LIB_Driver/Src/WS2812B.c ****     break;
 760              		.loc 1 250 12 is_stmt 0 view .LVU215
 761 0134 3548     		ldr	r0, .L86+116
 762 0136 7047     		bx	lr
 763              	.L37:
 251:Core/Src/NOS_LIB_Driver/Src/WS2812B.c **** case 'k':
 764              		.loc 1 251 5 is_stmt 1 view .LVU216
 253:Core/Src/NOS_LIB_Driver/Src/WS2812B.c ****     break;
 765              		.loc 1 253 5 view .LVU217
 253:Core/Src/NOS_LIB_Driver/Src/WS2812B.c ****     break;
 766              		.loc 1 253 12 is_stmt 0 view .LVU218
 767 0138 3548     		ldr	r0, .L86+120
 768 013a 7047     		bx	lr
 769              	.L39:
 254:Core/Src/NOS_LIB_Driver/Src/WS2812B.c **** case 'd':
 770              		.loc 1 254 5 is_stmt 1 view .LVU219
 256:Core/Src/NOS_LIB_Driver/Src/WS2812B.c ****     break;    
 771              		.loc 1 256 5 view .LVU220
 256:Core/Src/NOS_LIB_Driver/Src/WS2812B.c ****     break;    
 772              		.loc 1 256 12 is_stmt 0 view .LVU221
 773 013c 3548     		ldr	r0, .L86+124
 774 013e 7047     		bx	lr
 775              	.L35:
 257:Core/Src/NOS_LIB_Driver/Src/WS2812B.c **** case 'o':
 776              		.loc 1 257 5 is_stmt 1 view .LVU222
 259:Core/Src/NOS_LIB_Driver/Src/WS2812B.c ****     break;     
 777              		.loc 1 259 5 view .LVU223
 259:Core/Src/NOS_LIB_Driver/Src/WS2812B.c ****     break;     
 778              		.loc 1 259 12 is_stmt 0 view .LVU224
 779 0140 3548     		ldr	r0, .L86+128
 780 0142 7047     		bx	lr
 781              	.L38:
 260:Core/Src/NOS_LIB_Driver/Src/WS2812B.c ****  case 'g':
 782              		.loc 1 260 5 is_stmt 1 view .LVU225
 262:Core/Src/NOS_LIB_Driver/Src/WS2812B.c ****     break;       
 783              		.loc 1 262 5 view .LVU226
 262:Core/Src/NOS_LIB_Driver/Src/WS2812B.c ****     break;       
 784              		.loc 1 262 12 is_stmt 0 view .LVU227
 785 0144 3548     		ldr	r0, .L86+132
 786 0146 7047     		bx	lr
 787              	.L31:
 263:Core/Src/NOS_LIB_Driver/Src/WS2812B.c **** case 'y':
 788              		.loc 1 263 5 is_stmt 1 view .LVU228
 265:Core/Src/NOS_LIB_Driver/Src/WS2812B.c ****     break;
 789              		.loc 1 265 5 view .LVU229
ARM GAS  C:\Users\user\AppData\Local\Temp\ccrAJRWE.s 			page 23


 265:Core/Src/NOS_LIB_Driver/Src/WS2812B.c ****     break;
 790              		.loc 1 265 12 is_stmt 0 view .LVU230
 791 0148 3548     		ldr	r0, .L86+136
 792 014a 7047     		bx	lr
 793              	.L84:
 266:Core/Src/NOS_LIB_Driver/Src/WS2812B.c **** 
 794              		.loc 1 266 5 is_stmt 1 view .LVU231
 270:Core/Src/NOS_LIB_Driver/Src/WS2812B.c ****     break;
 795              		.loc 1 270 5 view .LVU232
 270:Core/Src/NOS_LIB_Driver/Src/WS2812B.c ****     break;
 796              		.loc 1 270 12 is_stmt 0 view .LVU233
 797 014c 3548     		ldr	r0, .L86+140
 798 014e 7047     		bx	lr
 799              	.L82:
 271:Core/Src/NOS_LIB_Driver/Src/WS2812B.c **** case '+':
 800              		.loc 1 271 5 is_stmt 1 view .LVU234
 273:Core/Src/NOS_LIB_Driver/Src/WS2812B.c ****     break;
 801              		.loc 1 273 5 view .LVU235
 273:Core/Src/NOS_LIB_Driver/Src/WS2812B.c ****     break;
 802              		.loc 1 273 12 is_stmt 0 view .LVU236
 803 0150 3548     		ldr	r0, .L86+144
 804 0152 7047     		bx	lr
 805              	.L81:
 274:Core/Src/NOS_LIB_Driver/Src/WS2812B.c **** case '-':
 806              		.loc 1 274 5 is_stmt 1 view .LVU237
 276:Core/Src/NOS_LIB_Driver/Src/WS2812B.c ****     break;    
 807              		.loc 1 276 5 view .LVU238
 276:Core/Src/NOS_LIB_Driver/Src/WS2812B.c ****     break;    
 808              		.loc 1 276 12 is_stmt 0 view .LVU239
 809 0154 3548     		ldr	r0, .L86+148
 810 0156 7047     		bx	lr
 811              	.L79:
 277:Core/Src/NOS_LIB_Driver/Src/WS2812B.c **** case '/':
 812              		.loc 1 277 5 is_stmt 1 view .LVU240
 279:Core/Src/NOS_LIB_Driver/Src/WS2812B.c ****     break;
 813              		.loc 1 279 5 view .LVU241
 279:Core/Src/NOS_LIB_Driver/Src/WS2812B.c ****     break;
 814              		.loc 1 279 12 is_stmt 0 view .LVU242
 815 0158 3548     		ldr	r0, .L86+152
 816 015a 7047     		bx	lr
 817              	.L83:
 280:Core/Src/NOS_LIB_Driver/Src/WS2812B.c **** case '*':
 818              		.loc 1 280 5 is_stmt 1 view .LVU243
 282:Core/Src/NOS_LIB_Driver/Src/WS2812B.c ****     break;
 819              		.loc 1 282 5 view .LVU244
 282:Core/Src/NOS_LIB_Driver/Src/WS2812B.c ****     break;
 820              		.loc 1 282 12 is_stmt 0 view .LVU245
 821 015c 3548     		ldr	r0, .L86+156
 822 015e 7047     		bx	lr
 823              	.L80:
 283:Core/Src/NOS_LIB_Driver/Src/WS2812B.c **** case '.':
 824              		.loc 1 283 5 is_stmt 1 view .LVU246
 285:Core/Src/NOS_LIB_Driver/Src/WS2812B.c ****     break;
 825              		.loc 1 285 5 view .LVU247
 285:Core/Src/NOS_LIB_Driver/Src/WS2812B.c ****     break;
 826              		.loc 1 285 12 is_stmt 0 view .LVU248
 827 0160 3548     		ldr	r0, .L86+160
ARM GAS  C:\Users\user\AppData\Local\Temp\ccrAJRWE.s 			page 24


 828 0162 7047     		bx	lr
 829              	.L68:
 286:Core/Src/NOS_LIB_Driver/Src/WS2812B.c **** case ':':
 830              		.loc 1 286 5 is_stmt 1 view .LVU249
 288:Core/Src/NOS_LIB_Driver/Src/WS2812B.c ****     break;
 831              		.loc 1 288 5 view .LVU250
 288:Core/Src/NOS_LIB_Driver/Src/WS2812B.c ****     break;
 832              		.loc 1 288 12 is_stmt 0 view .LVU251
 833 0164 3548     		ldr	r0, .L86+164
 834 0166 7047     		bx	lr
 835              	.L78:
 289:Core/Src/NOS_LIB_Driver/Src/WS2812B.c **** 
 836              		.loc 1 289 5 is_stmt 1 view .LVU252
 297:Core/Src/NOS_LIB_Driver/Src/WS2812B.c ****     break;
 837              		.loc 1 297 5 view .LVU253
 297:Core/Src/NOS_LIB_Driver/Src/WS2812B.c ****     break;
 838              		.loc 1 297 12 is_stmt 0 view .LVU254
 839 0168 3548     		ldr	r0, .L86+168
 840 016a 7047     		bx	lr
 841              	.L77:
 298:Core/Src/NOS_LIB_Driver/Src/WS2812B.c ****     case '1':
 842              		.loc 1 298 5 is_stmt 1 view .LVU255
 300:Core/Src/NOS_LIB_Driver/Src/WS2812B.c ****     break;
 843              		.loc 1 300 5 view .LVU256
 300:Core/Src/NOS_LIB_Driver/Src/WS2812B.c ****     break;
 844              		.loc 1 300 12 is_stmt 0 view .LVU257
 845 016c 3548     		ldr	r0, .L86+172
 846 016e 7047     		bx	lr
 847              	.L76:
 301:Core/Src/NOS_LIB_Driver/Src/WS2812B.c ****     case '2':
 848              		.loc 1 301 5 is_stmt 1 view .LVU258
 303:Core/Src/NOS_LIB_Driver/Src/WS2812B.c ****     break;
 849              		.loc 1 303 5 view .LVU259
 303:Core/Src/NOS_LIB_Driver/Src/WS2812B.c ****     break;
 850              		.loc 1 303 12 is_stmt 0 view .LVU260
 851 0170 3548     		ldr	r0, .L86+176
 852 0172 7047     		bx	lr
 853              	.L75:
 304:Core/Src/NOS_LIB_Driver/Src/WS2812B.c ****     case '3':
 854              		.loc 1 304 5 is_stmt 1 view .LVU261
 306:Core/Src/NOS_LIB_Driver/Src/WS2812B.c ****     break;
 855              		.loc 1 306 5 view .LVU262
 306:Core/Src/NOS_LIB_Driver/Src/WS2812B.c ****     break;
 856              		.loc 1 306 12 is_stmt 0 view .LVU263
 857 0174 3548     		ldr	r0, .L86+180
 858 0176 7047     		bx	lr
 859              	.L74:
 307:Core/Src/NOS_LIB_Driver/Src/WS2812B.c ****     case '4':
 860              		.loc 1 307 5 is_stmt 1 view .LVU264
 309:Core/Src/NOS_LIB_Driver/Src/WS2812B.c ****     break;
 861              		.loc 1 309 5 view .LVU265
 309:Core/Src/NOS_LIB_Driver/Src/WS2812B.c ****     break;
 862              		.loc 1 309 12 is_stmt 0 view .LVU266
 863 0178 3548     		ldr	r0, .L86+184
 864 017a 7047     		bx	lr
 865              	.L73:
 310:Core/Src/NOS_LIB_Driver/Src/WS2812B.c ****     case '5':
ARM GAS  C:\Users\user\AppData\Local\Temp\ccrAJRWE.s 			page 25


 866              		.loc 1 310 5 is_stmt 1 view .LVU267
 312:Core/Src/NOS_LIB_Driver/Src/WS2812B.c ****     break;
 867              		.loc 1 312 5 view .LVU268
 312:Core/Src/NOS_LIB_Driver/Src/WS2812B.c ****     break;
 868              		.loc 1 312 12 is_stmt 0 view .LVU269
 869 017c 3548     		ldr	r0, .L86+188
 870 017e 7047     		bx	lr
 871              	.L72:
 313:Core/Src/NOS_LIB_Driver/Src/WS2812B.c ****     case '6':
 872              		.loc 1 313 5 is_stmt 1 view .LVU270
 315:Core/Src/NOS_LIB_Driver/Src/WS2812B.c ****     break;
 873              		.loc 1 315 5 view .LVU271
 315:Core/Src/NOS_LIB_Driver/Src/WS2812B.c ****     break;
 874              		.loc 1 315 12 is_stmt 0 view .LVU272
 875 0180 3548     		ldr	r0, .L86+192
 876 0182 7047     		bx	lr
 877              	.L71:
 316:Core/Src/NOS_LIB_Driver/Src/WS2812B.c ****     case '7':
 878              		.loc 1 316 5 is_stmt 1 view .LVU273
 318:Core/Src/NOS_LIB_Driver/Src/WS2812B.c ****     break;
 879              		.loc 1 318 5 view .LVU274
 318:Core/Src/NOS_LIB_Driver/Src/WS2812B.c ****     break;
 880              		.loc 1 318 12 is_stmt 0 view .LVU275
 881 0184 3548     		ldr	r0, .L86+196
 882 0186 7047     		bx	lr
 883              	.L70:
 319:Core/Src/NOS_LIB_Driver/Src/WS2812B.c ****     case '8':
 884              		.loc 1 319 5 is_stmt 1 view .LVU276
 321:Core/Src/NOS_LIB_Driver/Src/WS2812B.c ****     break;
 885              		.loc 1 321 5 view .LVU277
 321:Core/Src/NOS_LIB_Driver/Src/WS2812B.c ****     break;
 886              		.loc 1 321 12 is_stmt 0 view .LVU278
 887 0188 3548     		ldr	r0, .L86+200
 888 018a 7047     		bx	lr
 889              	.L69:
 322:Core/Src/NOS_LIB_Driver/Src/WS2812B.c ****     case '9':
 890              		.loc 1 322 5 is_stmt 1 view .LVU279
 891              		.loc 1 324 5 view .LVU280
 892              		.loc 1 324 12 is_stmt 0 view .LVU281
 893 018c 3548     		ldr	r0, .L86+204
 894 018e 7047     		bx	lr
 895              	.L30:
 325:Core/Src/NOS_LIB_Driver/Src/WS2812B.c ****     break;
 896              		.loc 1 325 5 is_stmt 1 view .LVU282
 326:Core/Src/NOS_LIB_Driver/Src/WS2812B.c **** /* Numbers */
 327:Core/Src/NOS_LIB_Driver/Src/WS2812B.c **** 
 328:Core/Src/NOS_LIB_Driver/Src/WS2812B.c ****     default:
 329:Core/Src/NOS_LIB_Driver/Src/WS2812B.c ****     return 0;
 897              		.loc 1 329 5 view .LVU283
 898              		.loc 1 329 12 is_stmt 0 view .LVU284
 899 0190 0020     		movs	r0, #0
 900 0192 7047     		bx	lr
 901              	.L85:
 158:Core/Src/NOS_LIB_Driver/Src/WS2812B.c ****     break;
 902              		.loc 1 158 12 view .LVU285
 903 0194 3448     		ldr	r0, .L86+208
 330:Core/Src/NOS_LIB_Driver/Src/WS2812B.c ****         break;
ARM GAS  C:\Users\user\AppData\Local\Temp\ccrAJRWE.s 			page 26


 904              		.loc 1 330 9 is_stmt 1 view .LVU286
 331:Core/Src/NOS_LIB_Driver/Src/WS2812B.c ****     }
 332:Core/Src/NOS_LIB_Driver/Src/WS2812B.c **** }
 905              		.loc 1 332 1 is_stmt 0 view .LVU287
 906 0196 7047     		bx	lr
 907              	.L87:
 908              		.align	2
 909              	.L86:
 910 0198 00000000 		.word	.LANCHOR52
 911 019c 00000000 		.word	.LANCHOR1
 912 01a0 00000000 		.word	.LANCHOR2
 913 01a4 00000000 		.word	.LANCHOR3
 914 01a8 00000000 		.word	.LANCHOR4
 915 01ac 00000000 		.word	.LANCHOR5
 916 01b0 00000000 		.word	.LANCHOR6
 917 01b4 00000000 		.word	.LANCHOR7
 918 01b8 00000000 		.word	.LANCHOR8
 919 01bc 00000000 		.word	.LANCHOR9
 920 01c0 00000000 		.word	.LANCHOR10
 921 01c4 00000000 		.word	.LANCHOR11
 922 01c8 00000000 		.word	.LANCHOR12
 923 01cc 00000000 		.word	.LANCHOR13
 924 01d0 00000000 		.word	.LANCHOR14
 925 01d4 00000000 		.word	.LANCHOR15
 926 01d8 00000000 		.word	.LANCHOR16
 927 01dc 00000000 		.word	.LANCHOR17
 928 01e0 00000000 		.word	.LANCHOR18
 929 01e4 00000000 		.word	.LANCHOR19
 930 01e8 00000000 		.word	.LANCHOR20
 931 01ec 00000000 		.word	.LANCHOR21
 932 01f0 00000000 		.word	.LANCHOR22
 933 01f4 00000000 		.word	.LANCHOR23
 934 01f8 00000000 		.word	.LANCHOR24
 935 01fc 00000000 		.word	.LANCHOR25
 936 0200 00000000 		.word	.LANCHOR26
 937 0204 00000000 		.word	.LANCHOR27
 938 0208 00000000 		.word	.LANCHOR28
 939 020c 00000000 		.word	.LANCHOR29
 940 0210 00000000 		.word	.LANCHOR30
 941 0214 00000000 		.word	.LANCHOR31
 942 0218 00000000 		.word	.LANCHOR32
 943 021c 00000000 		.word	.LANCHOR33
 944 0220 00000000 		.word	.LANCHOR34
 945 0224 00000000 		.word	.LANCHOR35
 946 0228 00000000 		.word	.LANCHOR36
 947 022c 00000000 		.word	.LANCHOR37
 948 0230 00000000 		.word	.LANCHOR38
 949 0234 00000000 		.word	.LANCHOR39
 950 0238 00000000 		.word	.LANCHOR40
 951 023c 00000000 		.word	.LANCHOR41
 952 0240 00000000 		.word	.LANCHOR42
 953 0244 00000000 		.word	.LANCHOR43
 954 0248 00000000 		.word	.LANCHOR44
 955 024c 00000000 		.word	.LANCHOR45
 956 0250 00000000 		.word	.LANCHOR46
 957 0254 00000000 		.word	.LANCHOR47
 958 0258 00000000 		.word	.LANCHOR48
ARM GAS  C:\Users\user\AppData\Local\Temp\ccrAJRWE.s 			page 27


 959 025c 00000000 		.word	.LANCHOR49
 960 0260 00000000 		.word	.LANCHOR50
 961 0264 00000000 		.word	.LANCHOR51
 962 0268 00000000 		.word	.LANCHOR0
 963              		.cfi_endproc
 964              	.LFE8:
 966              		.section	.text.NOS_WS2812B_Matrix_SetSymvol,"ax",%progbits
 967              		.align	1
 968              		.global	NOS_WS2812B_Matrix_SetSymvol
 969              		.syntax unified
 970              		.thumb
 971              		.thumb_func
 972              		.fpu fpv4-sp-d16
 974              	NOS_WS2812B_Matrix_SetSymvol:
 975              	.LVL56:
 976              	.LFB4:
  95:Core/Src/NOS_LIB_Driver/Src/WS2812B.c ****     uint8_t* buff = Symvol_GetBitMap(sym);
 977              		.loc 1 95 1 is_stmt 1 view -0
 978              		.cfi_startproc
 979              		@ args = 0, pretend = 0, frame = 0
 980              		@ frame_needed = 0, uses_anonymous_args = 0
  95:Core/Src/NOS_LIB_Driver/Src/WS2812B.c ****     uint8_t* buff = Symvol_GetBitMap(sym);
 981              		.loc 1 95 1 is_stmt 0 view .LVU289
 982 0000 38B5     		push	{r3, r4, r5, lr}
 983              	.LCFI5:
 984              		.cfi_def_cfa_offset 16
 985              		.cfi_offset 3, -16
 986              		.cfi_offset 4, -12
 987              		.cfi_offset 5, -8
 988              		.cfi_offset 14, -4
 989 0002 0546     		mov	r5, r0
 990 0004 1446     		mov	r4, r2
  96:Core/Src/NOS_LIB_Driver/Src/WS2812B.c ****     for(int i = 0; i < 5; i++)
 991              		.loc 1 96 5 is_stmt 1 view .LVU290
  96:Core/Src/NOS_LIB_Driver/Src/WS2812B.c ****     for(int i = 0; i < 5; i++)
 992              		.loc 1 96 21 is_stmt 0 view .LVU291
 993 0006 0846     		mov	r0, r1
 994              	.LVL57:
  96:Core/Src/NOS_LIB_Driver/Src/WS2812B.c ****     for(int i = 0; i < 5; i++)
 995              		.loc 1 96 21 view .LVU292
 996 0008 FFF7FEFF 		bl	Symvol_GetBitMap
 997              	.LVL58:
  97:Core/Src/NOS_LIB_Driver/Src/WS2812B.c ****     {
 998              		.loc 1 97 5 is_stmt 1 view .LVU293
 999              	.LBB9:
  97:Core/Src/NOS_LIB_Driver/Src/WS2812B.c ****     {
 1000              		.loc 1 97 9 view .LVU294
  97:Core/Src/NOS_LIB_Driver/Src/WS2812B.c ****     {
 1001              		.loc 1 97 13 is_stmt 0 view .LVU295
 1002 000c 0023     		movs	r3, #0
  97:Core/Src/NOS_LIB_Driver/Src/WS2812B.c ****     {
 1003              		.loc 1 97 5 view .LVU296
 1004 000e 06E0     		b	.L89
 1005              	.LVL59:
 1006              	.L90:
  99:Core/Src/NOS_LIB_Driver/Src/WS2812B.c ****     }
 1007              		.loc 1 99 9 is_stmt 1 discriminator 3 view .LVU297
ARM GAS  C:\Users\user\AppData\Local\Temp\ccrAJRWE.s 			page 28


  99:Core/Src/NOS_LIB_Driver/Src/WS2812B.c ****     }
 1008              		.loc 1 99 15 is_stmt 0 discriminator 3 view .LVU298
 1009 0010 6969     		ldr	r1, [r5, #20]
  99:Core/Src/NOS_LIB_Driver/Src/WS2812B.c ****     }
 1010              		.loc 1 99 24 discriminator 3 view .LVU299
 1011 0012 04EB8402 		add	r2, r4, r4, lsl #2
 1012 0016 1144     		add	r1, r1, r2
  99:Core/Src/NOS_LIB_Driver/Src/WS2812B.c ****     }
 1013              		.loc 1 99 44 discriminator 3 view .LVU300
 1014 0018 C25C     		ldrb	r2, [r0, r3]	@ zero_extendqisi2
  99:Core/Src/NOS_LIB_Driver/Src/WS2812B.c ****     }
 1015              		.loc 1 99 38 discriminator 3 view .LVU301
 1016 001a CA54     		strb	r2, [r1, r3]
  97:Core/Src/NOS_LIB_Driver/Src/WS2812B.c ****     {
 1017              		.loc 1 97 27 is_stmt 1 discriminator 3 view .LVU302
  97:Core/Src/NOS_LIB_Driver/Src/WS2812B.c ****     {
 1018              		.loc 1 97 28 is_stmt 0 discriminator 3 view .LVU303
 1019 001c 0133     		adds	r3, r3, #1
 1020              	.LVL60:
 1021              	.L89:
  97:Core/Src/NOS_LIB_Driver/Src/WS2812B.c ****     {
 1022              		.loc 1 97 20 is_stmt 1 discriminator 1 view .LVU304
  97:Core/Src/NOS_LIB_Driver/Src/WS2812B.c ****     {
 1023              		.loc 1 97 5 is_stmt 0 discriminator 1 view .LVU305
 1024 001e 042B     		cmp	r3, #4
 1025 0020 F6DD     		ble	.L90
 1026              	.LBE9:
 101:Core/Src/NOS_LIB_Driver/Src/WS2812B.c **** 
 1027              		.loc 1 101 1 view .LVU306
 1028 0022 38BD     		pop	{r3, r4, r5, pc}
 101:Core/Src/NOS_LIB_Driver/Src/WS2812B.c **** 
 1029              		.loc 1 101 1 view .LVU307
 1030              		.cfi_endproc
 1031              	.LFE4:
 1033              		.section	.text.NOS_WS2812B_Matrix_PrintStaticString,"ax",%progbits
 1034              		.align	1
 1035              		.global	NOS_WS2812B_Matrix_PrintStaticString
 1036              		.syntax unified
 1037              		.thumb
 1038              		.thumb_func
 1039              		.fpu fpv4-sp-d16
 1041              	NOS_WS2812B_Matrix_PrintStaticString:
 1042              	.LVL61:
 1043              	.LFB5:
 104:Core/Src/NOS_LIB_Driver/Src/WS2812B.c ****     for(int i = startpos; i < startpos + lenght; i++)
 1044              		.loc 1 104 1 is_stmt 1 view -0
 1045              		.cfi_startproc
 1046              		@ args = 0, pretend = 0, frame = 0
 1047              		@ frame_needed = 0, uses_anonymous_args = 0
 104:Core/Src/NOS_LIB_Driver/Src/WS2812B.c ****     for(int i = startpos; i < startpos + lenght; i++)
 1048              		.loc 1 104 1 is_stmt 0 view .LVU309
 1049 0000 2DE9F041 		push	{r4, r5, r6, r7, r8, lr}
 1050              	.LCFI6:
 1051              		.cfi_def_cfa_offset 24
 1052              		.cfi_offset 4, -24
 1053              		.cfi_offset 5, -20
 1054              		.cfi_offset 6, -16
ARM GAS  C:\Users\user\AppData\Local\Temp\ccrAJRWE.s 			page 29


 1055              		.cfi_offset 7, -12
 1056              		.cfi_offset 8, -8
 1057              		.cfi_offset 14, -4
 1058 0004 8046     		mov	r8, r0
 1059 0006 0F46     		mov	r7, r1
 1060 0008 1546     		mov	r5, r2
 1061 000a 1E46     		mov	r6, r3
 105:Core/Src/NOS_LIB_Driver/Src/WS2812B.c ****     {
 1062              		.loc 1 105 5 is_stmt 1 view .LVU310
 1063              	.LBB10:
 105:Core/Src/NOS_LIB_Driver/Src/WS2812B.c ****     {
 1064              		.loc 1 105 9 view .LVU311
 1065              	.LVL62:
 105:Core/Src/NOS_LIB_Driver/Src/WS2812B.c ****     {
 1066              		.loc 1 105 13 is_stmt 0 view .LVU312
 1067 000c 1446     		mov	r4, r2
 105:Core/Src/NOS_LIB_Driver/Src/WS2812B.c ****     {
 1068              		.loc 1 105 5 view .LVU313
 1069 000e 08E0     		b	.L93
 1070              	.LVL63:
 1071              	.L94:
 107:Core/Src/NOS_LIB_Driver/Src/WS2812B.c ****     }
 1072              		.loc 1 107 9 is_stmt 1 discriminator 3 view .LVU314
 107:Core/Src/NOS_LIB_Driver/Src/WS2812B.c ****     }
 1073              		.loc 1 107 54 is_stmt 0 discriminator 3 view .LVU315
 1074 0010 A4EB050C 		sub	ip, r4, r5
 107:Core/Src/NOS_LIB_Driver/Src/WS2812B.c ****     }
 1075              		.loc 1 107 9 discriminator 3 view .LVU316
 1076 0014 E2B2     		uxtb	r2, r4
 1077 0016 17F80C10 		ldrb	r1, [r7, ip]	@ zero_extendqisi2
 1078 001a 4046     		mov	r0, r8
 1079 001c FFF7FEFF 		bl	NOS_WS2812B_Matrix_SetSymvol
 1080              	.LVL64:
 105:Core/Src/NOS_LIB_Driver/Src/WS2812B.c ****     {
 1081              		.loc 1 105 50 is_stmt 1 discriminator 3 view .LVU317
 105:Core/Src/NOS_LIB_Driver/Src/WS2812B.c ****     {
 1082              		.loc 1 105 51 is_stmt 0 discriminator 3 view .LVU318
 1083 0020 0134     		adds	r4, r4, #1
 1084              	.LVL65:
 1085              	.L93:
 105:Core/Src/NOS_LIB_Driver/Src/WS2812B.c ****     {
 1086              		.loc 1 105 27 is_stmt 1 discriminator 1 view .LVU319
 105:Core/Src/NOS_LIB_Driver/Src/WS2812B.c ****     {
 1087              		.loc 1 105 40 is_stmt 0 discriminator 1 view .LVU320
 1088 0022 7219     		adds	r2, r6, r5
 105:Core/Src/NOS_LIB_Driver/Src/WS2812B.c ****     {
 1089              		.loc 1 105 5 discriminator 1 view .LVU321
 1090 0024 A242     		cmp	r2, r4
 1091 0026 F3DC     		bgt	.L94
 105:Core/Src/NOS_LIB_Driver/Src/WS2812B.c ****     {
 1092              		.loc 1 105 5 discriminator 1 view .LVU322
 1093              	.LBE10:
 109:Core/Src/NOS_LIB_Driver/Src/WS2812B.c **** 
 1094              		.loc 1 109 1 view .LVU323
 1095 0028 BDE8F081 		pop	{r4, r5, r6, r7, r8, pc}
 109:Core/Src/NOS_LIB_Driver/Src/WS2812B.c **** 
 1096              		.loc 1 109 1 view .LVU324
ARM GAS  C:\Users\user\AppData\Local\Temp\ccrAJRWE.s 			page 30


 1097              		.cfi_endproc
 1098              	.LFE5:
 1100              		.global	__aeabi_i2d
 1101              		.global	__aeabi_ddiv
 1102              		.global	__aeabi_d2uiz
 1103              		.global	__aeabi_dmul
 1104              		.global	__aeabi_dsub
 1105              		.global	__aeabi_d2iz
 1106              		.section	.text.NOS_WS2812B_Matrix_PrintIntNumber,"ax",%progbits
 1107              		.align	1
 1108              		.global	NOS_WS2812B_Matrix_PrintIntNumber
 1109              		.syntax unified
 1110              		.thumb
 1111              		.thumb_func
 1112              		.fpu fpv4-sp-d16
 1114              	NOS_WS2812B_Matrix_PrintIntNumber:
 1115              	.LVL66:
 1116              	.LFB6:
 112:Core/Src/NOS_LIB_Driver/Src/WS2812B.c **** 
 1117              		.loc 1 112 1 is_stmt 1 view -0
 1118              		.cfi_startproc
 1119              		@ args = 0, pretend = 0, frame = 24
 1120              		@ frame_needed = 0, uses_anonymous_args = 0
 112:Core/Src/NOS_LIB_Driver/Src/WS2812B.c **** 
 1121              		.loc 1 112 1 is_stmt 0 view .LVU326
 1122 0000 2DE9F04F 		push	{r4, r5, r6, r7, r8, r9, r10, fp, lr}
 1123              	.LCFI7:
 1124              		.cfi_def_cfa_offset 36
 1125              		.cfi_offset 4, -36
 1126              		.cfi_offset 5, -32
 1127              		.cfi_offset 6, -28
 1128              		.cfi_offset 7, -24
 1129              		.cfi_offset 8, -20
 1130              		.cfi_offset 9, -16
 1131              		.cfi_offset 10, -12
 1132              		.cfi_offset 11, -8
 1133              		.cfi_offset 14, -4
 1134 0004 2DED048B 		vpush.64	{d8, d9}
 1135              	.LCFI8:
 1136              		.cfi_def_cfa_offset 52
 1137              		.cfi_offset 80, -52
 1138              		.cfi_offset 81, -48
 1139              		.cfi_offset 82, -44
 1140              		.cfi_offset 83, -40
 1141 0008 87B0     		sub	sp, sp, #28
 1142              	.LCFI9:
 1143              		.cfi_def_cfa_offset 80
 1144 000a 0190     		str	r0, [sp, #4]
 1145 000c 0C46     		mov	r4, r1
 1146 000e 9346     		mov	fp, r2
 114:Core/Src/NOS_LIB_Driver/Src/WS2812B.c ****     int a = 0;
 1147              		.loc 1 114 5 is_stmt 1 view .LVU327
 1148              	.LVL67:
 115:Core/Src/NOS_LIB_Driver/Src/WS2812B.c ****     int power = NOS_Math_GetNumberPower(num);
 1149              		.loc 1 115 5 view .LVU328
 116:Core/Src/NOS_LIB_Driver/Src/WS2812B.c ****     char buff[16];
 1150              		.loc 1 116 5 view .LVU329
ARM GAS  C:\Users\user\AppData\Local\Temp\ccrAJRWE.s 			page 31


 116:Core/Src/NOS_LIB_Driver/Src/WS2812B.c ****     char buff[16];
 1151              		.loc 1 116 17 is_stmt 0 view .LVU330
 1152 0010 0846     		mov	r0, r1
 1153              	.LVL68:
 116:Core/Src/NOS_LIB_Driver/Src/WS2812B.c ****     char buff[16];
 1154              		.loc 1 116 17 view .LVU331
 1155 0012 FFF7FEFF 		bl	NOS_Math_GetNumberPower
 1156              	.LVL69:
 117:Core/Src/NOS_LIB_Driver/Src/WS2812B.c **** 
 1157              		.loc 1 117 5 is_stmt 1 view .LVU332
 120:Core/Src/NOS_LIB_Driver/Src/WS2812B.c ****     {
 1158              		.loc 1 120 5 view .LVU333
 1159              	.LBB11:
 120:Core/Src/NOS_LIB_Driver/Src/WS2812B.c ****     {
 1160              		.loc 1 120 10 view .LVU334
 120:Core/Src/NOS_LIB_Driver/Src/WS2812B.c ****     {
 1161              		.loc 1 120 14 is_stmt 0 view .LVU335
 1162 0016 471E     		subs	r7, r0, #1
 1163              	.LVL70:
 120:Core/Src/NOS_LIB_Driver/Src/WS2812B.c ****     {
 1164              		.loc 1 120 14 view .LVU336
 1165              	.LBE11:
 115:Core/Src/NOS_LIB_Driver/Src/WS2812B.c ****     int power = NOS_Math_GetNumberPower(num);
 1166              		.loc 1 115 9 view .LVU337
 1167 0018 4FF0000A 		mov	r10, #0
 1168              	.LBB13:
 120:Core/Src/NOS_LIB_Driver/Src/WS2812B.c ****     {
 1169              		.loc 1 120 5 view .LVU338
 1170 001c 3FE0     		b	.L97
 1171              	.LVL71:
 1172              	.L98:
 1173              	.LBB12:
 122:Core/Src/NOS_LIB_Driver/Src/WS2812B.c ****         num = num - (buff[a] * pow(10,i));
 1174              		.loc 1 122 9 is_stmt 1 discriminator 3 view .LVU339
 122:Core/Src/NOS_LIB_Driver/Src/WS2812B.c ****         num = num - (buff[a] * pow(10,i));
 1175              		.loc 1 122 23 is_stmt 0 discriminator 3 view .LVU340
 1176 001e 2046     		mov	r0, r4
 1177 0020 FFF7FEFF 		bl	__aeabi_i2d
 1178              	.LVL72:
 1179 0024 0446     		mov	r4, r0
 1180              	.LVL73:
 122:Core/Src/NOS_LIB_Driver/Src/WS2812B.c ****         num = num - (buff[a] * pow(10,i));
 1181              		.loc 1 122 23 discriminator 3 view .LVU341
 1182 0026 0D46     		mov	r5, r1
 122:Core/Src/NOS_LIB_Driver/Src/WS2812B.c ****         num = num - (buff[a] * pow(10,i));
 1183              		.loc 1 122 25 discriminator 3 view .LVU342
 1184 0028 3846     		mov	r0, r7
 1185 002a FFF7FEFF 		bl	__aeabi_i2d
 1186              	.LVL74:
 1187 002e 41EC180B 		vmov	d8, r0, r1
 1188 0032 9FED2F9B 		vldr.64	d9, .L102
 1189 0036 41EC110B 		vmov	d1, r0, r1
 1190 003a B0EE490A 		vmov.f32	s0, s18
 1191 003e F0EE690A 		vmov.f32	s1, s19
 1192 0042 FFF7FEFF 		bl	pow
 1193              	.LVL75:
 1194 0046 53EC102B 		vmov	r2, r3, d0
ARM GAS  C:\Users\user\AppData\Local\Temp\ccrAJRWE.s 			page 32


 122:Core/Src/NOS_LIB_Driver/Src/WS2812B.c ****         num = num - (buff[a] * pow(10,i));
 1195              		.loc 1 122 23 discriminator 3 view .LVU343
 1196 004a 2046     		mov	r0, r4
 1197 004c 2946     		mov	r1, r5
 1198 004e FFF7FEFF 		bl	__aeabi_ddiv
 1199              	.LVL76:
 122:Core/Src/NOS_LIB_Driver/Src/WS2812B.c ****         num = num - (buff[a] * pow(10,i));
 1200              		.loc 1 122 17 discriminator 3 view .LVU344
 1201 0052 FFF7FEFF 		bl	__aeabi_d2uiz
 1202              	.LVL77:
 1203 0056 C6B2     		uxtb	r6, r0
 1204 0058 06AB     		add	r3, sp, #24
 1205 005a 5344     		add	r3, r3, r10
 1206 005c 03F8106C 		strb	r6, [r3, #-16]
 123:Core/Src/NOS_LIB_Driver/Src/WS2812B.c ****         a++;
 1207              		.loc 1 123 9 is_stmt 1 discriminator 3 view .LVU345
 123:Core/Src/NOS_LIB_Driver/Src/WS2812B.c ****         a++;
 1208              		.loc 1 123 32 is_stmt 0 discriminator 3 view .LVU346
 1209 0060 B0EE481A 		vmov.f32	s2, s16
 1210 0064 F0EE681A 		vmov.f32	s3, s17
 1211 0068 B0EE490A 		vmov.f32	s0, s18
 1212 006c F0EE690A 		vmov.f32	s1, s19
 1213 0070 FFF7FEFF 		bl	pow
 1214              	.LVL78:
 1215 0074 59EC108B 		vmov	r8, r9, d0
 123:Core/Src/NOS_LIB_Driver/Src/WS2812B.c ****         a++;
 1216              		.loc 1 123 30 discriminator 3 view .LVU347
 1217 0078 3046     		mov	r0, r6
 1218 007a FFF7FEFF 		bl	__aeabi_i2d
 1219              	.LVL79:
 1220 007e 4246     		mov	r2, r8
 1221 0080 4B46     		mov	r3, r9
 1222 0082 FFF7FEFF 		bl	__aeabi_dmul
 1223              	.LVL80:
 1224 0086 0246     		mov	r2, r0
 1225 0088 0B46     		mov	r3, r1
 123:Core/Src/NOS_LIB_Driver/Src/WS2812B.c ****         a++;
 1226              		.loc 1 123 19 discriminator 3 view .LVU348
 1227 008a 2046     		mov	r0, r4
 1228 008c 2946     		mov	r1, r5
 1229 008e FFF7FEFF 		bl	__aeabi_dsub
 1230              	.LVL81:
 123:Core/Src/NOS_LIB_Driver/Src/WS2812B.c ****         a++;
 1231              		.loc 1 123 13 discriminator 3 view .LVU349
 1232 0092 FFF7FEFF 		bl	__aeabi_d2iz
 1233              	.LVL82:
 1234 0096 0446     		mov	r4, r0
 1235              	.LVL83:
 124:Core/Src/NOS_LIB_Driver/Src/WS2812B.c ****     }
 1236              		.loc 1 124 9 is_stmt 1 discriminator 3 view .LVU350
 124:Core/Src/NOS_LIB_Driver/Src/WS2812B.c ****     }
 1237              		.loc 1 124 10 is_stmt 0 discriminator 3 view .LVU351
 1238 0098 0AF1010A 		add	r10, r10, #1
 1239              	.LVL84:
 124:Core/Src/NOS_LIB_Driver/Src/WS2812B.c ****     }
 1240              		.loc 1 124 10 discriminator 3 view .LVU352
 1241              	.LBE12:
ARM GAS  C:\Users\user\AppData\Local\Temp\ccrAJRWE.s 			page 33


 120:Core/Src/NOS_LIB_Driver/Src/WS2812B.c ****     {
 1242              		.loc 1 120 36 is_stmt 1 discriminator 3 view .LVU353
 120:Core/Src/NOS_LIB_Driver/Src/WS2812B.c ****     {
 1243              		.loc 1 120 37 is_stmt 0 discriminator 3 view .LVU354
 1244 009c 013F     		subs	r7, r7, #1
 1245              	.LVL85:
 1246              	.L97:
 120:Core/Src/NOS_LIB_Driver/Src/WS2812B.c ****     {
 1247              		.loc 1 120 29 is_stmt 1 discriminator 1 view .LVU355
 120:Core/Src/NOS_LIB_Driver/Src/WS2812B.c ****     {
 1248              		.loc 1 120 5 is_stmt 0 discriminator 1 view .LVU356
 1249 009e 002F     		cmp	r7, #0
 1250 00a0 BDDC     		bgt	.L98
 120:Core/Src/NOS_LIB_Driver/Src/WS2812B.c ****     {
 1251              		.loc 1 120 5 discriminator 1 view .LVU357
 1252              	.LBE13:
 127:Core/Src/NOS_LIB_Driver/Src/WS2812B.c **** 
 1253              		.loc 1 127 5 is_stmt 1 view .LVU358
 127:Core/Src/NOS_LIB_Driver/Src/WS2812B.c **** 
 1254              		.loc 1 127 19 is_stmt 0 view .LVU359
 1255 00a2 154A     		ldr	r2, .L102+8
 1256 00a4 82FB0432 		smull	r3, r2, r2, r4
 1257 00a8 E317     		asrs	r3, r4, #31
 1258 00aa C3EBA203 		rsb	r3, r3, r2, asr #2
 1259 00ae 03EB8303 		add	r3, r3, r3, lsl #2
 1260 00b2 A4EB4303 		sub	r3, r4, r3, lsl #1
 127:Core/Src/NOS_LIB_Driver/Src/WS2812B.c **** 
 1261              		.loc 1 127 13 view .LVU360
 1262 00b6 06AA     		add	r2, sp, #24
 1263 00b8 5244     		add	r2, r2, r10
 1264 00ba 02F8103C 		strb	r3, [r2, #-16]
 129:Core/Src/NOS_LIB_Driver/Src/WS2812B.c ****     {
 1265              		.loc 1 129 5 is_stmt 1 view .LVU361
 1266              	.LBB14:
 129:Core/Src/NOS_LIB_Driver/Src/WS2812B.c ****     {
 1267              		.loc 1 129 9 view .LVU362
 1268              	.LVL86:
 129:Core/Src/NOS_LIB_Driver/Src/WS2812B.c ****     {
 1269              		.loc 1 129 13 is_stmt 0 view .LVU363
 1270 00be 0024     		movs	r4, #0
 1271              	.LVL87:
 129:Core/Src/NOS_LIB_Driver/Src/WS2812B.c ****     {
 1272              		.loc 1 129 5 view .LVU364
 1273 00c0 0EE0     		b	.L99
 1274              	.LVL88:
 1275              	.L100:
 131:Core/Src/NOS_LIB_Driver/Src/WS2812B.c ****         NOS_WS2812B_Matrix_SetSymvol(matrix,buff[i],i + startpos);
 1276              		.loc 1 131 9 is_stmt 1 discriminator 3 view .LVU365
 131:Core/Src/NOS_LIB_Driver/Src/WS2812B.c ****         NOS_WS2812B_Matrix_SetSymvol(matrix,buff[i],i + startpos);
 1277              		.loc 1 131 17 is_stmt 0 discriminator 3 view .LVU366
 1278 00c2 06AB     		add	r3, sp, #24
 1279 00c4 2344     		add	r3, r3, r4
 1280 00c6 13F8101C 		ldrb	r1, [r3, #-16]	@ zero_extendqisi2
 1281 00ca 3031     		adds	r1, r1, #48
 1282 00cc C9B2     		uxtb	r1, r1
 1283 00ce 03F8101C 		strb	r1, [r3, #-16]
 132:Core/Src/NOS_LIB_Driver/Src/WS2812B.c ****     }
ARM GAS  C:\Users\user\AppData\Local\Temp\ccrAJRWE.s 			page 34


 1284              		.loc 1 132 9 is_stmt 1 discriminator 3 view .LVU367
 1285 00d2 0BEB0402 		add	r2, fp, r4
 1286 00d6 D2B2     		uxtb	r2, r2
 1287 00d8 0198     		ldr	r0, [sp, #4]
 1288 00da FFF7FEFF 		bl	NOS_WS2812B_Matrix_SetSymvol
 1289              	.LVL89:
 129:Core/Src/NOS_LIB_Driver/Src/WS2812B.c ****     {
 1290              		.loc 1 129 31 discriminator 3 view .LVU368
 129:Core/Src/NOS_LIB_Driver/Src/WS2812B.c ****     {
 1291              		.loc 1 129 32 is_stmt 0 discriminator 3 view .LVU369
 1292 00de 0134     		adds	r4, r4, #1
 1293              	.LVL90:
 1294              	.L99:
 129:Core/Src/NOS_LIB_Driver/Src/WS2812B.c ****     {
 1295              		.loc 1 129 20 is_stmt 1 discriminator 1 view .LVU370
 129:Core/Src/NOS_LIB_Driver/Src/WS2812B.c ****     {
 1296              		.loc 1 129 5 is_stmt 0 discriminator 1 view .LVU371
 1297 00e0 A245     		cmp	r10, r4
 1298 00e2 EEDA     		bge	.L100
 1299              	.LBE14:
 134:Core/Src/NOS_LIB_Driver/Src/WS2812B.c **** 
 1300              		.loc 1 134 1 view .LVU372
 1301 00e4 07B0     		add	sp, sp, #28
 1302              	.LCFI10:
 1303              		.cfi_def_cfa_offset 52
 1304              		@ sp needed
 1305 00e6 BDEC048B 		vldm	sp!, {d8-d9}
 1306              	.LCFI11:
 1307              		.cfi_restore 82
 1308              		.cfi_restore 83
 1309              		.cfi_restore 80
 1310              		.cfi_restore 81
 1311              		.cfi_def_cfa_offset 36
 1312 00ea BDE8F08F 		pop	{r4, r5, r6, r7, r8, r9, r10, fp, pc}
 1313              	.LVL91:
 1314              	.L103:
 134:Core/Src/NOS_LIB_Driver/Src/WS2812B.c **** 
 1315              		.loc 1 134 1 view .LVU373
 1316 00ee 00BF     		.align	3
 1317              	.L102:
 1318 00f0 00000000 		.word	0
 1319 00f4 00002440 		.word	1076101120
 1320 00f8 67666666 		.word	1717986919
 1321              		.cfi_endproc
 1322              	.LFE6:
 1324              		.section	.rodata.NOS_WS2812B_Matrix_PrintFloatNumber.str1.4,"aMS",%progbits,1
 1325              		.align	2
 1326              	.LC0:
 1327 0000 2E00     		.ascii	".\000"
 1328              		.section	.text.NOS_WS2812B_Matrix_PrintFloatNumber,"ax",%progbits
 1329              		.align	1
 1330              		.global	NOS_WS2812B_Matrix_PrintFloatNumber
 1331              		.syntax unified
 1332              		.thumb
 1333              		.thumb_func
 1334              		.fpu fpv4-sp-d16
 1336              	NOS_WS2812B_Matrix_PrintFloatNumber:
ARM GAS  C:\Users\user\AppData\Local\Temp\ccrAJRWE.s 			page 35


 1337              	.LVL92:
 1338              	.LFB7:
 137:Core/Src/NOS_LIB_Driver/Src/WS2812B.c ****     int before = num;
 1339              		.loc 1 137 1 is_stmt 1 view -0
 1340              		.cfi_startproc
 1341              		@ args = 0, pretend = 0, frame = 0
 1342              		@ frame_needed = 0, uses_anonymous_args = 0
 137:Core/Src/NOS_LIB_Driver/Src/WS2812B.c ****     int before = num;
 1343              		.loc 1 137 1 is_stmt 0 view .LVU375
 1344 0000 70B5     		push	{r4, r5, r6, lr}
 1345              	.LCFI12:
 1346              		.cfi_def_cfa_offset 16
 1347              		.cfi_offset 4, -16
 1348              		.cfi_offset 5, -12
 1349              		.cfi_offset 6, -8
 1350              		.cfi_offset 14, -4
 1351 0002 2DED028B 		vpush.64	{d8}
 1352              	.LCFI13:
 1353              		.cfi_def_cfa_offset 24
 1354              		.cfi_offset 80, -24
 1355              		.cfi_offset 81, -20
 1356 0006 0546     		mov	r5, r0
 1357 0008 0E46     		mov	r6, r1
 138:Core/Src/NOS_LIB_Driver/Src/WS2812B.c ****     float after = num - (float)before;
 1358              		.loc 1 138 5 is_stmt 1 view .LVU376
 138:Core/Src/NOS_LIB_Driver/Src/WS2812B.c ****     float after = num - (float)before;
 1359              		.loc 1 138 9 is_stmt 0 view .LVU377
 1360 000a FDEEC08A 		vcvt.s32.f32	s17, s0
 1361              	.LVL93:
 139:Core/Src/NOS_LIB_Driver/Src/WS2812B.c ****     int af = after * 100;
 1362              		.loc 1 139 5 is_stmt 1 view .LVU378
 139:Core/Src/NOS_LIB_Driver/Src/WS2812B.c ****     int af = after * 100;
 1363              		.loc 1 139 25 is_stmt 0 view .LVU379
 1364 000e B8EEE88A 		vcvt.f32.s32	s16, s17
 139:Core/Src/NOS_LIB_Driver/Src/WS2812B.c ****     int af = after * 100;
 1365              		.loc 1 139 11 view .LVU380
 1366 0012 30EE488A 		vsub.f32	s16, s0, s16
 1367              	.LVL94:
 140:Core/Src/NOS_LIB_Driver/Src/WS2812B.c ****     int pow = NOS_Math_GetNumberPower(before);
 1368              		.loc 1 140 5 is_stmt 1 view .LVU381
 140:Core/Src/NOS_LIB_Driver/Src/WS2812B.c ****     int pow = NOS_Math_GetNumberPower(before);
 1369              		.loc 1 140 20 is_stmt 0 view .LVU382
 1370 0016 9FED120A 		vldr.32	s0, .L106
 1371              	.LVL95:
 140:Core/Src/NOS_LIB_Driver/Src/WS2812B.c ****     int pow = NOS_Math_GetNumberPower(before);
 1372              		.loc 1 140 20 view .LVU383
 1373 001a 28EE008A 		vmul.f32	s16, s16, s0
 1374              	.LVL96:
 140:Core/Src/NOS_LIB_Driver/Src/WS2812B.c ****     int pow = NOS_Math_GetNumberPower(before);
 1375              		.loc 1 140 9 view .LVU384
 1376 001e BDEEC88A 		vcvt.s32.f32	s16, s16
 1377              	.LVL97:
 141:Core/Src/NOS_LIB_Driver/Src/WS2812B.c ****     NOS_WS2812B_Matrix_PrintIntNumber(matrix,before,startpos,pow);
 1378              		.loc 1 141 5 is_stmt 1 view .LVU385
 141:Core/Src/NOS_LIB_Driver/Src/WS2812B.c ****     NOS_WS2812B_Matrix_PrintIntNumber(matrix,before,startpos,pow);
 1379              		.loc 1 141 15 is_stmt 0 view .LVU386
 1380 0022 18EE900A 		vmov	r0, s17	@ int
ARM GAS  C:\Users\user\AppData\Local\Temp\ccrAJRWE.s 			page 36


 1381              	.LVL98:
 141:Core/Src/NOS_LIB_Driver/Src/WS2812B.c ****     NOS_WS2812B_Matrix_PrintIntNumber(matrix,before,startpos,pow);
 1382              		.loc 1 141 15 view .LVU387
 1383 0026 FFF7FEFF 		bl	NOS_Math_GetNumberPower
 1384              	.LVL99:
 142:Core/Src/NOS_LIB_Driver/Src/WS2812B.c ****     NOS_WS2812B_Matrix_PrintStaticString(matrix,".",startpos + pow,1);
 1385              		.loc 1 142 5 is_stmt 1 view .LVU388
 1386 002a C4B2     		uxtb	r4, r0
 1387 002c 2346     		mov	r3, r4
 1388 002e 3246     		mov	r2, r6
 1389 0030 18EE901A 		vmov	r1, s17	@ int
 1390 0034 2846     		mov	r0, r5
 1391              	.LVL100:
 142:Core/Src/NOS_LIB_Driver/Src/WS2812B.c ****     NOS_WS2812B_Matrix_PrintStaticString(matrix,".",startpos + pow,1);
 1392              		.loc 1 142 5 is_stmt 0 view .LVU389
 1393 0036 FFF7FEFF 		bl	NOS_WS2812B_Matrix_PrintIntNumber
 1394              	.LVL101:
 143:Core/Src/NOS_LIB_Driver/Src/WS2812B.c ****     NOS_WS2812B_Matrix_PrintIntNumber(matrix,af,startpos + pow + 1,2);
 1395              		.loc 1 143 5 is_stmt 1 view .LVU390
 1396 003a 3444     		add	r4, r4, r6
 1397 003c E4B2     		uxtb	r4, r4
 1398 003e 0123     		movs	r3, #1
 1399 0040 2246     		mov	r2, r4
 1400 0042 0849     		ldr	r1, .L106+4
 1401 0044 2846     		mov	r0, r5
 1402 0046 FFF7FEFF 		bl	NOS_WS2812B_Matrix_PrintStaticString
 1403              	.LVL102:
 144:Core/Src/NOS_LIB_Driver/Src/WS2812B.c **** }
 1404              		.loc 1 144 5 view .LVU391
 1405 004a 621C     		adds	r2, r4, #1
 1406 004c 0223     		movs	r3, #2
 1407 004e D2B2     		uxtb	r2, r2
 1408 0050 18EE101A 		vmov	r1, s16	@ int
 1409 0054 2846     		mov	r0, r5
 1410 0056 FFF7FEFF 		bl	NOS_WS2812B_Matrix_PrintIntNumber
 1411              	.LVL103:
 145:Core/Src/NOS_LIB_Driver/Src/WS2812B.c **** 
 1412              		.loc 1 145 1 is_stmt 0 view .LVU392
 1413 005a BDEC028B 		vldm	sp!, {d8}
 1414              	.LCFI14:
 1415              		.cfi_restore 80
 1416              		.cfi_restore 81
 1417              		.cfi_def_cfa_offset 16
 1418              	.LVL104:
 145:Core/Src/NOS_LIB_Driver/Src/WS2812B.c **** 
 1419              		.loc 1 145 1 view .LVU393
 1420 005e 70BD     		pop	{r4, r5, r6, pc}
 1421              	.LVL105:
 1422              	.L107:
 145:Core/Src/NOS_LIB_Driver/Src/WS2812B.c **** 
 1423              		.loc 1 145 1 view .LVU394
 1424              		.align	2
 1425              	.L106:
 1426 0060 0000C842 		.word	1120403456
 1427 0064 00000000 		.word	.LC0
 1428              		.cfi_endproc
 1429              	.LFE7:
ARM GAS  C:\Users\user\AppData\Local\Temp\ccrAJRWE.s 			page 37


 1431              		.global	Num_9
 1432              		.global	Num_8
 1433              		.global	Num_7
 1434              		.global	Num_6
 1435              		.global	Num_5
 1436              		.global	Num_4
 1437              		.global	Num_3
 1438              		.global	Num_2
 1439              		.global	Num_1
 1440              		.global	Num_0
 1441              		.global	Celcium
 1442              		.global	Multiply
 1443              		.global	Minus
 1444              		.global	Plus
 1445              		.global	Slash
 1446              		.global	DoubleDot
 1447              		.global	Dot
 1448              		.global	Space
 1449              		.global	Ukr_ch
 1450              		.global	Ukr_d
 1451              		.global	Ukr_g
 1452              		.global	Ukr_k
 1453              		.global	Ukr_m
 1454              		.global	Eng_o
 1455              		.global	Eng_u
 1456              		.global	Eng_v
 1457              		.global	Eng_c
 1458              		.global	Eng_a
 1459              		.global	Eng_Z
 1460              		.global	Eng_Y
 1461              		.global	Eng_X
 1462              		.global	Eng_W
 1463              		.global	Eng_V
 1464              		.global	Eng_U
 1465              		.global	Eng_T
 1466              		.global	Eng_S
 1467              		.global	Eng_R
 1468              		.global	Eng_Q
 1469              		.global	Eng_P
 1470              		.global	Eng_O
 1471              		.global	Eng_N
 1472              		.global	Eng_M
 1473              		.global	Eng_L
 1474              		.global	Eng_K
 1475              		.global	Eng_J
 1476              		.global	Eng_I
 1477              		.global	Eng_H
 1478              		.global	Eng_G
 1479              		.global	Eng_F
 1480              		.global	Eng_E
 1481              		.global	Eng_D
 1482              		.global	Eng_C
 1483              		.global	Eng_B
 1484              		.global	Eng_A
 1485              		.section	.bss.Space,"aw",%nobits
 1486              		.align	2
 1487              		.set	.LANCHOR35,. + 0
ARM GAS  C:\Users\user\AppData\Local\Temp\ccrAJRWE.s 			page 38


 1490              	Space:
 1491 0000 00000000 		.space	5
 1491      00
 1492              		.section	.data.Celcium,"aw"
 1493              		.align	2
 1494              		.set	.LANCHOR39,. + 0
 1497              	Celcium:
 1498 0000 0000040A 		.ascii	"\000\000\004\012\004"
 1498      04
 1499              		.section	.data.Dot,"aw"
 1500              		.align	2
 1501              		.set	.LANCHOR40,. + 0
 1504              	Dot:
 1505 0000 00008000 		.ascii	"\000\000\200\000\000"
 1505      00
 1506              		.section	.data.DoubleDot,"aw"
 1507              		.align	2
 1508              		.set	.LANCHOR41,. + 0
 1511              	DoubleDot:
 1512 0000 00004400 		.ascii	"\000\000D\000\000"
 1512      00
 1513              		.section	.data.Eng_A,"aw"
 1514              		.align	2
 1515              		.set	.LANCHOR52,. + 0
 1518              	Eng_A:
 1519 0000 FC121212 		.ascii	"\374\022\022\022\374"
 1519      FC
 1520              		.section	.data.Eng_B,"aw"
 1521              		.align	2
 1522              		.set	.LANCHOR0,. + 0
 1525              	Eng_B:
 1526 0000 FE929292 		.ascii	"\376\222\222\222l"
 1526      6C
 1527              		.section	.data.Eng_C,"aw"
 1528              		.align	2
 1529              		.set	.LANCHOR1,. + 0
 1532              	Eng_C:
 1533 0000 7C828282 		.ascii	"|\202\202\202D"
 1533      44
 1534              		.section	.data.Eng_D,"aw"
 1535              		.align	2
 1536              		.set	.LANCHOR2,. + 0
 1539              	Eng_D:
 1540 0000 FE828282 		.ascii	"\376\202\202\202|"
 1540      7C
 1541              		.section	.data.Eng_E,"aw"
 1542              		.align	2
 1543              		.set	.LANCHOR3,. + 0
 1546              	Eng_E:
 1547 0000 FE929292 		.ascii	"\376\222\222\222\202"
 1547      82
 1548              		.section	.data.Eng_F,"aw"
 1549              		.align	2
 1550              		.set	.LANCHOR4,. + 0
 1553              	Eng_F:
 1554 0000 FE121212 		.ascii	"\376\022\022\022\002"
 1554      02
ARM GAS  C:\Users\user\AppData\Local\Temp\ccrAJRWE.s 			page 39


 1555              		.section	.data.Eng_G,"aw"
 1556              		.align	2
 1557              		.set	.LANCHOR5,. + 0
 1560              	Eng_G:
 1561 0000 7C829292 		.ascii	"|\202\222\222t"
 1561      74
 1562              		.section	.data.Eng_H,"aw"
 1563              		.align	2
 1564              		.set	.LANCHOR6,. + 0
 1567              	Eng_H:
 1568 0000 FE101010 		.ascii	"\376\020\020\020\376"
 1568      FE
 1569              		.section	.data.Eng_I,"aw"
 1570              		.align	2
 1571              		.set	.LANCHOR7,. + 0
 1574              	Eng_I:
 1575 0000 0082FE82 		.ascii	"\000\202\376\202\000"
 1575      00
 1576              		.section	.data.Eng_J,"aw"
 1577              		.align	2
 1578              		.set	.LANCHOR8,. + 0
 1581              	Eng_J:
 1582 0000 40808080 		.ascii	"@\200\200\200~"
 1582      7E
 1583              		.section	.data.Eng_K,"aw"
 1584              		.align	2
 1585              		.set	.LANCHOR9,. + 0
 1588              	Eng_K:
 1589 0000 FE102844 		.ascii	"\376\020(D\202"
 1589      82
 1590              		.section	.data.Eng_L,"aw"
 1591              		.align	2
 1592              		.set	.LANCHOR10,. + 0
 1595              	Eng_L:
 1596 0000 FE808080 		.ascii	"\376\200\200\200\200"
 1596      80
 1597              		.section	.data.Eng_M,"aw"
 1598              		.align	2
 1599              		.set	.LANCHOR11,. + 0
 1602              	Eng_M:
 1603 0000 FE040804 		.ascii	"\376\004\010\004\376"
 1603      FE
 1604              		.section	.data.Eng_N,"aw"
 1605              		.align	2
 1606              		.set	.LANCHOR12,. + 0
 1609              	Eng_N:
 1610 0000 FE081020 		.ascii	"\376\010\020 \376"
 1610      FE
 1611              		.section	.data.Eng_O,"aw"
 1612              		.align	2
 1613              		.set	.LANCHOR13,. + 0
 1616              	Eng_O:
 1617 0000 7C828282 		.ascii	"|\202\202\202|"
 1617      7C
 1618              		.section	.data.Eng_P,"aw"
 1619              		.align	2
 1620              		.set	.LANCHOR14,. + 0
ARM GAS  C:\Users\user\AppData\Local\Temp\ccrAJRWE.s 			page 40


 1623              	Eng_P:
 1624 0000 FE121212 		.ascii	"\376\022\022\022\014"
 1624      0C
 1625              		.section	.data.Eng_Q,"aw"
 1626              		.align	2
 1627              		.set	.LANCHOR15,. + 0
 1630              	Eng_Q:
 1631 0000 7C82A242 		.ascii	"|\202\242B\274"
 1631      BC
 1632              		.section	.data.Eng_R,"aw"
 1633              		.align	2
 1634              		.set	.LANCHOR16,. + 0
 1637              	Eng_R:
 1638 0000 FE123252 		.ascii	"\376\0222R\214"
 1638      8C
 1639              		.section	.data.Eng_S,"aw"
 1640              		.align	2
 1641              		.set	.LANCHOR17,. + 0
 1644              	Eng_S:
 1645 0000 4C929292 		.ascii	"L\222\222\222d"
 1645      64
 1646              		.section	.data.Eng_T,"aw"
 1647              		.align	2
 1648              		.set	.LANCHOR18,. + 0
 1651              	Eng_T:
 1652 0000 0202FE02 		.ascii	"\002\002\376\002\002"
 1652      02
 1653              		.section	.data.Eng_U,"aw"
 1654              		.align	2
 1655              		.set	.LANCHOR19,. + 0
 1658              	Eng_U:
 1659 0000 7E808080 		.ascii	"~\200\200\200~"
 1659      7E
 1660              		.section	.data.Eng_V,"aw"
 1661              		.align	2
 1662              		.set	.LANCHOR20,. + 0
 1665              	Eng_V:
 1666 0000 3E408040 		.ascii	">@\200@>"
 1666      3E
 1667              		.section	.data.Eng_W,"aw"
 1668              		.align	2
 1669              		.set	.LANCHOR21,. + 0
 1672              	Eng_W:
 1673 0000 7E807880 		.ascii	"~\200x\200~"
 1673      7E
 1674              		.section	.data.Eng_X,"aw"
 1675              		.align	2
 1676              		.set	.LANCHOR22,. + 0
 1679              	Eng_X:
 1680 0000 C6281028 		.ascii	"\306(\020(\306"
 1680      C6
 1681              		.section	.data.Eng_Y,"aw"
 1682              		.align	2
 1683              		.set	.LANCHOR23,. + 0
 1686              	Eng_Y:
 1687 0000 0204F804 		.ascii	"\002\004\370\004\002"
 1687      02
ARM GAS  C:\Users\user\AppData\Local\Temp\ccrAJRWE.s 			page 41


 1688              		.section	.data.Eng_Z,"aw"
 1689              		.align	2
 1690              		.set	.LANCHOR24,. + 0
 1693              	Eng_Z:
 1694 0000 C2A2928A 		.ascii	"\302\242\222\212\206"
 1694      86
 1695              		.section	.data.Eng_a,"aw"
 1696              		.align	2
 1697              		.set	.LANCHOR27,. + 0
 1700              	Eng_a:
 1701 0000 40A8A8A8 		.ascii	"@\250\250\250p"
 1701      70
 1702              		.section	.data.Eng_c,"aw"
 1703              		.align	2
 1704              		.set	.LANCHOR28,. + 0
 1707              	Eng_c:
 1708 0000 70888888 		.ascii	"p\210\210\210\000"
 1708      00
 1709              		.section	.data.Eng_o,"aw"
 1710              		.align	2
 1711              		.set	.LANCHOR32,. + 0
 1714              	Eng_o:
 1715 0000 70888888 		.ascii	"p\210\210\210p"
 1715      70
 1716              		.section	.data.Eng_u,"aw"
 1717              		.align	2
 1718              		.set	.LANCHOR25,. + 0
 1721              	Eng_u:
 1722 0000 78808080 		.ascii	"x\200\200\200x"
 1722      78
 1723              		.section	.data.Eng_v,"aw"
 1724              		.align	2
 1725              		.set	.LANCHOR26,. + 0
 1728              	Eng_v:
 1729 0000 38408040 		.ascii	"8@\200@8"
 1729      38
 1730              		.section	.data.Minus,"aw"
 1731              		.align	2
 1732              		.set	.LANCHOR37,. + 0
 1735              	Minus:
 1736 0000 10101010 		.ascii	"\020\020\020\020\020"
 1736      10
 1737              		.section	.data.Multiply,"aw"
 1738              		.align	2
 1741              	Multiply:
 1742 0000 44281028 		.ascii	"D(\020(D"
 1742      44
 1743              		.section	.data.Num_0,"aw"
 1744              		.align	2
 1745              		.set	.LANCHOR42,. + 0
 1748              	Num_0:
 1749 0000 7CA2928A 		.ascii	"|\242\222\212|"
 1749      7C
 1750              		.section	.data.Num_1,"aw"
 1751              		.align	2
 1752              		.set	.LANCHOR43,. + 0
 1755              	Num_1:
ARM GAS  C:\Users\user\AppData\Local\Temp\ccrAJRWE.s 			page 42


 1756 0000 8884FE80 		.ascii	"\210\204\376\200\200"
 1756      80
 1757              		.section	.data.Num_2,"aw"
 1758              		.align	2
 1759              		.set	.LANCHOR44,. + 0
 1762              	Num_2:
 1763 0000 C4A29292 		.ascii	"\304\242\222\222\214"
 1763      8C
 1764              		.section	.data.Num_3,"aw"
 1765              		.align	2
 1766              		.set	.LANCHOR45,. + 0
 1769              	Num_3:
 1770 0000 44929292 		.ascii	"D\222\222\222l"
 1770      6C
 1771              		.section	.data.Num_4,"aw"
 1772              		.align	2
 1773              		.set	.LANCHOR46,. + 0
 1776              	Num_4:
 1777 0000 0E101010 		.ascii	"\016\020\020\020\376"
 1777      FE
 1778              		.section	.data.Num_5,"aw"
 1779              		.align	2
 1780              		.set	.LANCHOR47,. + 0
 1783              	Num_5:
 1784 0000 8E929292 		.ascii	"\216\222\222\222b"
 1784      62
 1785              		.section	.data.Num_6,"aw"
 1786              		.align	2
 1787              		.set	.LANCHOR48,. + 0
 1790              	Num_6:
 1791 0000 7C929292 		.ascii	"|\222\222\222d"
 1791      64
 1792              		.section	.data.Num_7,"aw"
 1793              		.align	2
 1794              		.set	.LANCHOR49,. + 0
 1797              	Num_7:
 1798 0000 0202F20A 		.ascii	"\002\002\362\012\006"
 1798      06
 1799              		.section	.data.Num_8,"aw"
 1800              		.align	2
 1801              		.set	.LANCHOR50,. + 0
 1804              	Num_8:
 1805 0000 6C929292 		.ascii	"l\222\222\222l"
 1805      6C
 1806              		.section	.data.Num_9,"aw"
 1807              		.align	2
 1808              		.set	.LANCHOR51,. + 0
 1811              	Num_9:
 1812 0000 4C929292 		.ascii	"L\222\222\222|"
 1812      7C
 1813              		.section	.data.Plus,"aw"
 1814              		.align	2
 1815              		.set	.LANCHOR36,. + 0
 1818              	Plus:
 1819 0000 10107C10 		.ascii	"\020\020|\020\020"
 1819      10
 1820              		.section	.data.Slash,"aw"
ARM GAS  C:\Users\user\AppData\Local\Temp\ccrAJRWE.s 			page 43


 1821              		.align	2
 1822              		.set	.LANCHOR38,. + 0
 1825              	Slash:
 1826 0000 40201008 		.ascii	"@ \020\010\004"
 1826      04
 1827              		.section	.data.Ukr_ch,"aw"
 1828              		.align	2
 1829              		.set	.LANCHOR34,. + 0
 1832              	Ukr_ch:
 1833 0000 18202020 		.ascii	"\030   \370"
 1833      F8
 1834              		.section	.data.Ukr_d,"aw"
 1835              		.align	2
 1836              		.set	.LANCHOR31,. + 0
 1839              	Ukr_d:
 1840 0000 C0784878 		.ascii	"\300xHx\300"
 1840      C0
 1841              		.section	.data.Ukr_g,"aw"
 1842              		.align	2
 1843              		.set	.LANCHOR33,. + 0
 1846              	Ukr_g:
 1847 0000 F8080808 		.ascii	"\370\010\010\010\000"
 1847      00
 1848              		.section	.data.Ukr_k,"aw"
 1849              		.align	2
 1850              		.set	.LANCHOR30,. + 0
 1853              	Ukr_k:
 1854 0000 F8205088 		.ascii	"\370 P\210\000"
 1854      00
 1855              		.section	.data.Ukr_m,"aw"
 1856              		.align	2
 1857              		.set	.LANCHOR29,. + 0
 1860              	Ukr_m:
 1861 0000 F8102010 		.ascii	"\370\020 \020\370"
 1861      F8
 1862              		.text
 1863              	.Letext0:
 1864              		.file 2 "c:\\users\\user\\appdata\\roaming\\code\\user\\globalstorage\\bmd.stm32-for-vscode\\@xpac
 1865              		.file 3 "c:\\users\\user\\appdata\\roaming\\code\\user\\globalstorage\\bmd.stm32-for-vscode\\@xpac
 1866              		.file 4 "Core/Src/NOS_LIB_Driver/Inc/NOS_Typedefs.h"
 1867              		.file 5 "Core/Src/NOS_LIB_Driver/Inc/CharLib(7x5).h"
 1868              		.file 6 "Core/Src/NOS_LIB_Driver/Inc/NOS_Math.h"
 1869              		.file 7 "<built-in>"
ARM GAS  C:\Users\user\AppData\Local\Temp\ccrAJRWE.s 			page 44


DEFINED SYMBOLS
                            *ABS*:0000000000000000 WS2812B.c
C:\Users\user\AppData\Local\Temp\ccrAJRWE.s:18     .text.NOS_WS2812B_Matrix_Init:0000000000000000 $t
C:\Users\user\AppData\Local\Temp\ccrAJRWE.s:26     .text.NOS_WS2812B_Matrix_Init:0000000000000000 NOS_WS2812B_Matrix_Init
C:\Users\user\AppData\Local\Temp\ccrAJRWE.s:47     .text.NOS_WS2812B_Matrix_SetPixel:0000000000000000 $t
C:\Users\user\AppData\Local\Temp\ccrAJRWE.s:54     .text.NOS_WS2812B_Matrix_SetPixel:0000000000000000 NOS_WS2812B_Matrix_SetPixel
C:\Users\user\AppData\Local\Temp\ccrAJRWE.s:105    .text.GetPixelPos:0000000000000000 $t
C:\Users\user\AppData\Local\Temp\ccrAJRWE.s:112    .text.GetPixelPos:0000000000000000 GetPixelPos
C:\Users\user\AppData\Local\Temp\ccrAJRWE.s:145    .text.NOS_WS2812B_Matrix_Update:0000000000000000 $t
C:\Users\user\AppData\Local\Temp\ccrAJRWE.s:152    .text.NOS_WS2812B_Matrix_Update:0000000000000000 NOS_WS2812B_Matrix_Update
C:\Users\user\AppData\Local\Temp\ccrAJRWE.s:466    .text.NOS_WS2812B_Matrix_Update:0000000000000138 $d
C:\Users\user\AppData\Local\Temp\ccrAJRWE.s:471    .text.Symvol_GetBitMap:0000000000000000 $t
C:\Users\user\AppData\Local\Temp\ccrAJRWE.s:478    .text.Symvol_GetBitMap:0000000000000000 Symvol_GetBitMap
C:\Users\user\AppData\Local\Temp\ccrAJRWE.s:494    .text.Symvol_GetBitMap:000000000000000c $d
C:\Users\user\AppData\Local\Temp\ccrAJRWE.s:584    .text.Symvol_GetBitMap:00000000000000c0 $t
C:\Users\user\AppData\Local\Temp\ccrAJRWE.s:910    .text.Symvol_GetBitMap:0000000000000198 $d
C:\Users\user\AppData\Local\Temp\ccrAJRWE.s:967    .text.NOS_WS2812B_Matrix_SetSymvol:0000000000000000 $t
C:\Users\user\AppData\Local\Temp\ccrAJRWE.s:974    .text.NOS_WS2812B_Matrix_SetSymvol:0000000000000000 NOS_WS2812B_Matrix_SetSymvol
C:\Users\user\AppData\Local\Temp\ccrAJRWE.s:1034   .text.NOS_WS2812B_Matrix_PrintStaticString:0000000000000000 $t
C:\Users\user\AppData\Local\Temp\ccrAJRWE.s:1041   .text.NOS_WS2812B_Matrix_PrintStaticString:0000000000000000 NOS_WS2812B_Matrix_PrintStaticString
C:\Users\user\AppData\Local\Temp\ccrAJRWE.s:1107   .text.NOS_WS2812B_Matrix_PrintIntNumber:0000000000000000 $t
C:\Users\user\AppData\Local\Temp\ccrAJRWE.s:1114   .text.NOS_WS2812B_Matrix_PrintIntNumber:0000000000000000 NOS_WS2812B_Matrix_PrintIntNumber
C:\Users\user\AppData\Local\Temp\ccrAJRWE.s:1318   .text.NOS_WS2812B_Matrix_PrintIntNumber:00000000000000f0 $d
C:\Users\user\AppData\Local\Temp\ccrAJRWE.s:1325   .rodata.NOS_WS2812B_Matrix_PrintFloatNumber.str1.4:0000000000000000 $d
C:\Users\user\AppData\Local\Temp\ccrAJRWE.s:1329   .text.NOS_WS2812B_Matrix_PrintFloatNumber:0000000000000000 $t
C:\Users\user\AppData\Local\Temp\ccrAJRWE.s:1336   .text.NOS_WS2812B_Matrix_PrintFloatNumber:0000000000000000 NOS_WS2812B_Matrix_PrintFloatNumber
C:\Users\user\AppData\Local\Temp\ccrAJRWE.s:1426   .text.NOS_WS2812B_Matrix_PrintFloatNumber:0000000000000060 $d
C:\Users\user\AppData\Local\Temp\ccrAJRWE.s:1811   .data.Num_9:0000000000000000 Num_9
C:\Users\user\AppData\Local\Temp\ccrAJRWE.s:1804   .data.Num_8:0000000000000000 Num_8
C:\Users\user\AppData\Local\Temp\ccrAJRWE.s:1797   .data.Num_7:0000000000000000 Num_7
C:\Users\user\AppData\Local\Temp\ccrAJRWE.s:1790   .data.Num_6:0000000000000000 Num_6
C:\Users\user\AppData\Local\Temp\ccrAJRWE.s:1783   .data.Num_5:0000000000000000 Num_5
C:\Users\user\AppData\Local\Temp\ccrAJRWE.s:1776   .data.Num_4:0000000000000000 Num_4
C:\Users\user\AppData\Local\Temp\ccrAJRWE.s:1769   .data.Num_3:0000000000000000 Num_3
C:\Users\user\AppData\Local\Temp\ccrAJRWE.s:1762   .data.Num_2:0000000000000000 Num_2
C:\Users\user\AppData\Local\Temp\ccrAJRWE.s:1755   .data.Num_1:0000000000000000 Num_1
C:\Users\user\AppData\Local\Temp\ccrAJRWE.s:1748   .data.Num_0:0000000000000000 Num_0
C:\Users\user\AppData\Local\Temp\ccrAJRWE.s:1497   .data.Celcium:0000000000000000 Celcium
C:\Users\user\AppData\Local\Temp\ccrAJRWE.s:1741   .data.Multiply:0000000000000000 Multiply
C:\Users\user\AppData\Local\Temp\ccrAJRWE.s:1735   .data.Minus:0000000000000000 Minus
C:\Users\user\AppData\Local\Temp\ccrAJRWE.s:1818   .data.Plus:0000000000000000 Plus
C:\Users\user\AppData\Local\Temp\ccrAJRWE.s:1825   .data.Slash:0000000000000000 Slash
C:\Users\user\AppData\Local\Temp\ccrAJRWE.s:1511   .data.DoubleDot:0000000000000000 DoubleDot
C:\Users\user\AppData\Local\Temp\ccrAJRWE.s:1504   .data.Dot:0000000000000000 Dot
C:\Users\user\AppData\Local\Temp\ccrAJRWE.s:1490   .bss.Space:0000000000000000 Space
C:\Users\user\AppData\Local\Temp\ccrAJRWE.s:1832   .data.Ukr_ch:0000000000000000 Ukr_ch
C:\Users\user\AppData\Local\Temp\ccrAJRWE.s:1839   .data.Ukr_d:0000000000000000 Ukr_d
C:\Users\user\AppData\Local\Temp\ccrAJRWE.s:1846   .data.Ukr_g:0000000000000000 Ukr_g
C:\Users\user\AppData\Local\Temp\ccrAJRWE.s:1853   .data.Ukr_k:0000000000000000 Ukr_k
C:\Users\user\AppData\Local\Temp\ccrAJRWE.s:1860   .data.Ukr_m:0000000000000000 Ukr_m
C:\Users\user\AppData\Local\Temp\ccrAJRWE.s:1714   .data.Eng_o:0000000000000000 Eng_o
C:\Users\user\AppData\Local\Temp\ccrAJRWE.s:1721   .data.Eng_u:0000000000000000 Eng_u
C:\Users\user\AppData\Local\Temp\ccrAJRWE.s:1728   .data.Eng_v:0000000000000000 Eng_v
C:\Users\user\AppData\Local\Temp\ccrAJRWE.s:1707   .data.Eng_c:0000000000000000 Eng_c
C:\Users\user\AppData\Local\Temp\ccrAJRWE.s:1700   .data.Eng_a:0000000000000000 Eng_a
C:\Users\user\AppData\Local\Temp\ccrAJRWE.s:1693   .data.Eng_Z:0000000000000000 Eng_Z
C:\Users\user\AppData\Local\Temp\ccrAJRWE.s:1686   .data.Eng_Y:0000000000000000 Eng_Y
ARM GAS  C:\Users\user\AppData\Local\Temp\ccrAJRWE.s 			page 45


C:\Users\user\AppData\Local\Temp\ccrAJRWE.s:1679   .data.Eng_X:0000000000000000 Eng_X
C:\Users\user\AppData\Local\Temp\ccrAJRWE.s:1672   .data.Eng_W:0000000000000000 Eng_W
C:\Users\user\AppData\Local\Temp\ccrAJRWE.s:1665   .data.Eng_V:0000000000000000 Eng_V
C:\Users\user\AppData\Local\Temp\ccrAJRWE.s:1658   .data.Eng_U:0000000000000000 Eng_U
C:\Users\user\AppData\Local\Temp\ccrAJRWE.s:1651   .data.Eng_T:0000000000000000 Eng_T
C:\Users\user\AppData\Local\Temp\ccrAJRWE.s:1644   .data.Eng_S:0000000000000000 Eng_S
C:\Users\user\AppData\Local\Temp\ccrAJRWE.s:1637   .data.Eng_R:0000000000000000 Eng_R
C:\Users\user\AppData\Local\Temp\ccrAJRWE.s:1630   .data.Eng_Q:0000000000000000 Eng_Q
C:\Users\user\AppData\Local\Temp\ccrAJRWE.s:1623   .data.Eng_P:0000000000000000 Eng_P
C:\Users\user\AppData\Local\Temp\ccrAJRWE.s:1616   .data.Eng_O:0000000000000000 Eng_O
C:\Users\user\AppData\Local\Temp\ccrAJRWE.s:1609   .data.Eng_N:0000000000000000 Eng_N
C:\Users\user\AppData\Local\Temp\ccrAJRWE.s:1602   .data.Eng_M:0000000000000000 Eng_M
C:\Users\user\AppData\Local\Temp\ccrAJRWE.s:1595   .data.Eng_L:0000000000000000 Eng_L
C:\Users\user\AppData\Local\Temp\ccrAJRWE.s:1588   .data.Eng_K:0000000000000000 Eng_K
C:\Users\user\AppData\Local\Temp\ccrAJRWE.s:1581   .data.Eng_J:0000000000000000 Eng_J
C:\Users\user\AppData\Local\Temp\ccrAJRWE.s:1574   .data.Eng_I:0000000000000000 Eng_I
C:\Users\user\AppData\Local\Temp\ccrAJRWE.s:1567   .data.Eng_H:0000000000000000 Eng_H
C:\Users\user\AppData\Local\Temp\ccrAJRWE.s:1560   .data.Eng_G:0000000000000000 Eng_G
C:\Users\user\AppData\Local\Temp\ccrAJRWE.s:1553   .data.Eng_F:0000000000000000 Eng_F
C:\Users\user\AppData\Local\Temp\ccrAJRWE.s:1546   .data.Eng_E:0000000000000000 Eng_E
C:\Users\user\AppData\Local\Temp\ccrAJRWE.s:1539   .data.Eng_D:0000000000000000 Eng_D
C:\Users\user\AppData\Local\Temp\ccrAJRWE.s:1532   .data.Eng_C:0000000000000000 Eng_C
C:\Users\user\AppData\Local\Temp\ccrAJRWE.s:1525   .data.Eng_B:0000000000000000 Eng_B
C:\Users\user\AppData\Local\Temp\ccrAJRWE.s:1518   .data.Eng_A:0000000000000000 Eng_A
C:\Users\user\AppData\Local\Temp\ccrAJRWE.s:1486   .bss.Space:0000000000000000 $d
C:\Users\user\AppData\Local\Temp\ccrAJRWE.s:1493   .data.Celcium:0000000000000000 $d
C:\Users\user\AppData\Local\Temp\ccrAJRWE.s:1500   .data.Dot:0000000000000000 $d
C:\Users\user\AppData\Local\Temp\ccrAJRWE.s:1507   .data.DoubleDot:0000000000000000 $d
C:\Users\user\AppData\Local\Temp\ccrAJRWE.s:1514   .data.Eng_A:0000000000000000 $d
C:\Users\user\AppData\Local\Temp\ccrAJRWE.s:1521   .data.Eng_B:0000000000000000 $d
C:\Users\user\AppData\Local\Temp\ccrAJRWE.s:1528   .data.Eng_C:0000000000000000 $d
C:\Users\user\AppData\Local\Temp\ccrAJRWE.s:1535   .data.Eng_D:0000000000000000 $d
C:\Users\user\AppData\Local\Temp\ccrAJRWE.s:1542   .data.Eng_E:0000000000000000 $d
C:\Users\user\AppData\Local\Temp\ccrAJRWE.s:1549   .data.Eng_F:0000000000000000 $d
C:\Users\user\AppData\Local\Temp\ccrAJRWE.s:1556   .data.Eng_G:0000000000000000 $d
C:\Users\user\AppData\Local\Temp\ccrAJRWE.s:1563   .data.Eng_H:0000000000000000 $d
C:\Users\user\AppData\Local\Temp\ccrAJRWE.s:1570   .data.Eng_I:0000000000000000 $d
C:\Users\user\AppData\Local\Temp\ccrAJRWE.s:1577   .data.Eng_J:0000000000000000 $d
C:\Users\user\AppData\Local\Temp\ccrAJRWE.s:1584   .data.Eng_K:0000000000000000 $d
C:\Users\user\AppData\Local\Temp\ccrAJRWE.s:1591   .data.Eng_L:0000000000000000 $d
C:\Users\user\AppData\Local\Temp\ccrAJRWE.s:1598   .data.Eng_M:0000000000000000 $d
C:\Users\user\AppData\Local\Temp\ccrAJRWE.s:1605   .data.Eng_N:0000000000000000 $d
C:\Users\user\AppData\Local\Temp\ccrAJRWE.s:1612   .data.Eng_O:0000000000000000 $d
C:\Users\user\AppData\Local\Temp\ccrAJRWE.s:1619   .data.Eng_P:0000000000000000 $d
C:\Users\user\AppData\Local\Temp\ccrAJRWE.s:1626   .data.Eng_Q:0000000000000000 $d
C:\Users\user\AppData\Local\Temp\ccrAJRWE.s:1633   .data.Eng_R:0000000000000000 $d
C:\Users\user\AppData\Local\Temp\ccrAJRWE.s:1640   .data.Eng_S:0000000000000000 $d
C:\Users\user\AppData\Local\Temp\ccrAJRWE.s:1647   .data.Eng_T:0000000000000000 $d
C:\Users\user\AppData\Local\Temp\ccrAJRWE.s:1654   .data.Eng_U:0000000000000000 $d
C:\Users\user\AppData\Local\Temp\ccrAJRWE.s:1661   .data.Eng_V:0000000000000000 $d
C:\Users\user\AppData\Local\Temp\ccrAJRWE.s:1668   .data.Eng_W:0000000000000000 $d
C:\Users\user\AppData\Local\Temp\ccrAJRWE.s:1675   .data.Eng_X:0000000000000000 $d
C:\Users\user\AppData\Local\Temp\ccrAJRWE.s:1682   .data.Eng_Y:0000000000000000 $d
C:\Users\user\AppData\Local\Temp\ccrAJRWE.s:1689   .data.Eng_Z:0000000000000000 $d
C:\Users\user\AppData\Local\Temp\ccrAJRWE.s:1696   .data.Eng_a:0000000000000000 $d
C:\Users\user\AppData\Local\Temp\ccrAJRWE.s:1703   .data.Eng_c:0000000000000000 $d
C:\Users\user\AppData\Local\Temp\ccrAJRWE.s:1710   .data.Eng_o:0000000000000000 $d
ARM GAS  C:\Users\user\AppData\Local\Temp\ccrAJRWE.s 			page 46


C:\Users\user\AppData\Local\Temp\ccrAJRWE.s:1717   .data.Eng_u:0000000000000000 $d
C:\Users\user\AppData\Local\Temp\ccrAJRWE.s:1724   .data.Eng_v:0000000000000000 $d
C:\Users\user\AppData\Local\Temp\ccrAJRWE.s:1731   .data.Minus:0000000000000000 $d
C:\Users\user\AppData\Local\Temp\ccrAJRWE.s:1738   .data.Multiply:0000000000000000 $d
C:\Users\user\AppData\Local\Temp\ccrAJRWE.s:1744   .data.Num_0:0000000000000000 $d
C:\Users\user\AppData\Local\Temp\ccrAJRWE.s:1751   .data.Num_1:0000000000000000 $d
C:\Users\user\AppData\Local\Temp\ccrAJRWE.s:1758   .data.Num_2:0000000000000000 $d
C:\Users\user\AppData\Local\Temp\ccrAJRWE.s:1765   .data.Num_3:0000000000000000 $d
C:\Users\user\AppData\Local\Temp\ccrAJRWE.s:1772   .data.Num_4:0000000000000000 $d
C:\Users\user\AppData\Local\Temp\ccrAJRWE.s:1779   .data.Num_5:0000000000000000 $d
C:\Users\user\AppData\Local\Temp\ccrAJRWE.s:1786   .data.Num_6:0000000000000000 $d
C:\Users\user\AppData\Local\Temp\ccrAJRWE.s:1793   .data.Num_7:0000000000000000 $d
C:\Users\user\AppData\Local\Temp\ccrAJRWE.s:1800   .data.Num_8:0000000000000000 $d
C:\Users\user\AppData\Local\Temp\ccrAJRWE.s:1807   .data.Num_9:0000000000000000 $d
C:\Users\user\AppData\Local\Temp\ccrAJRWE.s:1814   .data.Plus:0000000000000000 $d
C:\Users\user\AppData\Local\Temp\ccrAJRWE.s:1821   .data.Slash:0000000000000000 $d
C:\Users\user\AppData\Local\Temp\ccrAJRWE.s:1828   .data.Ukr_ch:0000000000000000 $d
C:\Users\user\AppData\Local\Temp\ccrAJRWE.s:1835   .data.Ukr_d:0000000000000000 $d
C:\Users\user\AppData\Local\Temp\ccrAJRWE.s:1842   .data.Ukr_g:0000000000000000 $d
C:\Users\user\AppData\Local\Temp\ccrAJRWE.s:1849   .data.Ukr_k:0000000000000000 $d
C:\Users\user\AppData\Local\Temp\ccrAJRWE.s:1856   .data.Ukr_m:0000000000000000 $d

UNDEFINED SYMBOLS
NOS_Math_NormalizeValue
__aeabi_i2d
__aeabi_ddiv
__aeabi_d2uiz
__aeabi_dmul
__aeabi_dsub
__aeabi_d2iz
NOS_Math_GetNumberPower
pow
