ARM GAS  C:\Users\user\AppData\Local\Temp\ccKeU5r1.s 			page 1


   1              		.cpu cortex-m4
   2              		.eabi_attribute 27, 1
   3              		.eabi_attribute 28, 1
   4              		.eabi_attribute 20, 1
   5              		.eabi_attribute 21, 1
   6              		.eabi_attribute 23, 3
   7              		.eabi_attribute 24, 1
   8              		.eabi_attribute 25, 1
   9              		.eabi_attribute 26, 1
  10              		.eabi_attribute 30, 1
  11              		.eabi_attribute 34, 1
  12              		.eabi_attribute 18, 4
  13              		.file	"WS2812B.c"
  14              		.text
  15              	.Ltext0:
  16              		.cfi_sections	.debug_frame
  17              		.section	.text.NOS_WS2812B_Matrix_BaseInit,"ax",%progbits
  18              		.align	1
  19              		.global	NOS_WS2812B_Matrix_BaseInit
  20              		.arch armv7e-m
  21              		.syntax unified
  22              		.thumb
  23              		.thumb_func
  24              		.fpu fpv4-sp-d16
  26              	NOS_WS2812B_Matrix_BaseInit:
  27              	.LVL0:
  28              	.LFB130:
  29              		.file 1 "Core/Src/NOS_LIB_Driver/Src/WS2812B.c"
   1:Core/Src/NOS_LIB_Driver/Src/WS2812B.c **** #include "WS2812B.h"
   2:Core/Src/NOS_LIB_Driver/Src/WS2812B.c **** #include "CharLib(7x5).h"
   3:Core/Src/NOS_LIB_Driver/Src/WS2812B.c **** #include <stdbool.h>
   4:Core/Src/NOS_LIB_Driver/Src/WS2812B.c **** #include "NOS_Math.h"
   5:Core/Src/NOS_LIB_Driver/Src/WS2812B.c **** 
   6:Core/Src/NOS_LIB_Driver/Src/WS2812B.c **** void NOS_WS2812B_Matrix_BaseInit(WS2812B_Matrix* matrix,uint8_t* buff,uint16_t ledsCount)
   7:Core/Src/NOS_LIB_Driver/Src/WS2812B.c **** {
  30              		.loc 1 7 1 view -0
  31              		.cfi_startproc
  32              		@ args = 0, pretend = 0, frame = 0
  33              		@ frame_needed = 0, uses_anonymous_args = 0
  34              		@ link register save eliminated.
   8:Core/Src/NOS_LIB_Driver/Src/WS2812B.c ****      matrix->buffer = buff;
  35              		.loc 1 8 6 view .LVU1
  36              		.loc 1 8 21 is_stmt 0 view .LVU2
  37 0000 0160     		str	r1, [r0]
   9:Core/Src/NOS_LIB_Driver/Src/WS2812B.c ****      matrix->ledsCount.data = ledsCount;
  38              		.loc 1 9 6 is_stmt 1 view .LVU3
  39              		.loc 1 9 29 is_stmt 0 view .LVU4
  40 0002 C280     		strh	r2, [r0, #6]	@ movhi
  10:Core/Src/NOS_LIB_Driver/Src/WS2812B.c **** }
  41              		.loc 1 10 1 view .LVU5
  42 0004 7047     		bx	lr
  43              		.cfi_endproc
  44              	.LFE130:
  46              		.section	.text.NOS_WS2812B_Matrix_FullInit,"ax",%progbits
  47              		.align	1
  48              		.global	NOS_WS2812B_Matrix_FullInit
  49              		.syntax unified
ARM GAS  C:\Users\user\AppData\Local\Temp\ccKeU5r1.s 			page 2


  50              		.thumb
  51              		.thumb_func
  52              		.fpu fpv4-sp-d16
  54              	NOS_WS2812B_Matrix_FullInit:
  55              	.LVL1:
  56              	.LFB131:
  11:Core/Src/NOS_LIB_Driver/Src/WS2812B.c **** 
  12:Core/Src/NOS_LIB_Driver/Src/WS2812B.c **** void NOS_WS2812B_Matrix_FullInit(WS2812B_Matrix* matrix,uint8_t* buff,MatrixSize* size,PixelColor* 
  13:Core/Src/NOS_LIB_Driver/Src/WS2812B.c **** {
  57              		.loc 1 13 1 is_stmt 1 view -0
  58              		.cfi_startproc
  59              		@ args = 12, pretend = 0, frame = 0
  60              		@ frame_needed = 0, uses_anonymous_args = 0
  61              		@ link register save eliminated.
  14:Core/Src/NOS_LIB_Driver/Src/WS2812B.c ****     matrix->buffer = buff;
  62              		.loc 1 14 5 view .LVU7
  63              		.loc 1 14 20 is_stmt 0 view .LVU8
  64 0000 0160     		str	r1, [r0]
  15:Core/Src/NOS_LIB_Driver/Src/WS2812B.c ****     matrix->symvols = symvols;
  65              		.loc 1 15 5 is_stmt 1 view .LVU9
  66              		.loc 1 15 21 is_stmt 0 view .LVU10
  67 0002 0199     		ldr	r1, [sp, #4]
  68              	.LVL2:
  69              		.loc 1 15 21 view .LVU11
  70 0004 4161     		str	r1, [r0, #20]
  16:Core/Src/NOS_LIB_Driver/Src/WS2812B.c ****     matrix->textColor = text;
  71              		.loc 1 16 5 is_stmt 1 view .LVU12
  72              		.loc 1 16 23 is_stmt 0 view .LVU13
  73 0006 C360     		str	r3, [r0, #12]
  17:Core/Src/NOS_LIB_Driver/Src/WS2812B.c ****     matrix->foneColor = fone;
  74              		.loc 1 17 5 is_stmt 1 view .LVU14
  75              		.loc 1 17 23 is_stmt 0 view .LVU15
  76 0008 009B     		ldr	r3, [sp]
  77              	.LVL3:
  78              		.loc 1 17 23 view .LVU16
  79 000a 0361     		str	r3, [r0, #16]
  18:Core/Src/NOS_LIB_Driver/Src/WS2812B.c ****     matrix->size = size;
  80              		.loc 1 18 5 is_stmt 1 view .LVU17
  81              		.loc 1 18 18 is_stmt 0 view .LVU18
  82 000c 8260     		str	r2, [r0, #8]
  19:Core/Src/NOS_LIB_Driver/Src/WS2812B.c ****     matrix->bright = bright;
  83              		.loc 1 19 5 is_stmt 1 view .LVU19
  84              		.loc 1 19 20 is_stmt 0 view .LVU20
  85 000e 9DF80830 		ldrb	r3, [sp, #8]	@ zero_extendqisi2
  86 0012 0371     		strb	r3, [r0, #4]
  20:Core/Src/NOS_LIB_Driver/Src/WS2812B.c **** }
  87              		.loc 1 20 1 view .LVU21
  88 0014 7047     		bx	lr
  89              		.cfi_endproc
  90              	.LFE131:
  92              		.section	.text.NOS_WS2812B_Matrix_SetPixel,"ax",%progbits
  93              		.align	1
  94              		.global	NOS_WS2812B_Matrix_SetPixel
  95              		.syntax unified
  96              		.thumb
  97              		.thumb_func
  98              		.fpu fpv4-sp-d16
ARM GAS  C:\Users\user\AppData\Local\Temp\ccKeU5r1.s 			page 3


 100              	NOS_WS2812B_Matrix_SetPixel:
 101              	.LVL4:
 102              	.LFB132:
  21:Core/Src/NOS_LIB_Driver/Src/WS2812B.c **** 
  22:Core/Src/NOS_LIB_Driver/Src/WS2812B.c **** void NOS_WS2812B_Matrix_SetPixel(WS2812B_Matrix* matrix,PixelColor* color,uint16_t pixelPos)
  23:Core/Src/NOS_LIB_Driver/Src/WS2812B.c **** {
 103              		.loc 1 23 1 is_stmt 1 view -0
 104              		.cfi_startproc
 105              		@ args = 0, pretend = 0, frame = 0
 106              		@ frame_needed = 0, uses_anonymous_args = 0
 107              		@ link register save eliminated.
 108              		.loc 1 23 1 is_stmt 0 view .LVU23
 109 0000 10B4     		push	{r4}
 110              	.LCFI0:
 111              		.cfi_def_cfa_offset 4
 112              		.cfi_offset 4, -4
  24:Core/Src/NOS_LIB_Driver/Src/WS2812B.c ****     matrix->buffer[pixelPos * 3] = color->R;
 113              		.loc 1 24 5 is_stmt 1 view .LVU24
 114              		.loc 1 24 11 is_stmt 0 view .LVU25
 115 0002 0368     		ldr	r3, [r0]
 116              		.loc 1 24 29 view .LVU26
 117 0004 02EB4202 		add	r2, r2, r2, lsl #1
 118              	.LVL5:
 119              		.loc 1 24 41 view .LVU27
 120 0008 91F800C0 		ldrb	ip, [r1]	@ zero_extendqisi2
 121              		.loc 1 24 34 view .LVU28
 122 000c 03F802C0 		strb	ip, [r3, r2]
  25:Core/Src/NOS_LIB_Driver/Src/WS2812B.c ****     matrix->buffer[pixelPos * 3 + 1] = color->G;
 123              		.loc 1 25 5 is_stmt 1 view .LVU29
 124              		.loc 1 25 19 is_stmt 0 view .LVU30
 125 0010 531C     		adds	r3, r2, #1
 126              		.loc 1 25 45 view .LVU31
 127 0012 91F801C0 		ldrb	ip, [r1, #1]	@ zero_extendqisi2
 128              		.loc 1 25 38 view .LVU32
 129 0016 0468     		ldr	r4, [r0]
 130 0018 04F803C0 		strb	ip, [r4, r3]
  26:Core/Src/NOS_LIB_Driver/Src/WS2812B.c ****     matrix->buffer[pixelPos * 3 + 2] = color->B;
 131              		.loc 1 26 5 is_stmt 1 view .LVU33
 132              		.loc 1 26 11 is_stmt 0 view .LVU34
 133 001c 0368     		ldr	r3, [r0]
 134              		.loc 1 26 19 view .LVU35
 135 001e 0232     		adds	r2, r2, #2
 136              		.loc 1 26 45 view .LVU36
 137 0020 8978     		ldrb	r1, [r1, #2]	@ zero_extendqisi2
 138              	.LVL6:
 139              		.loc 1 26 38 view .LVU37
 140 0022 9954     		strb	r1, [r3, r2]
  27:Core/Src/NOS_LIB_Driver/Src/WS2812B.c **** }
 141              		.loc 1 27 1 view .LVU38
 142 0024 5DF8044B 		ldr	r4, [sp], #4
 143              	.LCFI1:
 144              		.cfi_restore 4
 145              		.cfi_def_cfa_offset 0
 146 0028 7047     		bx	lr
 147              		.cfi_endproc
 148              	.LFE132:
 150              		.section	.text.GetPixelPos,"ax",%progbits
ARM GAS  C:\Users\user\AppData\Local\Temp\ccKeU5r1.s 			page 4


 151              		.align	1
 152              		.global	GetPixelPos
 153              		.syntax unified
 154              		.thumb
 155              		.thumb_func
 156              		.fpu fpv4-sp-d16
 158              	GetPixelPos:
 159              	.LVL7:
 160              	.LFB133:
  28:Core/Src/NOS_LIB_Driver/Src/WS2812B.c **** 
  29:Core/Src/NOS_LIB_Driver/Src/WS2812B.c **** uint16_t GetPixelPos(uint8_t x, uint8_t y)
  30:Core/Src/NOS_LIB_Driver/Src/WS2812B.c **** {
 161              		.loc 1 30 1 is_stmt 1 view -0
 162              		.cfi_startproc
 163              		@ args = 0, pretend = 0, frame = 0
 164              		@ frame_needed = 0, uses_anonymous_args = 0
 165              		@ link register save eliminated.
  31:Core/Src/NOS_LIB_Driver/Src/WS2812B.c ****     if (x % 2 == 0)
 166              		.loc 1 31 5 view .LVU40
 167              		.loc 1 31 8 is_stmt 0 view .LVU41
 168 0000 10F0010F 		tst	r0, #1
 169 0004 02D1     		bne	.L6
  32:Core/Src/NOS_LIB_Driver/Src/WS2812B.c ****     {
  33:Core/Src/NOS_LIB_Driver/Src/WS2812B.c ****         return (x * 8) + y;
 170              		.loc 1 33 9 is_stmt 1 view .LVU42
 171              		.loc 1 33 24 is_stmt 0 view .LVU43
 172 0006 01EBC000 		add	r0, r1, r0, lsl #3
 173              	.LVL8:
 174              		.loc 1 33 24 view .LVU44
 175 000a 7047     		bx	lr
 176              	.LVL9:
 177              	.L6:
  34:Core/Src/NOS_LIB_Driver/Src/WS2812B.c ****     }
  35:Core/Src/NOS_LIB_Driver/Src/WS2812B.c ****     else
  36:Core/Src/NOS_LIB_Driver/Src/WS2812B.c ****     {
  37:Core/Src/NOS_LIB_Driver/Src/WS2812B.c ****         return(x * 8) + (8 - y);
 178              		.loc 1 37 9 is_stmt 1 view .LVU45
 179              		.loc 1 37 23 is_stmt 0 view .LVU46
 180 000c C1EBC000 		rsb	r0, r1, r0, lsl #3
 181              	.LVL10:
 182              		.loc 1 37 23 view .LVU47
 183 0010 0830     		adds	r0, r0, #8
 184 0012 80B2     		uxth	r0, r0
  38:Core/Src/NOS_LIB_Driver/Src/WS2812B.c ****     }
  39:Core/Src/NOS_LIB_Driver/Src/WS2812B.c **** }
 185              		.loc 1 39 1 view .LVU48
 186 0014 7047     		bx	lr
 187              		.cfi_endproc
 188              	.LFE133:
 190              		.section	.text.NOS_WS2812B_Matrix_Update,"ax",%progbits
 191              		.align	1
 192              		.global	NOS_WS2812B_Matrix_Update
 193              		.syntax unified
 194              		.thumb
 195              		.thumb_func
 196              		.fpu fpv4-sp-d16
 198              	NOS_WS2812B_Matrix_Update:
ARM GAS  C:\Users\user\AppData\Local\Temp\ccKeU5r1.s 			page 5


 199              	.LVL11:
 200              	.LFB134:
  40:Core/Src/NOS_LIB_Driver/Src/WS2812B.c **** 
  41:Core/Src/NOS_LIB_Driver/Src/WS2812B.c **** void NOS_WS2812B_Matrix_Update(WS2812B_Matrix* matrix,uint16_t offset)
  42:Core/Src/NOS_LIB_Driver/Src/WS2812B.c **** {
 201              		.loc 1 42 1 is_stmt 1 view -0
 202              		.cfi_startproc
 203              		@ args = 0, pretend = 0, frame = 8
 204              		@ frame_needed = 0, uses_anonymous_args = 0
 205              		.loc 1 42 1 is_stmt 0 view .LVU50
 206 0000 2DE9F04F 		push	{r4, r5, r6, r7, r8, r9, r10, fp, lr}
 207              	.LCFI2:
 208              		.cfi_def_cfa_offset 36
 209              		.cfi_offset 4, -36
 210              		.cfi_offset 5, -32
 211              		.cfi_offset 6, -28
 212              		.cfi_offset 7, -24
 213              		.cfi_offset 8, -20
 214              		.cfi_offset 9, -16
 215              		.cfi_offset 10, -12
 216              		.cfi_offset 11, -8
 217              		.cfi_offset 14, -4
 218 0004 83B0     		sub	sp, sp, #12
 219              	.LCFI3:
 220              		.cfi_def_cfa_offset 48
 221 0006 0446     		mov	r4, r0
 222 0008 0E46     		mov	r6, r1
  43:Core/Src/NOS_LIB_Driver/Src/WS2812B.c ****      uint16_t currColumn = offset;
 223              		.loc 1 43 6 is_stmt 1 view .LVU51
 224              	.LVL12:
  44:Core/Src/NOS_LIB_Driver/Src/WS2812B.c ****      uint8_t currByte = 0;
 225              		.loc 1 44 6 view .LVU52
  45:Core/Src/NOS_LIB_Driver/Src/WS2812B.c ****      bool bit = false;
 226              		.loc 1 45 6 view .LVU53
  46:Core/Src/NOS_LIB_Driver/Src/WS2812B.c ****      uint8_t symvolCount = matrix->size->col / 6;
 227              		.loc 1 46 6 view .LVU54
 228              		.loc 1 46 34 is_stmt 0 view .LVU55
 229 000a 8368     		ldr	r3, [r0, #8]
 230              		.loc 1 46 40 view .LVU56
 231 000c 93F80080 		ldrb	r8, [r3]	@ zero_extendqisi2
 232              		.loc 1 46 14 view .LVU57
 233 0010 4B4B     		ldr	r3, .L29
 234 0012 A3FB0823 		umull	r2, r3, r3, r8
 235 0016 9B08     		lsrs	r3, r3, #2
 236 0018 0193     		str	r3, [sp, #4]
 237              	.LVL13:
  47:Core/Src/NOS_LIB_Driver/Src/WS2812B.c ****      uint8_t colls = matrix->size->col;
 238              		.loc 1 47 6 is_stmt 1 view .LVU58
  48:Core/Src/NOS_LIB_Driver/Src/WS2812B.c ****      //kastil
  49:Core/Src/NOS_LIB_Driver/Src/WS2812B.c ****      if(symvolCount > 15)
 239              		.loc 1 49 6 view .LVU59
 240              		.loc 1 49 8 is_stmt 0 view .LVU60
 241 001a B8F15F0F 		cmp	r8, #95
 242 001e 02D9     		bls	.L9
  50:Core/Src/NOS_LIB_Driver/Src/WS2812B.c ****      {
  51:Core/Src/NOS_LIB_Driver/Src/WS2812B.c ****         symvolCount--;
 243              		.loc 1 51 9 is_stmt 1 view .LVU61
ARM GAS  C:\Users\user\AppData\Local\Temp\ccKeU5r1.s 			page 6


 244              		.loc 1 51 20 is_stmt 0 view .LVU62
 245 0020 013B     		subs	r3, r3, #1
 246              	.LVL14:
 247              		.loc 1 51 20 view .LVU63
 248 0022 DBB2     		uxtb	r3, r3
 249 0024 0193     		str	r3, [sp, #4]
 250              	.LVL15:
 251              	.L9:
  52:Core/Src/NOS_LIB_Driver/Src/WS2812B.c ****      }
  53:Core/Src/NOS_LIB_Driver/Src/WS2812B.c ****      int currX = 0;
 252              		.loc 1 53 6 is_stmt 1 view .LVU64
  54:Core/Src/NOS_LIB_Driver/Src/WS2812B.c **** 
  55:Core/Src/NOS_LIB_Driver/Src/WS2812B.c ****      for(int currSymvol = 0; currSymvol < symvolCount; currSymvol++)
 253              		.loc 1 55 6 view .LVU65
 254              	.LBB2:
 255              		.loc 1 55 10 view .LVU66
 256              		.loc 1 55 14 is_stmt 0 view .LVU67
 257 0026 0023     		movs	r3, #0
 258 0028 0093     		str	r3, [sp]
 259              		.loc 1 55 6 view .LVU68
 260 002a 7EE0     		b	.L10
 261              	.LVL16:
 262              	.L13:
 263              	.LBB3:
 264              	.LBB4:
  56:Core/Src/NOS_LIB_Driver/Src/WS2812B.c ****      {
  57:Core/Src/NOS_LIB_Driver/Src/WS2812B.c ****         for(int Column = 0; Column < 5 ; Column++)
  58:Core/Src/NOS_LIB_Driver/Src/WS2812B.c ****         {
  59:Core/Src/NOS_LIB_Driver/Src/WS2812B.c ****             currByte = matrix->symvols[currSymvol].data[Column];
  60:Core/Src/NOS_LIB_Driver/Src/WS2812B.c **** 
  61:Core/Src/NOS_LIB_Driver/Src/WS2812B.c ****                    if(currColumn == 17)
  62:Core/Src/NOS_LIB_Driver/Src/WS2812B.c ****                    {
  63:Core/Src/NOS_LIB_Driver/Src/WS2812B.c ****                        bit = false;
  64:Core/Src/NOS_LIB_Driver/Src/WS2812B.c ****                    }
  65:Core/Src/NOS_LIB_Driver/Src/WS2812B.c **** 
  66:Core/Src/NOS_LIB_Driver/Src/WS2812B.c ****             if(currColumn % 2 == 0)
  67:Core/Src/NOS_LIB_Driver/Src/WS2812B.c ****             {
  68:Core/Src/NOS_LIB_Driver/Src/WS2812B.c ****                currX = 0;
  69:Core/Src/NOS_LIB_Driver/Src/WS2812B.c ****                for(int currBit = 0; currBit < 8; currBit++)
  70:Core/Src/NOS_LIB_Driver/Src/WS2812B.c ****                {
  71:Core/Src/NOS_LIB_Driver/Src/WS2812B.c ****                    bit = ((1 << currBit) & currByte);
  72:Core/Src/NOS_LIB_Driver/Src/WS2812B.c ****                    if(bit)
  73:Core/Src/NOS_LIB_Driver/Src/WS2812B.c ****                    {
  74:Core/Src/NOS_LIB_Driver/Src/WS2812B.c ****                        NOS_WS2812B_Matrix_SetPixel(matrix,matrix->textColor,GetPixelPos(NOS_Math_No
  75:Core/Src/NOS_LIB_Driver/Src/WS2812B.c ****                    }
  76:Core/Src/NOS_LIB_Driver/Src/WS2812B.c ****                    else
  77:Core/Src/NOS_LIB_Driver/Src/WS2812B.c ****                    {
  78:Core/Src/NOS_LIB_Driver/Src/WS2812B.c ****                        NOS_WS2812B_Matrix_SetPixel(matrix,matrix->foneColor,GetPixelPos(NOS_Math_No
 265              		.loc 1 78 24 is_stmt 1 view .LVU69
 266 002c D4F810B0 		ldr	fp, [r4, #16]
 267              		.loc 1 78 89 is_stmt 0 view .LVU70
 268 0030 4146     		mov	r1, r8
 269 0032 3046     		mov	r0, r6
 270 0034 FFF7FEFF 		bl	NOS_Math_NormalizeValue
 271              	.LVL17:
 272              		.loc 1 78 24 view .LVU71
 273 0038 F9B2     		uxtb	r1, r7
ARM GAS  C:\Users\user\AppData\Local\Temp\ccKeU5r1.s 			page 7


 274 003a C0B2     		uxtb	r0, r0
 275 003c FFF7FEFF 		bl	GetPixelPos
 276              	.LVL18:
 277 0040 0246     		mov	r2, r0
 278 0042 5946     		mov	r1, fp
 279 0044 2046     		mov	r0, r4
 280 0046 FFF7FEFF 		bl	NOS_WS2812B_Matrix_SetPixel
 281              	.LVL19:
 282              	.L14:
  79:Core/Src/NOS_LIB_Driver/Src/WS2812B.c ****                    }
  80:Core/Src/NOS_LIB_Driver/Src/WS2812B.c ****                    currX++;
 283              		.loc 1 80 20 is_stmt 1 discriminator 2 view .LVU72
 284              		.loc 1 80 25 is_stmt 0 discriminator 2 view .LVU73
 285 004a 0137     		adds	r7, r7, #1
 286              	.LVL20:
  69:Core/Src/NOS_LIB_Driver/Src/WS2812B.c ****                {
 287              		.loc 1 69 50 is_stmt 1 discriminator 2 view .LVU74
  69:Core/Src/NOS_LIB_Driver/Src/WS2812B.c ****                {
 288              		.loc 1 69 57 is_stmt 0 discriminator 2 view .LVU75
 289 004c 0135     		adds	r5, r5, #1
 290              	.LVL21:
 291              	.L11:
  69:Core/Src/NOS_LIB_Driver/Src/WS2812B.c ****                {
 292              		.loc 1 69 37 is_stmt 1 discriminator 1 view .LVU76
  69:Core/Src/NOS_LIB_Driver/Src/WS2812B.c ****                {
 293              		.loc 1 69 16 is_stmt 0 discriminator 1 view .LVU77
 294 004e 072D     		cmp	r5, #7
 295 0050 3FDC     		bgt	.L16
  71:Core/Src/NOS_LIB_Driver/Src/WS2812B.c ****                    if(bit)
 296              		.loc 1 71 20 is_stmt 1 view .LVU78
  71:Core/Src/NOS_LIB_Driver/Src/WS2812B.c ****                    if(bit)
 297              		.loc 1 71 30 is_stmt 0 view .LVU79
 298 0052 0123     		movs	r3, #1
 299 0054 AB40     		lsls	r3, r3, r5
 300              	.LVL22:
  72:Core/Src/NOS_LIB_Driver/Src/WS2812B.c ****                    {
 301              		.loc 1 72 20 is_stmt 1 view .LVU80
  72:Core/Src/NOS_LIB_Driver/Src/WS2812B.c ****                    {
 302              		.loc 1 72 22 is_stmt 0 view .LVU81
 303 0056 19EA030F 		tst	r9, r3
 304 005a E7D0     		beq	.L13
  74:Core/Src/NOS_LIB_Driver/Src/WS2812B.c ****                    }
 305              		.loc 1 74 24 is_stmt 1 view .LVU82
 306 005c D4F80CB0 		ldr	fp, [r4, #12]
  74:Core/Src/NOS_LIB_Driver/Src/WS2812B.c ****                    }
 307              		.loc 1 74 89 is_stmt 0 view .LVU83
 308 0060 4146     		mov	r1, r8
 309 0062 3046     		mov	r0, r6
 310 0064 FFF7FEFF 		bl	NOS_Math_NormalizeValue
 311              	.LVL23:
  74:Core/Src/NOS_LIB_Driver/Src/WS2812B.c ****                    }
 312              		.loc 1 74 24 view .LVU84
 313 0068 F9B2     		uxtb	r1, r7
 314 006a C0B2     		uxtb	r0, r0
 315 006c FFF7FEFF 		bl	GetPixelPos
 316              	.LVL24:
 317 0070 0246     		mov	r2, r0
ARM GAS  C:\Users\user\AppData\Local\Temp\ccKeU5r1.s 			page 8


 318 0072 5946     		mov	r1, fp
 319 0074 2046     		mov	r0, r4
 320 0076 FFF7FEFF 		bl	NOS_WS2812B_Matrix_SetPixel
 321              	.LVL25:
 322 007a E6E7     		b	.L14
 323              	.LVL26:
 324              	.L24:
  69:Core/Src/NOS_LIB_Driver/Src/WS2812B.c ****                {
 325              		.loc 1 69 24 view .LVU85
 326 007c 0025     		movs	r5, #0
 327              	.LBE4:
  68:Core/Src/NOS_LIB_Driver/Src/WS2812B.c ****                for(int currBit = 0; currBit < 8; currBit++)
 328              		.loc 1 68 22 view .LVU86
 329 007e 2F46     		mov	r7, r5
 330 0080 E5E7     		b	.L11
 331              	.LVL27:
 332              	.L17:
 333              	.LBB5:
  81:Core/Src/NOS_LIB_Driver/Src/WS2812B.c ****                 }
  82:Core/Src/NOS_LIB_Driver/Src/WS2812B.c ****             }
  83:Core/Src/NOS_LIB_Driver/Src/WS2812B.c ****             else
  84:Core/Src/NOS_LIB_Driver/Src/WS2812B.c ****             {
  85:Core/Src/NOS_LIB_Driver/Src/WS2812B.c ****                currX = 1;
  86:Core/Src/NOS_LIB_Driver/Src/WS2812B.c ****                for(int currBit = 0; currBit < 8; currBit++)
  87:Core/Src/NOS_LIB_Driver/Src/WS2812B.c ****                {
  88:Core/Src/NOS_LIB_Driver/Src/WS2812B.c ****                    bit = ((1 << currBit) & currByte);
  89:Core/Src/NOS_LIB_Driver/Src/WS2812B.c **** 
  90:Core/Src/NOS_LIB_Driver/Src/WS2812B.c ****                    if(bit)
  91:Core/Src/NOS_LIB_Driver/Src/WS2812B.c ****                    {
  92:Core/Src/NOS_LIB_Driver/Src/WS2812B.c ****                        NOS_WS2812B_Matrix_SetPixel(matrix,matrix->textColor,GetPixelPos(NOS_Math_No
  93:Core/Src/NOS_LIB_Driver/Src/WS2812B.c ****                    }
  94:Core/Src/NOS_LIB_Driver/Src/WS2812B.c ****                    else
  95:Core/Src/NOS_LIB_Driver/Src/WS2812B.c ****                    {
  96:Core/Src/NOS_LIB_Driver/Src/WS2812B.c ****                        NOS_WS2812B_Matrix_SetPixel(matrix,matrix->foneColor,GetPixelPos(NOS_Math_No
 334              		.loc 1 96 24 is_stmt 1 view .LVU87
 335 0082 D4F810B0 		ldr	fp, [r4, #16]
 336              		.loc 1 96 89 is_stmt 0 view .LVU88
 337 0086 4146     		mov	r1, r8
 338 0088 3046     		mov	r0, r6
 339 008a FFF7FEFF 		bl	NOS_Math_NormalizeValue
 340              	.LVL28:
 341              		.loc 1 96 24 view .LVU89
 342 008e F9B2     		uxtb	r1, r7
 343 0090 C0B2     		uxtb	r0, r0
 344 0092 FFF7FEFF 		bl	GetPixelPos
 345              	.LVL29:
 346 0096 0246     		mov	r2, r0
 347 0098 5946     		mov	r1, fp
 348 009a 2046     		mov	r0, r4
 349 009c FFF7FEFF 		bl	NOS_WS2812B_Matrix_SetPixel
 350              	.LVL30:
 351              	.L18:
  97:Core/Src/NOS_LIB_Driver/Src/WS2812B.c ****                    }
  98:Core/Src/NOS_LIB_Driver/Src/WS2812B.c ****                    currX++;
 352              		.loc 1 98 20 is_stmt 1 discriminator 2 view .LVU90
 353              		.loc 1 98 25 is_stmt 0 discriminator 2 view .LVU91
 354 00a0 0137     		adds	r7, r7, #1
ARM GAS  C:\Users\user\AppData\Local\Temp\ccKeU5r1.s 			page 9


 355              	.LVL31:
  86:Core/Src/NOS_LIB_Driver/Src/WS2812B.c ****                {
 356              		.loc 1 86 50 is_stmt 1 discriminator 2 view .LVU92
  86:Core/Src/NOS_LIB_Driver/Src/WS2812B.c ****                {
 357              		.loc 1 86 57 is_stmt 0 discriminator 2 view .LVU93
 358 00a2 0135     		adds	r5, r5, #1
 359              	.LVL32:
 360              	.L12:
  86:Core/Src/NOS_LIB_Driver/Src/WS2812B.c ****                {
 361              		.loc 1 86 37 is_stmt 1 discriminator 1 view .LVU94
  86:Core/Src/NOS_LIB_Driver/Src/WS2812B.c ****                {
 362              		.loc 1 86 16 is_stmt 0 discriminator 1 view .LVU95
 363 00a4 072D     		cmp	r5, #7
 364 00a6 14DC     		bgt	.L16
  88:Core/Src/NOS_LIB_Driver/Src/WS2812B.c **** 
 365              		.loc 1 88 20 is_stmt 1 view .LVU96
  88:Core/Src/NOS_LIB_Driver/Src/WS2812B.c **** 
 366              		.loc 1 88 30 is_stmt 0 view .LVU97
 367 00a8 0123     		movs	r3, #1
 368 00aa AB40     		lsls	r3, r3, r5
 369              	.LVL33:
  90:Core/Src/NOS_LIB_Driver/Src/WS2812B.c ****                    {
 370              		.loc 1 90 20 is_stmt 1 view .LVU98
  90:Core/Src/NOS_LIB_Driver/Src/WS2812B.c ****                    {
 371              		.loc 1 90 22 is_stmt 0 view .LVU99
 372 00ac 19EA030F 		tst	r9, r3
 373 00b0 E7D0     		beq	.L17
  92:Core/Src/NOS_LIB_Driver/Src/WS2812B.c ****                    }
 374              		.loc 1 92 24 is_stmt 1 view .LVU100
 375 00b2 D4F80CB0 		ldr	fp, [r4, #12]
  92:Core/Src/NOS_LIB_Driver/Src/WS2812B.c ****                    }
 376              		.loc 1 92 89 is_stmt 0 view .LVU101
 377 00b6 4146     		mov	r1, r8
 378 00b8 3046     		mov	r0, r6
 379 00ba FFF7FEFF 		bl	NOS_Math_NormalizeValue
 380              	.LVL34:
  92:Core/Src/NOS_LIB_Driver/Src/WS2812B.c ****                    }
 381              		.loc 1 92 24 view .LVU102
 382 00be F9B2     		uxtb	r1, r7
 383 00c0 C0B2     		uxtb	r0, r0
 384 00c2 FFF7FEFF 		bl	GetPixelPos
 385              	.LVL35:
 386 00c6 0246     		mov	r2, r0
 387 00c8 5946     		mov	r1, fp
 388 00ca 2046     		mov	r0, r4
 389 00cc FFF7FEFF 		bl	NOS_WS2812B_Matrix_SetPixel
 390              	.LVL36:
 391 00d0 E6E7     		b	.L18
 392              	.LVL37:
 393              	.L16:
  92:Core/Src/NOS_LIB_Driver/Src/WS2812B.c ****                    }
 394              		.loc 1 92 24 view .LVU103
 395              	.LBE5:
  99:Core/Src/NOS_LIB_Driver/Src/WS2812B.c ****                 }
 100:Core/Src/NOS_LIB_Driver/Src/WS2812B.c **** 
 101:Core/Src/NOS_LIB_Driver/Src/WS2812B.c ****             }
 102:Core/Src/NOS_LIB_Driver/Src/WS2812B.c ****             currColumn++;
ARM GAS  C:\Users\user\AppData\Local\Temp\ccKeU5r1.s 			page 10


 396              		.loc 1 102 13 is_stmt 1 discriminator 2 view .LVU104
 397              		.loc 1 102 23 is_stmt 0 discriminator 2 view .LVU105
 398 00d2 0136     		adds	r6, r6, #1
 399              	.LVL38:
 400              		.loc 1 102 23 discriminator 2 view .LVU106
 401 00d4 B6B2     		uxth	r6, r6
 402              	.LVL39:
  57:Core/Src/NOS_LIB_Driver/Src/WS2812B.c ****         {
 403              		.loc 1 57 42 is_stmt 1 discriminator 2 view .LVU107
  57:Core/Src/NOS_LIB_Driver/Src/WS2812B.c ****         {
 404              		.loc 1 57 48 is_stmt 0 discriminator 2 view .LVU108
 405 00d6 0AF1010A 		add	r10, r10, #1
 406              	.LVL40:
 407              	.L23:
  57:Core/Src/NOS_LIB_Driver/Src/WS2812B.c ****         {
 408              		.loc 1 57 29 is_stmt 1 discriminator 1 view .LVU109
  57:Core/Src/NOS_LIB_Driver/Src/WS2812B.c ****         {
 409              		.loc 1 57 9 is_stmt 0 discriminator 1 view .LVU110
 410 00da BAF1040F 		cmp	r10, #4
 411 00de 0CDC     		bgt	.L27
  59:Core/Src/NOS_LIB_Driver/Src/WS2812B.c **** 
 412              		.loc 1 59 13 is_stmt 1 view .LVU111
  59:Core/Src/NOS_LIB_Driver/Src/WS2812B.c **** 
 413              		.loc 1 59 30 is_stmt 0 view .LVU112
 414 00e0 6369     		ldr	r3, [r4, #20]
  59:Core/Src/NOS_LIB_Driver/Src/WS2812B.c **** 
 415              		.loc 1 59 39 view .LVU113
 416 00e2 009A     		ldr	r2, [sp]
 417 00e4 02EB8202 		add	r2, r2, r2, lsl #2
 418 00e8 1344     		add	r3, r3, r2
  59:Core/Src/NOS_LIB_Driver/Src/WS2812B.c **** 
 419              		.loc 1 59 22 view .LVU114
 420 00ea 13F80A90 		ldrb	r9, [r3, r10]	@ zero_extendqisi2
 421              	.LVL41:
  61:Core/Src/NOS_LIB_Driver/Src/WS2812B.c ****                    {
 422              		.loc 1 61 20 is_stmt 1 view .LVU115
  66:Core/Src/NOS_LIB_Driver/Src/WS2812B.c ****             {
 423              		.loc 1 66 13 view .LVU116
  66:Core/Src/NOS_LIB_Driver/Src/WS2812B.c ****             {
 424              		.loc 1 66 15 is_stmt 0 view .LVU117
 425 00ee 16F0010F 		tst	r6, #1
 426 00f2 C3D0     		beq	.L24
 427              	.LBB6:
  86:Core/Src/NOS_LIB_Driver/Src/WS2812B.c ****                {
 428              		.loc 1 86 24 view .LVU118
 429 00f4 0025     		movs	r5, #0
 430              	.LBE6:
  85:Core/Src/NOS_LIB_Driver/Src/WS2812B.c ****                for(int currBit = 0; currBit < 8; currBit++)
 431              		.loc 1 85 22 view .LVU119
 432 00f6 0127     		movs	r7, #1
 433 00f8 D4E7     		b	.L12
 434              	.LVL42:
 435              	.L27:
  85:Core/Src/NOS_LIB_Driver/Src/WS2812B.c ****                for(int currBit = 0; currBit < 8; currBit++)
 436              		.loc 1 85 22 view .LVU120
 437              	.LBE3:
 438              	.LBB7:
ARM GAS  C:\Users\user\AppData\Local\Temp\ccKeU5r1.s 			page 11


 103:Core/Src/NOS_LIB_Driver/Src/WS2812B.c ****         }
 104:Core/Src/NOS_LIB_Driver/Src/WS2812B.c **** 
 105:Core/Src/NOS_LIB_Driver/Src/WS2812B.c ****         for(int i = 1; i < 9; i++)
 439              		.loc 1 105 17 view .LVU121
 440 00fa 0125     		movs	r5, #1
 441 00fc 0EE0     		b	.L21
 442              	.LVL43:
 443              	.L22:
 106:Core/Src/NOS_LIB_Driver/Src/WS2812B.c ****         {
 107:Core/Src/NOS_LIB_Driver/Src/WS2812B.c ****             NOS_WS2812B_Matrix_SetPixel(matrix,matrix->foneColor,GetPixelPos(NOS_Math_NormalizeValu
 444              		.loc 1 107 13 is_stmt 1 discriminator 3 view .LVU122
 445 00fe 2769     		ldr	r7, [r4, #16]
 446              		.loc 1 107 78 is_stmt 0 discriminator 3 view .LVU123
 447 0100 4146     		mov	r1, r8
 448 0102 3046     		mov	r0, r6
 449 0104 FFF7FEFF 		bl	NOS_Math_NormalizeValue
 450              	.LVL44:
 451              		.loc 1 107 13 discriminator 3 view .LVU124
 452 0108 E9B2     		uxtb	r1, r5
 453 010a C0B2     		uxtb	r0, r0
 454 010c FFF7FEFF 		bl	GetPixelPos
 455              	.LVL45:
 456 0110 0246     		mov	r2, r0
 457 0112 3946     		mov	r1, r7
 458 0114 2046     		mov	r0, r4
 459 0116 FFF7FEFF 		bl	NOS_WS2812B_Matrix_SetPixel
 460              	.LVL46:
 105:Core/Src/NOS_LIB_Driver/Src/WS2812B.c ****         {
 461              		.loc 1 105 31 is_stmt 1 discriminator 3 view .LVU125
 105:Core/Src/NOS_LIB_Driver/Src/WS2812B.c ****         {
 462              		.loc 1 105 32 is_stmt 0 discriminator 3 view .LVU126
 463 011a 0135     		adds	r5, r5, #1
 464              	.LVL47:
 465              	.L21:
 105:Core/Src/NOS_LIB_Driver/Src/WS2812B.c ****         {
 466              		.loc 1 105 24 is_stmt 1 discriminator 1 view .LVU127
 105:Core/Src/NOS_LIB_Driver/Src/WS2812B.c ****         {
 467              		.loc 1 105 9 is_stmt 0 discriminator 1 view .LVU128
 468 011c 082D     		cmp	r5, #8
 469 011e EEDD     		ble	.L22
 470              	.LBE7:
 108:Core/Src/NOS_LIB_Driver/Src/WS2812B.c ****         }
 109:Core/Src/NOS_LIB_Driver/Src/WS2812B.c ****         currColumn++;
 471              		.loc 1 109 9 is_stmt 1 discriminator 2 view .LVU129
 472              		.loc 1 109 19 is_stmt 0 discriminator 2 view .LVU130
 473 0120 0136     		adds	r6, r6, #1
 474              	.LVL48:
 475              		.loc 1 109 19 discriminator 2 view .LVU131
 476 0122 B6B2     		uxth	r6, r6
 477              	.LVL49:
  55:Core/Src/NOS_LIB_Driver/Src/WS2812B.c ****      {
 478              		.loc 1 55 56 is_stmt 1 discriminator 2 view .LVU132
  55:Core/Src/NOS_LIB_Driver/Src/WS2812B.c ****      {
 479              		.loc 1 55 66 is_stmt 0 discriminator 2 view .LVU133
 480 0124 009B     		ldr	r3, [sp]
 481 0126 0133     		adds	r3, r3, #1
 482 0128 0093     		str	r3, [sp]
ARM GAS  C:\Users\user\AppData\Local\Temp\ccKeU5r1.s 			page 12


 483              	.LVL50:
 484              	.L10:
  55:Core/Src/NOS_LIB_Driver/Src/WS2812B.c ****      {
 485              		.loc 1 55 30 is_stmt 1 discriminator 1 view .LVU134
  55:Core/Src/NOS_LIB_Driver/Src/WS2812B.c ****      {
 486              		.loc 1 55 6 is_stmt 0 discriminator 1 view .LVU135
 487 012a 019B     		ldr	r3, [sp, #4]
 488 012c 009A     		ldr	r2, [sp]
 489 012e 9342     		cmp	r3, r2
 490 0130 02DD     		ble	.L28
 491              	.LBB8:
  57:Core/Src/NOS_LIB_Driver/Src/WS2812B.c ****         {
 492              		.loc 1 57 17 view .LVU136
 493 0132 4FF0000A 		mov	r10, #0
 494 0136 D0E7     		b	.L23
 495              	.L28:
 496              	.LBE8:
 497              	.LBE2:
 110:Core/Src/NOS_LIB_Driver/Src/WS2812B.c ****      }
 111:Core/Src/NOS_LIB_Driver/Src/WS2812B.c **** }
 498              		.loc 1 111 1 view .LVU137
 499 0138 03B0     		add	sp, sp, #12
 500              	.LCFI4:
 501              		.cfi_def_cfa_offset 36
 502              	.LVL51:
 503              		.loc 1 111 1 view .LVU138
 504              		@ sp needed
 505 013a BDE8F08F 		pop	{r4, r5, r6, r7, r8, r9, r10, fp, pc}
 506              	.LVL52:
 507              	.L30:
 508              		.loc 1 111 1 view .LVU139
 509 013e 00BF     		.align	2
 510              	.L29:
 511 0140 ABAAAAAA 		.word	-1431655765
 512              		.cfi_endproc
 513              	.LFE134:
 515              		.section	.text.NOS_WS2812B_SetPixelColor,"ax",%progbits
 516              		.align	1
 517              		.global	NOS_WS2812B_SetPixelColor
 518              		.syntax unified
 519              		.thumb
 520              		.thumb_func
 521              		.fpu fpv4-sp-d16
 523              	NOS_WS2812B_SetPixelColor:
 524              	.LVL53:
 525              	.LFB140:
 112:Core/Src/NOS_LIB_Driver/Src/WS2812B.c **** 
 113:Core/Src/NOS_LIB_Driver/Src/WS2812B.c **** void NOS_WS2812B_Matrix_SetSymvol(WS2812B_Matrix* matrix,char sym,uint8_t pos)
 114:Core/Src/NOS_LIB_Driver/Src/WS2812B.c **** {
 115:Core/Src/NOS_LIB_Driver/Src/WS2812B.c ****     uint8_t* buff = Symvol_GetBitMap(sym);
 116:Core/Src/NOS_LIB_Driver/Src/WS2812B.c ****     for(int i = 0; i < 5; i++)
 117:Core/Src/NOS_LIB_Driver/Src/WS2812B.c ****     {
 118:Core/Src/NOS_LIB_Driver/Src/WS2812B.c ****         matrix->symvols[pos].data[i] = buff[i];
 119:Core/Src/NOS_LIB_Driver/Src/WS2812B.c ****     }
 120:Core/Src/NOS_LIB_Driver/Src/WS2812B.c **** }
 121:Core/Src/NOS_LIB_Driver/Src/WS2812B.c **** 
 122:Core/Src/NOS_LIB_Driver/Src/WS2812B.c **** void NOS_WS2812B_Matrix_PrintStaticString(WS2812B_Matrix* matrix,char string[],uint8_t startpos,uin
ARM GAS  C:\Users\user\AppData\Local\Temp\ccKeU5r1.s 			page 13


 123:Core/Src/NOS_LIB_Driver/Src/WS2812B.c **** {
 124:Core/Src/NOS_LIB_Driver/Src/WS2812B.c ****     for(int i = startpos; i < startpos + lenght; i++)
 125:Core/Src/NOS_LIB_Driver/Src/WS2812B.c ****     {
 126:Core/Src/NOS_LIB_Driver/Src/WS2812B.c ****         NOS_WS2812B_Matrix_SetSymvol(matrix,string[i - startpos],i);
 127:Core/Src/NOS_LIB_Driver/Src/WS2812B.c ****     }
 128:Core/Src/NOS_LIB_Driver/Src/WS2812B.c **** }
 129:Core/Src/NOS_LIB_Driver/Src/WS2812B.c **** 
 130:Core/Src/NOS_LIB_Driver/Src/WS2812B.c **** void NOS_WS2812B_Matrix_PrintIntNumber(WS2812B_Matrix* matrix,uint32_t num,uint8_t startpos,uint8_t
 131:Core/Src/NOS_LIB_Driver/Src/WS2812B.c **** {
 132:Core/Src/NOS_LIB_Driver/Src/WS2812B.c ****     
 133:Core/Src/NOS_LIB_Driver/Src/WS2812B.c ****     int probe = 10;
 134:Core/Src/NOS_LIB_Driver/Src/WS2812B.c ****     int a = 0;
 135:Core/Src/NOS_LIB_Driver/Src/WS2812B.c ****     int power = NOS_Math_GetNumberPower(num);
 136:Core/Src/NOS_LIB_Driver/Src/WS2812B.c ****     char buff[16];
 137:Core/Src/NOS_LIB_Driver/Src/WS2812B.c **** 
 138:Core/Src/NOS_LIB_Driver/Src/WS2812B.c **** 
 139:Core/Src/NOS_LIB_Driver/Src/WS2812B.c ****     for (int i = power - 1; i > 0; i--)
 140:Core/Src/NOS_LIB_Driver/Src/WS2812B.c ****     {
 141:Core/Src/NOS_LIB_Driver/Src/WS2812B.c ****         buff[a] = num / pow(10,i);
 142:Core/Src/NOS_LIB_Driver/Src/WS2812B.c ****         num = num - (buff[a] * pow(10,i));
 143:Core/Src/NOS_LIB_Driver/Src/WS2812B.c ****         a++;
 144:Core/Src/NOS_LIB_Driver/Src/WS2812B.c ****     }
 145:Core/Src/NOS_LIB_Driver/Src/WS2812B.c **** 
 146:Core/Src/NOS_LIB_Driver/Src/WS2812B.c ****     buff[a] = num % 10;
 147:Core/Src/NOS_LIB_Driver/Src/WS2812B.c **** 
 148:Core/Src/NOS_LIB_Driver/Src/WS2812B.c ****     for(int i = 0; i < a + 1; i++)
 149:Core/Src/NOS_LIB_Driver/Src/WS2812B.c ****     {
 150:Core/Src/NOS_LIB_Driver/Src/WS2812B.c ****         buff[i] += 48;
 151:Core/Src/NOS_LIB_Driver/Src/WS2812B.c ****         NOS_WS2812B_Matrix_SetSymvol(matrix,buff[i],i + startpos);
 152:Core/Src/NOS_LIB_Driver/Src/WS2812B.c ****     }
 153:Core/Src/NOS_LIB_Driver/Src/WS2812B.c **** }
 154:Core/Src/NOS_LIB_Driver/Src/WS2812B.c **** 
 155:Core/Src/NOS_LIB_Driver/Src/WS2812B.c **** void NOS_WS2812B_Matrix_PrintFloatNumber(WS2812B_Matrix* matrix,float num,uint8_t startpos)
 156:Core/Src/NOS_LIB_Driver/Src/WS2812B.c **** {
 157:Core/Src/NOS_LIB_Driver/Src/WS2812B.c ****     if(num > 0.0f)
 158:Core/Src/NOS_LIB_Driver/Src/WS2812B.c ****     {
 159:Core/Src/NOS_LIB_Driver/Src/WS2812B.c ****     int before = num;
 160:Core/Src/NOS_LIB_Driver/Src/WS2812B.c ****     float after = num - (float)before;
 161:Core/Src/NOS_LIB_Driver/Src/WS2812B.c ****     int af = after * 100;
 162:Core/Src/NOS_LIB_Driver/Src/WS2812B.c ****     int pow = NOS_Math_GetNumberPower(before);
 163:Core/Src/NOS_LIB_Driver/Src/WS2812B.c ****     NOS_WS2812B_Matrix_PrintIntNumber(matrix,before,startpos,pow);
 164:Core/Src/NOS_LIB_Driver/Src/WS2812B.c ****     NOS_WS2812B_Matrix_PrintStaticString(matrix,".",startpos + pow,1);
 165:Core/Src/NOS_LIB_Driver/Src/WS2812B.c ****     NOS_WS2812B_Matrix_PrintIntNumber(matrix,af,startpos + pow + 1,2);
 166:Core/Src/NOS_LIB_Driver/Src/WS2812B.c ****     }
 167:Core/Src/NOS_LIB_Driver/Src/WS2812B.c **** }
 168:Core/Src/NOS_LIB_Driver/Src/WS2812B.c **** 
 169:Core/Src/NOS_LIB_Driver/Src/WS2812B.c **** void NOS_WS2812B_Matrix_PrintRealTime(WS2812B_Matrix* matrix,RealTime rt)
 170:Core/Src/NOS_LIB_Driver/Src/WS2812B.c **** {
 171:Core/Src/NOS_LIB_Driver/Src/WS2812B.c ****     int startpos = 0;
 172:Core/Src/NOS_LIB_Driver/Src/WS2812B.c ****     if(rt.format == Hour24)
 173:Core/Src/NOS_LIB_Driver/Src/WS2812B.c ****     {
 174:Core/Src/NOS_LIB_Driver/Src/WS2812B.c ****         startpos = 1;
 175:Core/Src/NOS_LIB_Driver/Src/WS2812B.c ****     }
 176:Core/Src/NOS_LIB_Driver/Src/WS2812B.c **** 
 177:Core/Src/NOS_LIB_Driver/Src/WS2812B.c ****     if(rt.format == Hour12)
 178:Core/Src/NOS_LIB_Driver/Src/WS2812B.c ****     {
 179:Core/Src/NOS_LIB_Driver/Src/WS2812B.c ****         if(rt.hour > 12)
ARM GAS  C:\Users\user\AppData\Local\Temp\ccKeU5r1.s 			page 14


 180:Core/Src/NOS_LIB_Driver/Src/WS2812B.c ****         {   
 181:Core/Src/NOS_LIB_Driver/Src/WS2812B.c ****             NOS_WS2812B_Matrix_SetSymvol(matrix,(char)(rt.hour - 12) / 10 + 48,startpos);
 182:Core/Src/NOS_LIB_Driver/Src/WS2812B.c ****             NOS_WS2812B_Matrix_SetSymvol(matrix,(char)(rt.hour - 12) % 10 + 48,startpos + 1);
 183:Core/Src/NOS_LIB_Driver/Src/WS2812B.c ****             NOS_WS2812B_Matrix_SetSymvol(matrix,'P',startpos + 8);
 184:Core/Src/NOS_LIB_Driver/Src/WS2812B.c ****             NOS_WS2812B_Matrix_SetSymvol(matrix,'M',startpos + 9);
 185:Core/Src/NOS_LIB_Driver/Src/WS2812B.c ****         }
 186:Core/Src/NOS_LIB_Driver/Src/WS2812B.c ****         else
 187:Core/Src/NOS_LIB_Driver/Src/WS2812B.c ****         {
 188:Core/Src/NOS_LIB_Driver/Src/WS2812B.c ****             NOS_WS2812B_Matrix_SetSymvol(matrix,(char)(rt.hour) / 10 + 48,startpos);
 189:Core/Src/NOS_LIB_Driver/Src/WS2812B.c ****             NOS_WS2812B_Matrix_SetSymvol(matrix,(char)(rt.hour) % 10 + 48,startpos + 1);
 190:Core/Src/NOS_LIB_Driver/Src/WS2812B.c ****             NOS_WS2812B_Matrix_SetSymvol(matrix,'A',startpos + 8);
 191:Core/Src/NOS_LIB_Driver/Src/WS2812B.c ****             NOS_WS2812B_Matrix_SetSymvol(matrix,'M',startpos + 9);
 192:Core/Src/NOS_LIB_Driver/Src/WS2812B.c ****         }
 193:Core/Src/NOS_LIB_Driver/Src/WS2812B.c ****     }
 194:Core/Src/NOS_LIB_Driver/Src/WS2812B.c ****     else
 195:Core/Src/NOS_LIB_Driver/Src/WS2812B.c ****     {
 196:Core/Src/NOS_LIB_Driver/Src/WS2812B.c ****             NOS_WS2812B_Matrix_SetSymvol(matrix,(char)(rt.hour) / 10 + 48,startpos);
 197:Core/Src/NOS_LIB_Driver/Src/WS2812B.c ****             NOS_WS2812B_Matrix_SetSymvol(matrix,(char)(rt.hour) % 10 + 48,startpos + 1);
 198:Core/Src/NOS_LIB_Driver/Src/WS2812B.c ****             NOS_WS2812B_Matrix_SetSymvol(matrix,' ',startpos + 8);
 199:Core/Src/NOS_LIB_Driver/Src/WS2812B.c ****     }
 200:Core/Src/NOS_LIB_Driver/Src/WS2812B.c **** 
 201:Core/Src/NOS_LIB_Driver/Src/WS2812B.c ****     NOS_WS2812B_Matrix_SetSymvol(matrix,(char)(rt.min/10) + 48,startpos + 3);
 202:Core/Src/NOS_LIB_Driver/Src/WS2812B.c ****     NOS_WS2812B_Matrix_SetSymvol(matrix,(char)(rt.min%10) + 48,startpos + 4);
 203:Core/Src/NOS_LIB_Driver/Src/WS2812B.c **** 
 204:Core/Src/NOS_LIB_Driver/Src/WS2812B.c ****     NOS_WS2812B_Matrix_SetSymvol(matrix,(char)rt.sec/10 + 48,startpos + 6);
 205:Core/Src/NOS_LIB_Driver/Src/WS2812B.c ****     NOS_WS2812B_Matrix_SetSymvol(matrix,(char)rt.sec%10 + 48,startpos + 7);
 206:Core/Src/NOS_LIB_Driver/Src/WS2812B.c **** 
 207:Core/Src/NOS_LIB_Driver/Src/WS2812B.c ****     if(rt.sec % 2 == 0)
 208:Core/Src/NOS_LIB_Driver/Src/WS2812B.c ****     {
 209:Core/Src/NOS_LIB_Driver/Src/WS2812B.c ****         NOS_WS2812B_Matrix_SetSymvol(matrix,':',startpos + 2);
 210:Core/Src/NOS_LIB_Driver/Src/WS2812B.c ****         NOS_WS2812B_Matrix_SetSymvol(matrix,':',startpos + 5);
 211:Core/Src/NOS_LIB_Driver/Src/WS2812B.c ****     }
 212:Core/Src/NOS_LIB_Driver/Src/WS2812B.c ****     else
 213:Core/Src/NOS_LIB_Driver/Src/WS2812B.c ****     {
 214:Core/Src/NOS_LIB_Driver/Src/WS2812B.c ****         NOS_WS2812B_Matrix_SetSymvol(matrix,' ',startpos + 2);
 215:Core/Src/NOS_LIB_Driver/Src/WS2812B.c ****         NOS_WS2812B_Matrix_SetSymvol(matrix,' ',startpos + 5);
 216:Core/Src/NOS_LIB_Driver/Src/WS2812B.c ****     }
 217:Core/Src/NOS_LIB_Driver/Src/WS2812B.c **** }
 218:Core/Src/NOS_LIB_Driver/Src/WS2812B.c **** 
 219:Core/Src/NOS_LIB_Driver/Src/WS2812B.c **** void NOS_WS2812B_SetPixelColor(PixelColor* color,uint8_t R,uint8_t G,uint8_t B)
 220:Core/Src/NOS_LIB_Driver/Src/WS2812B.c **** {
 526              		.loc 1 220 1 is_stmt 1 view -0
 527              		.cfi_startproc
 528              		@ args = 0, pretend = 0, frame = 0
 529              		@ frame_needed = 0, uses_anonymous_args = 0
 530              		@ link register save eliminated.
 221:Core/Src/NOS_LIB_Driver/Src/WS2812B.c ****     color->R = R;
 531              		.loc 1 221 5 view .LVU141
 532              		.loc 1 221 14 is_stmt 0 view .LVU142
 533 0000 0170     		strb	r1, [r0]
 222:Core/Src/NOS_LIB_Driver/Src/WS2812B.c ****     color->G = G;
 534              		.loc 1 222 5 is_stmt 1 view .LVU143
 535              		.loc 1 222 14 is_stmt 0 view .LVU144
 536 0002 4270     		strb	r2, [r0, #1]
 223:Core/Src/NOS_LIB_Driver/Src/WS2812B.c ****     color->B = B;
 537              		.loc 1 223 5 is_stmt 1 view .LVU145
 538              		.loc 1 223 14 is_stmt 0 view .LVU146
ARM GAS  C:\Users\user\AppData\Local\Temp\ccKeU5r1.s 			page 15


 539 0004 8370     		strb	r3, [r0, #2]
 224:Core/Src/NOS_LIB_Driver/Src/WS2812B.c **** }
 540              		.loc 1 224 1 view .LVU147
 541 0006 7047     		bx	lr
 542              		.cfi_endproc
 543              	.LFE140:
 545              		.section	.text.NOS_WS2812B_EffectRainbow,"ax",%progbits
 546              		.align	1
 547              		.global	NOS_WS2812B_EffectRainbow
 548              		.syntax unified
 549              		.thumb
 550              		.thumb_func
 551              		.fpu fpv4-sp-d16
 553              	NOS_WS2812B_EffectRainbow:
 554              	.LVL54:
 555              	.LFB141:
 225:Core/Src/NOS_LIB_Driver/Src/WS2812B.c **** 
 226:Core/Src/NOS_LIB_Driver/Src/WS2812B.c **** void NOS_WS2812B_EffectRainbow(WS2812B_Matrix*matrix,uint32_t counter)
 227:Core/Src/NOS_LIB_Driver/Src/WS2812B.c **** {
 556              		.loc 1 227 1 is_stmt 1 view -0
 557              		.cfi_startproc
 558              		@ args = 0, pretend = 0, frame = 0
 559              		@ frame_needed = 0, uses_anonymous_args = 0
 560              		.loc 1 227 1 is_stmt 0 view .LVU149
 561 0000 38B5     		push	{r3, r4, r5, lr}
 562              	.LCFI5:
 563              		.cfi_def_cfa_offset 16
 564              		.cfi_offset 3, -16
 565              		.cfi_offset 4, -12
 566              		.cfi_offset 5, -8
 567              		.cfi_offset 14, -4
 568 0002 0546     		mov	r5, r0
 228:Core/Src/NOS_LIB_Driver/Src/WS2812B.c **** 
 229:Core/Src/NOS_LIB_Driver/Src/WS2812B.c ****     if(counter > 0 && counter < matrix->bright)
 569              		.loc 1 229 5 is_stmt 1 view .LVU150
 570              		.loc 1 229 7 is_stmt 0 view .LVU151
 571 0004 0C46     		mov	r4, r1
 572 0006 11B1     		cbz	r1, .L33
 573              		.loc 1 229 39 discriminator 1 view .LVU152
 574 0008 0379     		ldrb	r3, [r0, #4]	@ zero_extendqisi2
 575              		.loc 1 229 20 discriminator 1 view .LVU153
 576 000a 8B42     		cmp	r3, r1
 577 000c 3DD8     		bhi	.L42
 578              	.LVL55:
 579              	.L33:
 230:Core/Src/NOS_LIB_Driver/Src/WS2812B.c ****     {
 231:Core/Src/NOS_LIB_Driver/Src/WS2812B.c ****         NOS_WS2812B_SetPixelColor(matrix->textColor,0,counter,matrix->bright);
 232:Core/Src/NOS_LIB_Driver/Src/WS2812B.c ****     }
 233:Core/Src/NOS_LIB_Driver/Src/WS2812B.c **** 
 234:Core/Src/NOS_LIB_Driver/Src/WS2812B.c ****     if(counter > matrix->bright && counter < matrix->bright * 2)
 580              		.loc 1 234 5 is_stmt 1 view .LVU154
 581              		.loc 1 234 24 is_stmt 0 view .LVU155
 582 000e 2A79     		ldrb	r2, [r5, #4]	@ zero_extendqisi2
 583              		.loc 1 234 7 view .LVU156
 584 0010 A242     		cmp	r2, r4
 585 0012 02D2     		bcs	.L34
 586              		.loc 1 234 33 discriminator 1 view .LVU157
ARM GAS  C:\Users\user\AppData\Local\Temp\ccKeU5r1.s 			page 16


 587 0014 B4EB420F 		cmp	r4, r2, lsl #1
 588 0018 3DD3     		bcc	.L43
 589              	.L34:
 235:Core/Src/NOS_LIB_Driver/Src/WS2812B.c ****     {
 236:Core/Src/NOS_LIB_Driver/Src/WS2812B.c ****         counter = counter - matrix->bright;
 237:Core/Src/NOS_LIB_Driver/Src/WS2812B.c ****         NOS_WS2812B_SetPixelColor(matrix->textColor,0,matrix->bright,matrix->bright - counter);
 238:Core/Src/NOS_LIB_Driver/Src/WS2812B.c ****     }
 239:Core/Src/NOS_LIB_Driver/Src/WS2812B.c **** 
 240:Core/Src/NOS_LIB_Driver/Src/WS2812B.c ****     if(counter > matrix->bright * 2 && counter < matrix->bright * 3)
 590              		.loc 1 240 5 is_stmt 1 view .LVU158
 591              		.loc 1 240 24 is_stmt 0 view .LVU159
 592 001a 2A79     		ldrb	r2, [r5, #4]	@ zero_extendqisi2
 593              		.loc 1 240 33 view .LVU160
 594 001c 5300     		lsls	r3, r2, #1
 595              		.loc 1 240 7 view .LVU161
 596 001e B4EB420F 		cmp	r4, r2, lsl #1
 597 0022 03D9     		bls	.L35
 598              		.loc 1 240 65 discriminator 1 view .LVU162
 599 0024 02EB4201 		add	r1, r2, r2, lsl #1
 600              		.loc 1 240 37 discriminator 1 view .LVU163
 601 0028 A142     		cmp	r1, r4
 602 002a 3CD8     		bhi	.L44
 603              	.L35:
 241:Core/Src/NOS_LIB_Driver/Src/WS2812B.c ****     {
 242:Core/Src/NOS_LIB_Driver/Src/WS2812B.c ****         counter = counter - matrix->bright * 2;
 243:Core/Src/NOS_LIB_Driver/Src/WS2812B.c ****         NOS_WS2812B_SetPixelColor(matrix->textColor,counter,matrix->bright,0);
 244:Core/Src/NOS_LIB_Driver/Src/WS2812B.c ****     }
 245:Core/Src/NOS_LIB_Driver/Src/WS2812B.c **** 
 246:Core/Src/NOS_LIB_Driver/Src/WS2812B.c ****     if(counter > matrix->bright * 3 && counter < matrix->bright * 4)
 604              		.loc 1 246 5 is_stmt 1 view .LVU164
 605              		.loc 1 246 24 is_stmt 0 view .LVU165
 606 002c 2979     		ldrb	r1, [r5, #4]	@ zero_extendqisi2
 607              		.loc 1 246 33 view .LVU166
 608 002e 01EB4103 		add	r3, r1, r1, lsl #1
 609              		.loc 1 246 7 view .LVU167
 610 0032 A342     		cmp	r3, r4
 611 0034 02D2     		bcs	.L36
 612              		.loc 1 246 37 discriminator 1 view .LVU168
 613 0036 B4EB810F 		cmp	r4, r1, lsl #2
 614 003a 3BD3     		bcc	.L45
 615              	.L36:
 247:Core/Src/NOS_LIB_Driver/Src/WS2812B.c ****     {
 248:Core/Src/NOS_LIB_Driver/Src/WS2812B.c ****                 counter = counter - matrix->bright * 3;
 249:Core/Src/NOS_LIB_Driver/Src/WS2812B.c ****         NOS_WS2812B_SetPixelColor(matrix->textColor,matrix->bright,matrix->bright - counter,0);
 250:Core/Src/NOS_LIB_Driver/Src/WS2812B.c ****     }
 251:Core/Src/NOS_LIB_Driver/Src/WS2812B.c **** 
 252:Core/Src/NOS_LIB_Driver/Src/WS2812B.c ****     if(counter > matrix->bright * 4 && counter < matrix->bright * 5)
 616              		.loc 1 252 5 is_stmt 1 view .LVU169
 617              		.loc 1 252 24 is_stmt 0 view .LVU170
 618 003c 2979     		ldrb	r1, [r5, #4]	@ zero_extendqisi2
 619              		.loc 1 252 33 view .LVU171
 620 003e 8B00     		lsls	r3, r1, #2
 621              		.loc 1 252 7 view .LVU172
 622 0040 B4EB810F 		cmp	r4, r1, lsl #2
 623 0044 03D9     		bls	.L37
 624              		.loc 1 252 65 discriminator 1 view .LVU173
 625 0046 01EB8102 		add	r2, r1, r1, lsl #2
ARM GAS  C:\Users\user\AppData\Local\Temp\ccKeU5r1.s 			page 17


 626              		.loc 1 252 37 discriminator 1 view .LVU174
 627 004a A242     		cmp	r2, r4
 628 004c 3AD8     		bhi	.L46
 629              	.L37:
 253:Core/Src/NOS_LIB_Driver/Src/WS2812B.c ****     {
 254:Core/Src/NOS_LIB_Driver/Src/WS2812B.c ****                 counter = counter - matrix->bright * 4;
 255:Core/Src/NOS_LIB_Driver/Src/WS2812B.c ****         NOS_WS2812B_SetPixelColor(matrix->textColor,matrix->bright,counter,0);
 256:Core/Src/NOS_LIB_Driver/Src/WS2812B.c ****     }
 257:Core/Src/NOS_LIB_Driver/Src/WS2812B.c **** 
 258:Core/Src/NOS_LIB_Driver/Src/WS2812B.c ****     if(counter > matrix->bright * 5 && counter < matrix->bright * 6)
 630              		.loc 1 258 5 is_stmt 1 view .LVU175
 631              		.loc 1 258 24 is_stmt 0 view .LVU176
 632 004e 2A79     		ldrb	r2, [r5, #4]	@ zero_extendqisi2
 633              		.loc 1 258 33 view .LVU177
 634 0050 02EB8203 		add	r3, r2, r2, lsl #2
 635              		.loc 1 258 7 view .LVU178
 636 0054 A342     		cmp	r3, r4
 637 0056 04D2     		bcs	.L38
 638              		.loc 1 258 65 discriminator 1 view .LVU179
 639 0058 02EB4201 		add	r1, r2, r2, lsl #1
 640              		.loc 1 258 37 discriminator 1 view .LVU180
 641 005c B4EB410F 		cmp	r4, r1, lsl #1
 642 0060 37D3     		bcc	.L47
 643              	.L38:
 259:Core/Src/NOS_LIB_Driver/Src/WS2812B.c ****     {
 260:Core/Src/NOS_LIB_Driver/Src/WS2812B.c ****                 counter = counter - matrix->bright * 5;
 261:Core/Src/NOS_LIB_Driver/Src/WS2812B.c ****         NOS_WS2812B_SetPixelColor(matrix->textColor,matrix->bright - counter,matrix->bright,0);
 262:Core/Src/NOS_LIB_Driver/Src/WS2812B.c ****     }
 263:Core/Src/NOS_LIB_Driver/Src/WS2812B.c **** 
 264:Core/Src/NOS_LIB_Driver/Src/WS2812B.c ****     if(counter > matrix->bright * 6 && counter < matrix->bright * 7)
 644              		.loc 1 264 5 is_stmt 1 view .LVU181
 645              		.loc 1 264 24 is_stmt 0 view .LVU182
 646 0062 2A79     		ldrb	r2, [r5, #4]	@ zero_extendqisi2
 647              		.loc 1 264 33 view .LVU183
 648 0064 02EB4203 		add	r3, r2, r2, lsl #1
 649 0068 5900     		lsls	r1, r3, #1
 650              		.loc 1 264 7 view .LVU184
 651 006a B4EB430F 		cmp	r4, r3, lsl #1
 652 006e 03D9     		bls	.L39
 653              		.loc 1 264 65 discriminator 1 view .LVU185
 654 0070 C2EBC203 		rsb	r3, r2, r2, lsl #3
 655              		.loc 1 264 37 discriminator 1 view .LVU186
 656 0074 A342     		cmp	r3, r4
 657 0076 34D8     		bhi	.L48
 658              	.L39:
 265:Core/Src/NOS_LIB_Driver/Src/WS2812B.c ****     {        
 266:Core/Src/NOS_LIB_Driver/Src/WS2812B.c ****         counter = counter - matrix->bright * 6;
 267:Core/Src/NOS_LIB_Driver/Src/WS2812B.c ****         NOS_WS2812B_SetPixelColor(matrix->textColor,0,matrix->bright,counter);
 268:Core/Src/NOS_LIB_Driver/Src/WS2812B.c ****     }
 269:Core/Src/NOS_LIB_Driver/Src/WS2812B.c **** 
 270:Core/Src/NOS_LIB_Driver/Src/WS2812B.c ****         if(counter > matrix->bright * 7 && counter < matrix->bright * 8)
 659              		.loc 1 270 9 is_stmt 1 view .LVU187
 660              		.loc 1 270 28 is_stmt 0 view .LVU188
 661 0078 2B79     		ldrb	r3, [r5, #4]	@ zero_extendqisi2
 662              		.loc 1 270 37 view .LVU189
 663 007a C3EBC302 		rsb	r2, r3, r3, lsl #3
 664              		.loc 1 270 11 view .LVU190
ARM GAS  C:\Users\user\AppData\Local\Temp\ccKeU5r1.s 			page 18


 665 007e A242     		cmp	r2, r4
 666 0080 02D2     		bcs	.L32
 667              		.loc 1 270 41 discriminator 1 view .LVU191
 668 0082 B4EBC30F 		cmp	r4, r3, lsl #3
 669 0086 33D3     		bcc	.L49
 670              	.LVL56:
 671              	.L32:
 271:Core/Src/NOS_LIB_Driver/Src/WS2812B.c ****     {        
 272:Core/Src/NOS_LIB_Driver/Src/WS2812B.c ****         counter = counter - matrix->bright * 7;
 273:Core/Src/NOS_LIB_Driver/Src/WS2812B.c ****         NOS_WS2812B_SetPixelColor(matrix->textColor,0,matrix->bright - counter,matrix->bright);
 274:Core/Src/NOS_LIB_Driver/Src/WS2812B.c ****     }
 275:Core/Src/NOS_LIB_Driver/Src/WS2812B.c **** }
 672              		.loc 1 275 1 view .LVU192
 673 0088 38BD     		pop	{r3, r4, r5, pc}
 674              	.LVL57:
 675              	.L42:
 231:Core/Src/NOS_LIB_Driver/Src/WS2812B.c ****     }
 676              		.loc 1 231 9 is_stmt 1 view .LVU193
 677 008a CAB2     		uxtb	r2, r1
 678 008c 0021     		movs	r1, #0
 679              	.LVL58:
 231:Core/Src/NOS_LIB_Driver/Src/WS2812B.c ****     }
 680              		.loc 1 231 9 is_stmt 0 view .LVU194
 681 008e C068     		ldr	r0, [r0, #12]
 682              	.LVL59:
 231:Core/Src/NOS_LIB_Driver/Src/WS2812B.c ****     }
 683              		.loc 1 231 9 view .LVU195
 684 0090 FFF7FEFF 		bl	NOS_WS2812B_SetPixelColor
 685              	.LVL60:
 686 0094 BBE7     		b	.L33
 687              	.L43:
 236:Core/Src/NOS_LIB_Driver/Src/WS2812B.c ****         NOS_WS2812B_SetPixelColor(matrix->textColor,0,matrix->bright,matrix->bright - counter);
 688              		.loc 1 236 9 is_stmt 1 view .LVU196
 236:Core/Src/NOS_LIB_Driver/Src/WS2812B.c ****         NOS_WS2812B_SetPixelColor(matrix->textColor,0,matrix->bright,matrix->bright - counter);
 689              		.loc 1 236 17 is_stmt 0 view .LVU197
 690 0096 A41A     		subs	r4, r4, r2
 691              	.LVL61:
 237:Core/Src/NOS_LIB_Driver/Src/WS2812B.c ****     }
 692              		.loc 1 237 9 is_stmt 1 view .LVU198
 693 0098 131B     		subs	r3, r2, r4
 694 009a DBB2     		uxtb	r3, r3
 695 009c 0021     		movs	r1, #0
 696 009e E868     		ldr	r0, [r5, #12]
 697 00a0 FFF7FEFF 		bl	NOS_WS2812B_SetPixelColor
 698              	.LVL62:
 699 00a4 B9E7     		b	.L34
 700              	.L44:
 242:Core/Src/NOS_LIB_Driver/Src/WS2812B.c ****         NOS_WS2812B_SetPixelColor(matrix->textColor,counter,matrix->bright,0);
 701              		.loc 1 242 9 view .LVU199
 242:Core/Src/NOS_LIB_Driver/Src/WS2812B.c ****         NOS_WS2812B_SetPixelColor(matrix->textColor,counter,matrix->bright,0);
 702              		.loc 1 242 17 is_stmt 0 view .LVU200
 703 00a6 E41A     		subs	r4, r4, r3
 704              	.LVL63:
 243:Core/Src/NOS_LIB_Driver/Src/WS2812B.c ****     }
 705              		.loc 1 243 9 is_stmt 1 view .LVU201
 706 00a8 0023     		movs	r3, #0
 707 00aa E1B2     		uxtb	r1, r4
ARM GAS  C:\Users\user\AppData\Local\Temp\ccKeU5r1.s 			page 19


 708 00ac E868     		ldr	r0, [r5, #12]
 709 00ae FFF7FEFF 		bl	NOS_WS2812B_SetPixelColor
 710              	.LVL64:
 711 00b2 BBE7     		b	.L35
 712              	.L45:
 248:Core/Src/NOS_LIB_Driver/Src/WS2812B.c ****         NOS_WS2812B_SetPixelColor(matrix->textColor,matrix->bright,matrix->bright - counter,0);
 713              		.loc 1 248 17 view .LVU202
 248:Core/Src/NOS_LIB_Driver/Src/WS2812B.c ****         NOS_WS2812B_SetPixelColor(matrix->textColor,matrix->bright,matrix->bright - counter,0);
 714              		.loc 1 248 25 is_stmt 0 view .LVU203
 715 00b4 E41A     		subs	r4, r4, r3
 716              	.LVL65:
 249:Core/Src/NOS_LIB_Driver/Src/WS2812B.c ****     }
 717              		.loc 1 249 9 is_stmt 1 view .LVU204
 718 00b6 0A1B     		subs	r2, r1, r4
 719 00b8 0023     		movs	r3, #0
 720 00ba D2B2     		uxtb	r2, r2
 721 00bc E868     		ldr	r0, [r5, #12]
 722 00be FFF7FEFF 		bl	NOS_WS2812B_SetPixelColor
 723              	.LVL66:
 724 00c2 BBE7     		b	.L36
 725              	.L46:
 254:Core/Src/NOS_LIB_Driver/Src/WS2812B.c ****         NOS_WS2812B_SetPixelColor(matrix->textColor,matrix->bright,counter,0);
 726              		.loc 1 254 17 view .LVU205
 254:Core/Src/NOS_LIB_Driver/Src/WS2812B.c ****         NOS_WS2812B_SetPixelColor(matrix->textColor,matrix->bright,counter,0);
 727              		.loc 1 254 25 is_stmt 0 view .LVU206
 728 00c4 E41A     		subs	r4, r4, r3
 729              	.LVL67:
 255:Core/Src/NOS_LIB_Driver/Src/WS2812B.c ****     }
 730              		.loc 1 255 9 is_stmt 1 view .LVU207
 731 00c6 0023     		movs	r3, #0
 732 00c8 E2B2     		uxtb	r2, r4
 733 00ca E868     		ldr	r0, [r5, #12]
 734 00cc FFF7FEFF 		bl	NOS_WS2812B_SetPixelColor
 735              	.LVL68:
 736 00d0 BDE7     		b	.L37
 737              	.L47:
 260:Core/Src/NOS_LIB_Driver/Src/WS2812B.c ****         NOS_WS2812B_SetPixelColor(matrix->textColor,matrix->bright - counter,matrix->bright,0);
 738              		.loc 1 260 17 view .LVU208
 260:Core/Src/NOS_LIB_Driver/Src/WS2812B.c ****         NOS_WS2812B_SetPixelColor(matrix->textColor,matrix->bright - counter,matrix->bright,0);
 739              		.loc 1 260 25 is_stmt 0 view .LVU209
 740 00d2 E41A     		subs	r4, r4, r3
 741              	.LVL69:
 261:Core/Src/NOS_LIB_Driver/Src/WS2812B.c ****     }
 742              		.loc 1 261 9 is_stmt 1 view .LVU210
 743 00d4 111B     		subs	r1, r2, r4
 744 00d6 0023     		movs	r3, #0
 745 00d8 C9B2     		uxtb	r1, r1
 746 00da E868     		ldr	r0, [r5, #12]
 747 00dc FFF7FEFF 		bl	NOS_WS2812B_SetPixelColor
 748              	.LVL70:
 749 00e0 BFE7     		b	.L38
 750              	.L48:
 266:Core/Src/NOS_LIB_Driver/Src/WS2812B.c ****         NOS_WS2812B_SetPixelColor(matrix->textColor,0,matrix->bright,counter);
 751              		.loc 1 266 9 view .LVU211
 266:Core/Src/NOS_LIB_Driver/Src/WS2812B.c ****         NOS_WS2812B_SetPixelColor(matrix->textColor,0,matrix->bright,counter);
 752              		.loc 1 266 17 is_stmt 0 view .LVU212
 753 00e2 641A     		subs	r4, r4, r1
ARM GAS  C:\Users\user\AppData\Local\Temp\ccKeU5r1.s 			page 20


 754              	.LVL71:
 267:Core/Src/NOS_LIB_Driver/Src/WS2812B.c ****     }
 755              		.loc 1 267 9 is_stmt 1 view .LVU213
 756 00e4 E3B2     		uxtb	r3, r4
 757 00e6 0021     		movs	r1, #0
 758 00e8 E868     		ldr	r0, [r5, #12]
 759 00ea FFF7FEFF 		bl	NOS_WS2812B_SetPixelColor
 760              	.LVL72:
 761 00ee C3E7     		b	.L39
 762              	.L49:
 272:Core/Src/NOS_LIB_Driver/Src/WS2812B.c ****         NOS_WS2812B_SetPixelColor(matrix->textColor,0,matrix->bright - counter,matrix->bright);
 763              		.loc 1 272 9 view .LVU214
 272:Core/Src/NOS_LIB_Driver/Src/WS2812B.c ****         NOS_WS2812B_SetPixelColor(matrix->textColor,0,matrix->bright - counter,matrix->bright);
 764              		.loc 1 272 17 is_stmt 0 view .LVU215
 765 00f0 A21A     		subs	r2, r4, r2
 766              	.LVL73:
 273:Core/Src/NOS_LIB_Driver/Src/WS2812B.c ****     }
 767              		.loc 1 273 9 is_stmt 1 view .LVU216
 768 00f2 9A1A     		subs	r2, r3, r2
 769              	.LVL74:
 273:Core/Src/NOS_LIB_Driver/Src/WS2812B.c ****     }
 770              		.loc 1 273 9 is_stmt 0 view .LVU217
 771 00f4 D2B2     		uxtb	r2, r2
 772 00f6 0021     		movs	r1, #0
 773 00f8 E868     		ldr	r0, [r5, #12]
 774 00fa FFF7FEFF 		bl	NOS_WS2812B_SetPixelColor
 775              	.LVL75:
 776              		.loc 1 275 1 view .LVU218
 777 00fe C3E7     		b	.L32
 778              		.cfi_endproc
 779              	.LFE141:
 781              		.section	.text.Symvol_GetBitMap,"ax",%progbits
 782              		.align	1
 783              		.global	Symvol_GetBitMap
 784              		.syntax unified
 785              		.thumb
 786              		.thumb_func
 787              		.fpu fpv4-sp-d16
 789              	Symvol_GetBitMap:
 790              	.LVL76:
 791              	.LFB143:
 276:Core/Src/NOS_LIB_Driver/Src/WS2812B.c **** 
 277:Core/Src/NOS_LIB_Driver/Src/WS2812B.c **** void NOS_WS2812B_Matrix_PrintTemperature(WS2812B_Matrix* matrix,int16_t temperature)
 278:Core/Src/NOS_LIB_Driver/Src/WS2812B.c **** {
 279:Core/Src/NOS_LIB_Driver/Src/WS2812B.c ****     if(temperature > 0)
 280:Core/Src/NOS_LIB_Driver/Src/WS2812B.c ****     {
 281:Core/Src/NOS_LIB_Driver/Src/WS2812B.c ****        NOS_WS2812B_Matrix_SetSymvol(matrix,'+',0);
 282:Core/Src/NOS_LIB_Driver/Src/WS2812B.c ****     }
 283:Core/Src/NOS_LIB_Driver/Src/WS2812B.c ****     else
 284:Core/Src/NOS_LIB_Driver/Src/WS2812B.c ****     {
 285:Core/Src/NOS_LIB_Driver/Src/WS2812B.c ****        NOS_WS2812B_Matrix_SetSymvol(matrix,'-',0);       
 286:Core/Src/NOS_LIB_Driver/Src/WS2812B.c ****     }
 287:Core/Src/NOS_LIB_Driver/Src/WS2812B.c **** 
 288:Core/Src/NOS_LIB_Driver/Src/WS2812B.c ****        NOS_WS2812B_Matrix_SetSymvol(matrix,'*',3);
 289:Core/Src/NOS_LIB_Driver/Src/WS2812B.c ****        NOS_WS2812B_Matrix_SetSymvol(matrix,'C',4);
 290:Core/Src/NOS_LIB_Driver/Src/WS2812B.c **** 
 291:Core/Src/NOS_LIB_Driver/Src/WS2812B.c ****     uint8_t counter = 0;
ARM GAS  C:\Users\user\AppData\Local\Temp\ccKeU5r1.s 			page 21


 292:Core/Src/NOS_LIB_Driver/Src/WS2812B.c ****     if(temperature < 0)
 293:Core/Src/NOS_LIB_Driver/Src/WS2812B.c ****     {
 294:Core/Src/NOS_LIB_Driver/Src/WS2812B.c ****     while(temperature < 0)
 295:Core/Src/NOS_LIB_Driver/Src/WS2812B.c ****     {
 296:Core/Src/NOS_LIB_Driver/Src/WS2812B.c ****        temperature++;
 297:Core/Src/NOS_LIB_Driver/Src/WS2812B.c ****        counter++;
 298:Core/Src/NOS_LIB_Driver/Src/WS2812B.c ****     }
 299:Core/Src/NOS_LIB_Driver/Src/WS2812B.c ****     }
 300:Core/Src/NOS_LIB_Driver/Src/WS2812B.c ****     else
 301:Core/Src/NOS_LIB_Driver/Src/WS2812B.c ****     {
 302:Core/Src/NOS_LIB_Driver/Src/WS2812B.c ****         counter = (uint32_t)temperature;
 303:Core/Src/NOS_LIB_Driver/Src/WS2812B.c ****     }
 304:Core/Src/NOS_LIB_Driver/Src/WS2812B.c ****     NOS_WS2812B_Matrix_PrintIntNumber(matrix,(uint32_t)counter,1,2);
 305:Core/Src/NOS_LIB_Driver/Src/WS2812B.c **** }
 306:Core/Src/NOS_LIB_Driver/Src/WS2812B.c **** 
 307:Core/Src/NOS_LIB_Driver/Src/WS2812B.c **** uint8_t* Symvol_GetBitMap(char sym)
 308:Core/Src/NOS_LIB_Driver/Src/WS2812B.c **** {
 792              		.loc 1 308 1 is_stmt 1 view -0
 793              		.cfi_startproc
 794              		@ args = 0, pretend = 0, frame = 0
 795              		@ frame_needed = 0, uses_anonymous_args = 0
 796              		@ link register save eliminated.
 309:Core/Src/NOS_LIB_Driver/Src/WS2812B.c ****     switch (sym)
 797              		.loc 1 309 5 view .LVU220
 798 0000 2038     		subs	r0, r0, #32
 799              	.LVL77:
 800              		.loc 1 309 5 is_stmt 0 view .LVU221
 801 0002 5928     		cmp	r0, #89
 802 0004 00F2C680 		bhi	.L51
 803 0008 DFE810F0 		tbh	[pc, r0, lsl #1]
 804              	.L53:
 805 000c A200     		.2byte	(.L106-.L53)/2
 806 000e C400     		.2byte	(.L51-.L53)/2
 807 0010 C400     		.2byte	(.L51-.L53)/2
 808 0012 C400     		.2byte	(.L51-.L53)/2
 809 0014 C400     		.2byte	(.L51-.L53)/2
 810 0016 C400     		.2byte	(.L51-.L53)/2
 811 0018 C400     		.2byte	(.L51-.L53)/2
 812 001a C400     		.2byte	(.L51-.L53)/2
 813 001c C400     		.2byte	(.L51-.L53)/2
 814 001e C400     		.2byte	(.L51-.L53)/2
 815 0020 AA00     		.2byte	(.L105-.L53)/2
 816 0022 A400     		.2byte	(.L104-.L53)/2
 817 0024 C400     		.2byte	(.L51-.L53)/2
 818 0026 A600     		.2byte	(.L103-.L53)/2
 819 0028 AC00     		.2byte	(.L102-.L53)/2
 820 002a A800     		.2byte	(.L101-.L53)/2
 821 002c B000     		.2byte	(.L100-.L53)/2
 822 002e B200     		.2byte	(.L99-.L53)/2
 823 0030 B400     		.2byte	(.L98-.L53)/2
 824 0032 B600     		.2byte	(.L97-.L53)/2
 825 0034 B800     		.2byte	(.L96-.L53)/2
 826 0036 BA00     		.2byte	(.L95-.L53)/2
 827 0038 BC00     		.2byte	(.L94-.L53)/2
 828 003a BE00     		.2byte	(.L93-.L53)/2
 829 003c C000     		.2byte	(.L92-.L53)/2
 830 003e C200     		.2byte	(.L91-.L53)/2
ARM GAS  C:\Users\user\AppData\Local\Temp\ccKeU5r1.s 			page 22


 831 0040 AE00     		.2byte	(.L90-.L53)/2
 832 0042 C400     		.2byte	(.L51-.L53)/2
 833 0044 C400     		.2byte	(.L51-.L53)/2
 834 0046 C400     		.2byte	(.L51-.L53)/2
 835 0048 C400     		.2byte	(.L51-.L53)/2
 836 004a C400     		.2byte	(.L51-.L53)/2
 837 004c C400     		.2byte	(.L51-.L53)/2
 838 004e 5A00     		.2byte	(.L89-.L53)/2
 839 0050 C600     		.2byte	(.L107-.L53)/2
 840 0052 5C00     		.2byte	(.L87-.L53)/2
 841 0054 5E00     		.2byte	(.L86-.L53)/2
 842 0056 6000     		.2byte	(.L85-.L53)/2
 843 0058 6200     		.2byte	(.L84-.L53)/2
 844 005a 6400     		.2byte	(.L83-.L53)/2
 845 005c 6600     		.2byte	(.L82-.L53)/2
 846 005e 6800     		.2byte	(.L81-.L53)/2
 847 0060 6A00     		.2byte	(.L80-.L53)/2
 848 0062 6C00     		.2byte	(.L79-.L53)/2
 849 0064 6E00     		.2byte	(.L78-.L53)/2
 850 0066 7000     		.2byte	(.L77-.L53)/2
 851 0068 7200     		.2byte	(.L76-.L53)/2
 852 006a 7400     		.2byte	(.L75-.L53)/2
 853 006c 7600     		.2byte	(.L74-.L53)/2
 854 006e 7800     		.2byte	(.L73-.L53)/2
 855 0070 7A00     		.2byte	(.L72-.L53)/2
 856 0072 7C00     		.2byte	(.L71-.L53)/2
 857 0074 7E00     		.2byte	(.L70-.L53)/2
 858 0076 8000     		.2byte	(.L69-.L53)/2
 859 0078 8200     		.2byte	(.L68-.L53)/2
 860 007a 8400     		.2byte	(.L67-.L53)/2
 861 007c 8600     		.2byte	(.L66-.L53)/2
 862 007e 8800     		.2byte	(.L65-.L53)/2
 863 0080 8A00     		.2byte	(.L64-.L53)/2
 864 0082 C400     		.2byte	(.L51-.L53)/2
 865 0084 C400     		.2byte	(.L51-.L53)/2
 866 0086 C400     		.2byte	(.L51-.L53)/2
 867 0088 C400     		.2byte	(.L51-.L53)/2
 868 008a C400     		.2byte	(.L51-.L53)/2
 869 008c C400     		.2byte	(.L51-.L53)/2
 870 008e 9000     		.2byte	(.L63-.L53)/2
 871 0090 C400     		.2byte	(.L51-.L53)/2
 872 0092 9200     		.2byte	(.L62-.L53)/2
 873 0094 9A00     		.2byte	(.L61-.L53)/2
 874 0096 C400     		.2byte	(.L51-.L53)/2
 875 0098 C400     		.2byte	(.L51-.L53)/2
 876 009a 9E00     		.2byte	(.L60-.L53)/2
 877 009c C400     		.2byte	(.L51-.L53)/2
 878 009e C400     		.2byte	(.L51-.L53)/2
 879 00a0 C400     		.2byte	(.L51-.L53)/2
 880 00a2 9800     		.2byte	(.L59-.L53)/2
 881 00a4 C400     		.2byte	(.L51-.L53)/2
 882 00a6 9600     		.2byte	(.L58-.L53)/2
 883 00a8 C400     		.2byte	(.L51-.L53)/2
 884 00aa 9C00     		.2byte	(.L57-.L53)/2
 885 00ac C400     		.2byte	(.L51-.L53)/2
 886 00ae C400     		.2byte	(.L51-.L53)/2
 887 00b0 9400     		.2byte	(.L56-.L53)/2
ARM GAS  C:\Users\user\AppData\Local\Temp\ccKeU5r1.s 			page 23


 888 00b2 C400     		.2byte	(.L51-.L53)/2
 889 00b4 C400     		.2byte	(.L51-.L53)/2
 890 00b6 8C00     		.2byte	(.L55-.L53)/2
 891 00b8 8E00     		.2byte	(.L54-.L53)/2
 892 00ba C400     		.2byte	(.L51-.L53)/2
 893 00bc C400     		.2byte	(.L51-.L53)/2
 894 00be A000     		.2byte	(.L52-.L53)/2
 895              		.p2align 1
 896              	.L89:
 310:Core/Src/NOS_LIB_Driver/Src/WS2812B.c ****     {
 311:Core/Src/NOS_LIB_Driver/Src/WS2812B.c **** /* English upper case */
 312:Core/Src/NOS_LIB_Driver/Src/WS2812B.c **** case 'A':
 313:Core/Src/NOS_LIB_Driver/Src/WS2812B.c ****     return Eng_A;
 314:Core/Src/NOS_LIB_Driver/Src/WS2812B.c ****     break;
 315:Core/Src/NOS_LIB_Driver/Src/WS2812B.c **** case 'B':
 316:Core/Src/NOS_LIB_Driver/Src/WS2812B.c ****     return Eng_B;
 317:Core/Src/NOS_LIB_Driver/Src/WS2812B.c ****     break;
 318:Core/Src/NOS_LIB_Driver/Src/WS2812B.c **** case 'C':
 319:Core/Src/NOS_LIB_Driver/Src/WS2812B.c ****     return Eng_C;
 320:Core/Src/NOS_LIB_Driver/Src/WS2812B.c ****     break;
 321:Core/Src/NOS_LIB_Driver/Src/WS2812B.c **** case 'D':
 322:Core/Src/NOS_LIB_Driver/Src/WS2812B.c ****     return Eng_D;
 323:Core/Src/NOS_LIB_Driver/Src/WS2812B.c ****     break;
 324:Core/Src/NOS_LIB_Driver/Src/WS2812B.c **** case 'E':
 325:Core/Src/NOS_LIB_Driver/Src/WS2812B.c ****     return Eng_E;
 326:Core/Src/NOS_LIB_Driver/Src/WS2812B.c ****     break;
 327:Core/Src/NOS_LIB_Driver/Src/WS2812B.c **** case 'F':
 328:Core/Src/NOS_LIB_Driver/Src/WS2812B.c ****     return Eng_F;
 329:Core/Src/NOS_LIB_Driver/Src/WS2812B.c ****     break;
 330:Core/Src/NOS_LIB_Driver/Src/WS2812B.c **** case 'G':
 331:Core/Src/NOS_LIB_Driver/Src/WS2812B.c ****     return Eng_G;
 332:Core/Src/NOS_LIB_Driver/Src/WS2812B.c ****     break;
 333:Core/Src/NOS_LIB_Driver/Src/WS2812B.c **** case 'H':
 334:Core/Src/NOS_LIB_Driver/Src/WS2812B.c ****     return Eng_H;
 335:Core/Src/NOS_LIB_Driver/Src/WS2812B.c ****     break;
 336:Core/Src/NOS_LIB_Driver/Src/WS2812B.c **** case 'I':
 337:Core/Src/NOS_LIB_Driver/Src/WS2812B.c ****     return Eng_I;
 338:Core/Src/NOS_LIB_Driver/Src/WS2812B.c ****     break;
 339:Core/Src/NOS_LIB_Driver/Src/WS2812B.c **** case 'J':
 340:Core/Src/NOS_LIB_Driver/Src/WS2812B.c ****     return Eng_J;
 341:Core/Src/NOS_LIB_Driver/Src/WS2812B.c ****     break;
 342:Core/Src/NOS_LIB_Driver/Src/WS2812B.c **** case 'K':
 343:Core/Src/NOS_LIB_Driver/Src/WS2812B.c ****     return Eng_K;
 344:Core/Src/NOS_LIB_Driver/Src/WS2812B.c ****     break;
 345:Core/Src/NOS_LIB_Driver/Src/WS2812B.c **** case 'L':
 346:Core/Src/NOS_LIB_Driver/Src/WS2812B.c ****     return Eng_L;
 347:Core/Src/NOS_LIB_Driver/Src/WS2812B.c ****     break;
 348:Core/Src/NOS_LIB_Driver/Src/WS2812B.c **** case 'M':
 349:Core/Src/NOS_LIB_Driver/Src/WS2812B.c ****     return Eng_M;
 350:Core/Src/NOS_LIB_Driver/Src/WS2812B.c ****     break;
 351:Core/Src/NOS_LIB_Driver/Src/WS2812B.c **** case 'N':
 352:Core/Src/NOS_LIB_Driver/Src/WS2812B.c ****     return Eng_N;
 353:Core/Src/NOS_LIB_Driver/Src/WS2812B.c ****     break;
 354:Core/Src/NOS_LIB_Driver/Src/WS2812B.c **** case 'O':
 355:Core/Src/NOS_LIB_Driver/Src/WS2812B.c ****     return Eng_O;
 356:Core/Src/NOS_LIB_Driver/Src/WS2812B.c ****     break;
 357:Core/Src/NOS_LIB_Driver/Src/WS2812B.c **** case 'P':
ARM GAS  C:\Users\user\AppData\Local\Temp\ccKeU5r1.s 			page 24


 358:Core/Src/NOS_LIB_Driver/Src/WS2812B.c ****     return Eng_P;
 359:Core/Src/NOS_LIB_Driver/Src/WS2812B.c ****     break;
 360:Core/Src/NOS_LIB_Driver/Src/WS2812B.c **** case 'Q':
 361:Core/Src/NOS_LIB_Driver/Src/WS2812B.c ****     return Eng_Q;
 362:Core/Src/NOS_LIB_Driver/Src/WS2812B.c ****     break;
 363:Core/Src/NOS_LIB_Driver/Src/WS2812B.c **** case 'R':
 364:Core/Src/NOS_LIB_Driver/Src/WS2812B.c ****     return Eng_R;
 365:Core/Src/NOS_LIB_Driver/Src/WS2812B.c ****     break;
 366:Core/Src/NOS_LIB_Driver/Src/WS2812B.c **** case 'S':
 367:Core/Src/NOS_LIB_Driver/Src/WS2812B.c ****     return Eng_S;
 368:Core/Src/NOS_LIB_Driver/Src/WS2812B.c ****     break;
 369:Core/Src/NOS_LIB_Driver/Src/WS2812B.c **** case 'T':
 370:Core/Src/NOS_LIB_Driver/Src/WS2812B.c ****     return Eng_T;
 371:Core/Src/NOS_LIB_Driver/Src/WS2812B.c ****     break;
 372:Core/Src/NOS_LIB_Driver/Src/WS2812B.c **** case 'U':
 373:Core/Src/NOS_LIB_Driver/Src/WS2812B.c ****     return Eng_U;
 374:Core/Src/NOS_LIB_Driver/Src/WS2812B.c ****     break;
 375:Core/Src/NOS_LIB_Driver/Src/WS2812B.c **** case 'V':
 376:Core/Src/NOS_LIB_Driver/Src/WS2812B.c ****     return Eng_V;
 377:Core/Src/NOS_LIB_Driver/Src/WS2812B.c ****     break;
 378:Core/Src/NOS_LIB_Driver/Src/WS2812B.c **** case 'W':
 379:Core/Src/NOS_LIB_Driver/Src/WS2812B.c ****     return Eng_W;
 380:Core/Src/NOS_LIB_Driver/Src/WS2812B.c ****     break;
 381:Core/Src/NOS_LIB_Driver/Src/WS2812B.c **** case 'X':
 382:Core/Src/NOS_LIB_Driver/Src/WS2812B.c ****     return Eng_X;
 383:Core/Src/NOS_LIB_Driver/Src/WS2812B.c ****     break;
 384:Core/Src/NOS_LIB_Driver/Src/WS2812B.c **** case 'Y':
 385:Core/Src/NOS_LIB_Driver/Src/WS2812B.c ****     return Eng_Y;
 386:Core/Src/NOS_LIB_Driver/Src/WS2812B.c ****     break;
 387:Core/Src/NOS_LIB_Driver/Src/WS2812B.c **** case 'Z':
 388:Core/Src/NOS_LIB_Driver/Src/WS2812B.c ****     return Eng_Z;
 389:Core/Src/NOS_LIB_Driver/Src/WS2812B.c ****     break;
 390:Core/Src/NOS_LIB_Driver/Src/WS2812B.c **** /* English upper case */
 391:Core/Src/NOS_LIB_Driver/Src/WS2812B.c **** 
 392:Core/Src/NOS_LIB_Driver/Src/WS2812B.c **** /* English lower case */
 393:Core/Src/NOS_LIB_Driver/Src/WS2812B.c **** case 'u':
 394:Core/Src/NOS_LIB_Driver/Src/WS2812B.c ****     return Eng_u;
 395:Core/Src/NOS_LIB_Driver/Src/WS2812B.c ****     break;
 396:Core/Src/NOS_LIB_Driver/Src/WS2812B.c **** case 'v':
 397:Core/Src/NOS_LIB_Driver/Src/WS2812B.c ****     return Eng_v;
 398:Core/Src/NOS_LIB_Driver/Src/WS2812B.c ****     break;
 399:Core/Src/NOS_LIB_Driver/Src/WS2812B.c **** case 'a':
 400:Core/Src/NOS_LIB_Driver/Src/WS2812B.c ****     return Eng_a;
 401:Core/Src/NOS_LIB_Driver/Src/WS2812B.c ****     break;
 402:Core/Src/NOS_LIB_Driver/Src/WS2812B.c **** case 'c':
 403:Core/Src/NOS_LIB_Driver/Src/WS2812B.c ****     return Eng_c;
 404:Core/Src/NOS_LIB_Driver/Src/WS2812B.c ****     break;
 405:Core/Src/NOS_LIB_Driver/Src/WS2812B.c **** case 'r':
 406:Core/Src/NOS_LIB_Driver/Src/WS2812B.c ****     return Eng_r;
 407:Core/Src/NOS_LIB_Driver/Src/WS2812B.c ****     break;
 408:Core/Src/NOS_LIB_Driver/Src/WS2812B.c **** /* English lower case */
 409:Core/Src/NOS_LIB_Driver/Src/WS2812B.c **** 
 410:Core/Src/NOS_LIB_Driver/Src/WS2812B.c **** case 'm':
 411:Core/Src/NOS_LIB_Driver/Src/WS2812B.c ****     return Ukr_m;
 412:Core/Src/NOS_LIB_Driver/Src/WS2812B.c ****     break;
 413:Core/Src/NOS_LIB_Driver/Src/WS2812B.c **** case 'k':
 414:Core/Src/NOS_LIB_Driver/Src/WS2812B.c ****     return Ukr_k;
ARM GAS  C:\Users\user\AppData\Local\Temp\ccKeU5r1.s 			page 25


 415:Core/Src/NOS_LIB_Driver/Src/WS2812B.c ****     break;
 416:Core/Src/NOS_LIB_Driver/Src/WS2812B.c **** case 'd':
 417:Core/Src/NOS_LIB_Driver/Src/WS2812B.c ****     return Ukr_d;
 418:Core/Src/NOS_LIB_Driver/Src/WS2812B.c ****     break;    
 419:Core/Src/NOS_LIB_Driver/Src/WS2812B.c **** case 'o':
 420:Core/Src/NOS_LIB_Driver/Src/WS2812B.c ****     return Eng_o;
 421:Core/Src/NOS_LIB_Driver/Src/WS2812B.c ****     break;     
 422:Core/Src/NOS_LIB_Driver/Src/WS2812B.c ****  case 'g':
 423:Core/Src/NOS_LIB_Driver/Src/WS2812B.c ****     return Ukr_g;
 424:Core/Src/NOS_LIB_Driver/Src/WS2812B.c ****     break;       
 425:Core/Src/NOS_LIB_Driver/Src/WS2812B.c **** case 'y':
 426:Core/Src/NOS_LIB_Driver/Src/WS2812B.c ****     return Ukr_ch;
 427:Core/Src/NOS_LIB_Driver/Src/WS2812B.c ****     break;
 428:Core/Src/NOS_LIB_Driver/Src/WS2812B.c **** 
 429:Core/Src/NOS_LIB_Driver/Src/WS2812B.c **** /* Special symvols */
 430:Core/Src/NOS_LIB_Driver/Src/WS2812B.c **** case ' ':
 431:Core/Src/NOS_LIB_Driver/Src/WS2812B.c ****     return Space;
 432:Core/Src/NOS_LIB_Driver/Src/WS2812B.c ****     break;
 433:Core/Src/NOS_LIB_Driver/Src/WS2812B.c **** case '+':
 434:Core/Src/NOS_LIB_Driver/Src/WS2812B.c ****     return Plus;
 435:Core/Src/NOS_LIB_Driver/Src/WS2812B.c ****     break;
 436:Core/Src/NOS_LIB_Driver/Src/WS2812B.c **** case '-':
 437:Core/Src/NOS_LIB_Driver/Src/WS2812B.c ****     return Minus;
 438:Core/Src/NOS_LIB_Driver/Src/WS2812B.c ****     break;    
 439:Core/Src/NOS_LIB_Driver/Src/WS2812B.c **** case '/':
 440:Core/Src/NOS_LIB_Driver/Src/WS2812B.c ****     return Slash;
 441:Core/Src/NOS_LIB_Driver/Src/WS2812B.c ****     break;
 442:Core/Src/NOS_LIB_Driver/Src/WS2812B.c **** case '*':
 443:Core/Src/NOS_LIB_Driver/Src/WS2812B.c ****     return Celcium;
 444:Core/Src/NOS_LIB_Driver/Src/WS2812B.c ****     break;
 445:Core/Src/NOS_LIB_Driver/Src/WS2812B.c **** case '.':
 446:Core/Src/NOS_LIB_Driver/Src/WS2812B.c ****     return Dot;
 447:Core/Src/NOS_LIB_Driver/Src/WS2812B.c ****     break;
 448:Core/Src/NOS_LIB_Driver/Src/WS2812B.c **** case ':':
 449:Core/Src/NOS_LIB_Driver/Src/WS2812B.c ****     return DoubleDot;
 450:Core/Src/NOS_LIB_Driver/Src/WS2812B.c ****     break;
 451:Core/Src/NOS_LIB_Driver/Src/WS2812B.c **** 
 452:Core/Src/NOS_LIB_Driver/Src/WS2812B.c **** 
 453:Core/Src/NOS_LIB_Driver/Src/WS2812B.c **** 
 454:Core/Src/NOS_LIB_Driver/Src/WS2812B.c **** /* Special symvols */
 455:Core/Src/NOS_LIB_Driver/Src/WS2812B.c **** 
 456:Core/Src/NOS_LIB_Driver/Src/WS2812B.c **** /* Numbers */
 457:Core/Src/NOS_LIB_Driver/Src/WS2812B.c **** case '0':
 458:Core/Src/NOS_LIB_Driver/Src/WS2812B.c ****     return Num_0;
 459:Core/Src/NOS_LIB_Driver/Src/WS2812B.c ****     break;
 460:Core/Src/NOS_LIB_Driver/Src/WS2812B.c ****     case '1':
 461:Core/Src/NOS_LIB_Driver/Src/WS2812B.c ****     return Num_1;
 462:Core/Src/NOS_LIB_Driver/Src/WS2812B.c ****     break;
 463:Core/Src/NOS_LIB_Driver/Src/WS2812B.c ****     case '2':
 464:Core/Src/NOS_LIB_Driver/Src/WS2812B.c ****     return Num_2;
 465:Core/Src/NOS_LIB_Driver/Src/WS2812B.c ****     break;
 466:Core/Src/NOS_LIB_Driver/Src/WS2812B.c ****     case '3':
 467:Core/Src/NOS_LIB_Driver/Src/WS2812B.c ****     return Num_3;
 468:Core/Src/NOS_LIB_Driver/Src/WS2812B.c ****     break;
 469:Core/Src/NOS_LIB_Driver/Src/WS2812B.c ****     case '4':
 470:Core/Src/NOS_LIB_Driver/Src/WS2812B.c ****     return Num_4;
 471:Core/Src/NOS_LIB_Driver/Src/WS2812B.c ****     break;
ARM GAS  C:\Users\user\AppData\Local\Temp\ccKeU5r1.s 			page 26


 472:Core/Src/NOS_LIB_Driver/Src/WS2812B.c ****     case '5':
 473:Core/Src/NOS_LIB_Driver/Src/WS2812B.c ****     return Num_5;
 474:Core/Src/NOS_LIB_Driver/Src/WS2812B.c ****     break;
 475:Core/Src/NOS_LIB_Driver/Src/WS2812B.c ****     case '6':
 476:Core/Src/NOS_LIB_Driver/Src/WS2812B.c ****     return Num_6;
 477:Core/Src/NOS_LIB_Driver/Src/WS2812B.c ****     break;
 478:Core/Src/NOS_LIB_Driver/Src/WS2812B.c ****     case '7':
 479:Core/Src/NOS_LIB_Driver/Src/WS2812B.c ****     return Num_7;
 480:Core/Src/NOS_LIB_Driver/Src/WS2812B.c ****     break;
 481:Core/Src/NOS_LIB_Driver/Src/WS2812B.c ****     case '8':
 482:Core/Src/NOS_LIB_Driver/Src/WS2812B.c ****     return Num_8;
 483:Core/Src/NOS_LIB_Driver/Src/WS2812B.c ****     break;
 484:Core/Src/NOS_LIB_Driver/Src/WS2812B.c ****     case '9':
 485:Core/Src/NOS_LIB_Driver/Src/WS2812B.c ****     return Num_9;
 897              		.loc 1 485 12 view .LVU222
 898 00c0 3648     		ldr	r0, .L108
 899 00c2 7047     		bx	lr
 900              	.L87:
 317:Core/Src/NOS_LIB_Driver/Src/WS2812B.c **** case 'C':
 901              		.loc 1 317 5 is_stmt 1 view .LVU223
 319:Core/Src/NOS_LIB_Driver/Src/WS2812B.c ****     break;
 902              		.loc 1 319 5 view .LVU224
 319:Core/Src/NOS_LIB_Driver/Src/WS2812B.c ****     break;
 903              		.loc 1 319 12 is_stmt 0 view .LVU225
 904 00c4 3648     		ldr	r0, .L108+4
 905 00c6 7047     		bx	lr
 906              	.L86:
 320:Core/Src/NOS_LIB_Driver/Src/WS2812B.c **** case 'D':
 907              		.loc 1 320 5 is_stmt 1 view .LVU226
 322:Core/Src/NOS_LIB_Driver/Src/WS2812B.c ****     break;
 908              		.loc 1 322 5 view .LVU227
 322:Core/Src/NOS_LIB_Driver/Src/WS2812B.c ****     break;
 909              		.loc 1 322 12 is_stmt 0 view .LVU228
 910 00c8 3648     		ldr	r0, .L108+8
 911 00ca 7047     		bx	lr
 912              	.L85:
 323:Core/Src/NOS_LIB_Driver/Src/WS2812B.c **** case 'E':
 913              		.loc 1 323 5 is_stmt 1 view .LVU229
 325:Core/Src/NOS_LIB_Driver/Src/WS2812B.c ****     break;
 914              		.loc 1 325 5 view .LVU230
 325:Core/Src/NOS_LIB_Driver/Src/WS2812B.c ****     break;
 915              		.loc 1 325 12 is_stmt 0 view .LVU231
 916 00cc 3648     		ldr	r0, .L108+12
 917 00ce 7047     		bx	lr
 918              	.L84:
 326:Core/Src/NOS_LIB_Driver/Src/WS2812B.c **** case 'F':
 919              		.loc 1 326 5 is_stmt 1 view .LVU232
 328:Core/Src/NOS_LIB_Driver/Src/WS2812B.c ****     break;
 920              		.loc 1 328 5 view .LVU233
 328:Core/Src/NOS_LIB_Driver/Src/WS2812B.c ****     break;
 921              		.loc 1 328 12 is_stmt 0 view .LVU234
 922 00d0 3648     		ldr	r0, .L108+16
 923 00d2 7047     		bx	lr
 924              	.L83:
 329:Core/Src/NOS_LIB_Driver/Src/WS2812B.c **** case 'G':
 925              		.loc 1 329 5 is_stmt 1 view .LVU235
 331:Core/Src/NOS_LIB_Driver/Src/WS2812B.c ****     break;
ARM GAS  C:\Users\user\AppData\Local\Temp\ccKeU5r1.s 			page 27


 926              		.loc 1 331 5 view .LVU236
 331:Core/Src/NOS_LIB_Driver/Src/WS2812B.c ****     break;
 927              		.loc 1 331 12 is_stmt 0 view .LVU237
 928 00d4 3648     		ldr	r0, .L108+20
 929 00d6 7047     		bx	lr
 930              	.L82:
 332:Core/Src/NOS_LIB_Driver/Src/WS2812B.c **** case 'H':
 931              		.loc 1 332 5 is_stmt 1 view .LVU238
 334:Core/Src/NOS_LIB_Driver/Src/WS2812B.c ****     break;
 932              		.loc 1 334 5 view .LVU239
 334:Core/Src/NOS_LIB_Driver/Src/WS2812B.c ****     break;
 933              		.loc 1 334 12 is_stmt 0 view .LVU240
 934 00d8 3648     		ldr	r0, .L108+24
 935 00da 7047     		bx	lr
 936              	.L81:
 335:Core/Src/NOS_LIB_Driver/Src/WS2812B.c **** case 'I':
 937              		.loc 1 335 5 is_stmt 1 view .LVU241
 337:Core/Src/NOS_LIB_Driver/Src/WS2812B.c ****     break;
 938              		.loc 1 337 5 view .LVU242
 337:Core/Src/NOS_LIB_Driver/Src/WS2812B.c ****     break;
 939              		.loc 1 337 12 is_stmt 0 view .LVU243
 940 00dc 3648     		ldr	r0, .L108+28
 941 00de 7047     		bx	lr
 942              	.L80:
 338:Core/Src/NOS_LIB_Driver/Src/WS2812B.c **** case 'J':
 943              		.loc 1 338 5 is_stmt 1 view .LVU244
 340:Core/Src/NOS_LIB_Driver/Src/WS2812B.c ****     break;
 944              		.loc 1 340 5 view .LVU245
 340:Core/Src/NOS_LIB_Driver/Src/WS2812B.c ****     break;
 945              		.loc 1 340 12 is_stmt 0 view .LVU246
 946 00e0 3648     		ldr	r0, .L108+32
 947 00e2 7047     		bx	lr
 948              	.L79:
 341:Core/Src/NOS_LIB_Driver/Src/WS2812B.c **** case 'K':
 949              		.loc 1 341 5 is_stmt 1 view .LVU247
 343:Core/Src/NOS_LIB_Driver/Src/WS2812B.c ****     break;
 950              		.loc 1 343 5 view .LVU248
 343:Core/Src/NOS_LIB_Driver/Src/WS2812B.c ****     break;
 951              		.loc 1 343 12 is_stmt 0 view .LVU249
 952 00e4 3648     		ldr	r0, .L108+36
 953 00e6 7047     		bx	lr
 954              	.L78:
 344:Core/Src/NOS_LIB_Driver/Src/WS2812B.c **** case 'L':
 955              		.loc 1 344 5 is_stmt 1 view .LVU250
 346:Core/Src/NOS_LIB_Driver/Src/WS2812B.c ****     break;
 956              		.loc 1 346 5 view .LVU251
 346:Core/Src/NOS_LIB_Driver/Src/WS2812B.c ****     break;
 957              		.loc 1 346 12 is_stmt 0 view .LVU252
 958 00e8 3648     		ldr	r0, .L108+40
 959 00ea 7047     		bx	lr
 960              	.L77:
 347:Core/Src/NOS_LIB_Driver/Src/WS2812B.c **** case 'M':
 961              		.loc 1 347 5 is_stmt 1 view .LVU253
 349:Core/Src/NOS_LIB_Driver/Src/WS2812B.c ****     break;
 962              		.loc 1 349 5 view .LVU254
 349:Core/Src/NOS_LIB_Driver/Src/WS2812B.c ****     break;
 963              		.loc 1 349 12 is_stmt 0 view .LVU255
ARM GAS  C:\Users\user\AppData\Local\Temp\ccKeU5r1.s 			page 28


 964 00ec 3648     		ldr	r0, .L108+44
 965 00ee 7047     		bx	lr
 966              	.L76:
 350:Core/Src/NOS_LIB_Driver/Src/WS2812B.c **** case 'N':
 967              		.loc 1 350 5 is_stmt 1 view .LVU256
 352:Core/Src/NOS_LIB_Driver/Src/WS2812B.c ****     break;
 968              		.loc 1 352 5 view .LVU257
 352:Core/Src/NOS_LIB_Driver/Src/WS2812B.c ****     break;
 969              		.loc 1 352 12 is_stmt 0 view .LVU258
 970 00f0 3648     		ldr	r0, .L108+48
 971 00f2 7047     		bx	lr
 972              	.L75:
 353:Core/Src/NOS_LIB_Driver/Src/WS2812B.c **** case 'O':
 973              		.loc 1 353 5 is_stmt 1 view .LVU259
 355:Core/Src/NOS_LIB_Driver/Src/WS2812B.c ****     break;
 974              		.loc 1 355 5 view .LVU260
 355:Core/Src/NOS_LIB_Driver/Src/WS2812B.c ****     break;
 975              		.loc 1 355 12 is_stmt 0 view .LVU261
 976 00f4 3648     		ldr	r0, .L108+52
 977 00f6 7047     		bx	lr
 978              	.L74:
 356:Core/Src/NOS_LIB_Driver/Src/WS2812B.c **** case 'P':
 979              		.loc 1 356 5 is_stmt 1 view .LVU262
 358:Core/Src/NOS_LIB_Driver/Src/WS2812B.c ****     break;
 980              		.loc 1 358 5 view .LVU263
 358:Core/Src/NOS_LIB_Driver/Src/WS2812B.c ****     break;
 981              		.loc 1 358 12 is_stmt 0 view .LVU264
 982 00f8 3648     		ldr	r0, .L108+56
 983 00fa 7047     		bx	lr
 984              	.L73:
 359:Core/Src/NOS_LIB_Driver/Src/WS2812B.c **** case 'Q':
 985              		.loc 1 359 5 is_stmt 1 view .LVU265
 361:Core/Src/NOS_LIB_Driver/Src/WS2812B.c ****     break;
 986              		.loc 1 361 5 view .LVU266
 361:Core/Src/NOS_LIB_Driver/Src/WS2812B.c ****     break;
 987              		.loc 1 361 12 is_stmt 0 view .LVU267
 988 00fc 3648     		ldr	r0, .L108+60
 989 00fe 7047     		bx	lr
 990              	.L72:
 362:Core/Src/NOS_LIB_Driver/Src/WS2812B.c **** case 'R':
 991              		.loc 1 362 5 is_stmt 1 view .LVU268
 364:Core/Src/NOS_LIB_Driver/Src/WS2812B.c ****     break;
 992              		.loc 1 364 5 view .LVU269
 364:Core/Src/NOS_LIB_Driver/Src/WS2812B.c ****     break;
 993              		.loc 1 364 12 is_stmt 0 view .LVU270
 994 0100 3648     		ldr	r0, .L108+64
 995 0102 7047     		bx	lr
 996              	.L71:
 365:Core/Src/NOS_LIB_Driver/Src/WS2812B.c **** case 'S':
 997              		.loc 1 365 5 is_stmt 1 view .LVU271
 367:Core/Src/NOS_LIB_Driver/Src/WS2812B.c ****     break;
 998              		.loc 1 367 5 view .LVU272
 367:Core/Src/NOS_LIB_Driver/Src/WS2812B.c ****     break;
 999              		.loc 1 367 12 is_stmt 0 view .LVU273
 1000 0104 3648     		ldr	r0, .L108+68
 1001 0106 7047     		bx	lr
 1002              	.L70:
ARM GAS  C:\Users\user\AppData\Local\Temp\ccKeU5r1.s 			page 29


 368:Core/Src/NOS_LIB_Driver/Src/WS2812B.c **** case 'T':
 1003              		.loc 1 368 5 is_stmt 1 view .LVU274
 370:Core/Src/NOS_LIB_Driver/Src/WS2812B.c ****     break;
 1004              		.loc 1 370 5 view .LVU275
 370:Core/Src/NOS_LIB_Driver/Src/WS2812B.c ****     break;
 1005              		.loc 1 370 12 is_stmt 0 view .LVU276
 1006 0108 3648     		ldr	r0, .L108+72
 1007 010a 7047     		bx	lr
 1008              	.L69:
 371:Core/Src/NOS_LIB_Driver/Src/WS2812B.c **** case 'U':
 1009              		.loc 1 371 5 is_stmt 1 view .LVU277
 373:Core/Src/NOS_LIB_Driver/Src/WS2812B.c ****     break;
 1010              		.loc 1 373 5 view .LVU278
 373:Core/Src/NOS_LIB_Driver/Src/WS2812B.c ****     break;
 1011              		.loc 1 373 12 is_stmt 0 view .LVU279
 1012 010c 3648     		ldr	r0, .L108+76
 1013 010e 7047     		bx	lr
 1014              	.L68:
 374:Core/Src/NOS_LIB_Driver/Src/WS2812B.c **** case 'V':
 1015              		.loc 1 374 5 is_stmt 1 view .LVU280
 376:Core/Src/NOS_LIB_Driver/Src/WS2812B.c ****     break;
 1016              		.loc 1 376 5 view .LVU281
 376:Core/Src/NOS_LIB_Driver/Src/WS2812B.c ****     break;
 1017              		.loc 1 376 12 is_stmt 0 view .LVU282
 1018 0110 3648     		ldr	r0, .L108+80
 1019 0112 7047     		bx	lr
 1020              	.L67:
 377:Core/Src/NOS_LIB_Driver/Src/WS2812B.c **** case 'W':
 1021              		.loc 1 377 5 is_stmt 1 view .LVU283
 379:Core/Src/NOS_LIB_Driver/Src/WS2812B.c ****     break;
 1022              		.loc 1 379 5 view .LVU284
 379:Core/Src/NOS_LIB_Driver/Src/WS2812B.c ****     break;
 1023              		.loc 1 379 12 is_stmt 0 view .LVU285
 1024 0114 3648     		ldr	r0, .L108+84
 1025 0116 7047     		bx	lr
 1026              	.L66:
 380:Core/Src/NOS_LIB_Driver/Src/WS2812B.c **** case 'X':
 1027              		.loc 1 380 5 is_stmt 1 view .LVU286
 382:Core/Src/NOS_LIB_Driver/Src/WS2812B.c ****     break;
 1028              		.loc 1 382 5 view .LVU287
 382:Core/Src/NOS_LIB_Driver/Src/WS2812B.c ****     break;
 1029              		.loc 1 382 12 is_stmt 0 view .LVU288
 1030 0118 3648     		ldr	r0, .L108+88
 1031 011a 7047     		bx	lr
 1032              	.L65:
 383:Core/Src/NOS_LIB_Driver/Src/WS2812B.c **** case 'Y':
 1033              		.loc 1 383 5 is_stmt 1 view .LVU289
 385:Core/Src/NOS_LIB_Driver/Src/WS2812B.c ****     break;
 1034              		.loc 1 385 5 view .LVU290
 385:Core/Src/NOS_LIB_Driver/Src/WS2812B.c ****     break;
 1035              		.loc 1 385 12 is_stmt 0 view .LVU291
 1036 011c 3648     		ldr	r0, .L108+92
 1037 011e 7047     		bx	lr
 1038              	.L64:
 386:Core/Src/NOS_LIB_Driver/Src/WS2812B.c **** case 'Z':
 1039              		.loc 1 386 5 is_stmt 1 view .LVU292
 388:Core/Src/NOS_LIB_Driver/Src/WS2812B.c ****     break;
ARM GAS  C:\Users\user\AppData\Local\Temp\ccKeU5r1.s 			page 30


 1040              		.loc 1 388 5 view .LVU293
 388:Core/Src/NOS_LIB_Driver/Src/WS2812B.c ****     break;
 1041              		.loc 1 388 12 is_stmt 0 view .LVU294
 1042 0120 3648     		ldr	r0, .L108+96
 1043 0122 7047     		bx	lr
 1044              	.L55:
 389:Core/Src/NOS_LIB_Driver/Src/WS2812B.c **** /* English upper case */
 1045              		.loc 1 389 5 is_stmt 1 view .LVU295
 394:Core/Src/NOS_LIB_Driver/Src/WS2812B.c ****     break;
 1046              		.loc 1 394 5 view .LVU296
 394:Core/Src/NOS_LIB_Driver/Src/WS2812B.c ****     break;
 1047              		.loc 1 394 12 is_stmt 0 view .LVU297
 1048 0124 3648     		ldr	r0, .L108+100
 1049 0126 7047     		bx	lr
 1050              	.L54:
 395:Core/Src/NOS_LIB_Driver/Src/WS2812B.c **** case 'v':
 1051              		.loc 1 395 5 is_stmt 1 view .LVU298
 397:Core/Src/NOS_LIB_Driver/Src/WS2812B.c ****     break;
 1052              		.loc 1 397 5 view .LVU299
 397:Core/Src/NOS_LIB_Driver/Src/WS2812B.c ****     break;
 1053              		.loc 1 397 12 is_stmt 0 view .LVU300
 1054 0128 3648     		ldr	r0, .L108+104
 1055 012a 7047     		bx	lr
 1056              	.L63:
 398:Core/Src/NOS_LIB_Driver/Src/WS2812B.c **** case 'a':
 1057              		.loc 1 398 5 is_stmt 1 view .LVU301
 400:Core/Src/NOS_LIB_Driver/Src/WS2812B.c ****     break;
 1058              		.loc 1 400 5 view .LVU302
 400:Core/Src/NOS_LIB_Driver/Src/WS2812B.c ****     break;
 1059              		.loc 1 400 12 is_stmt 0 view .LVU303
 1060 012c 3648     		ldr	r0, .L108+108
 1061 012e 7047     		bx	lr
 1062              	.L62:
 401:Core/Src/NOS_LIB_Driver/Src/WS2812B.c **** case 'c':
 1063              		.loc 1 401 5 is_stmt 1 view .LVU304
 403:Core/Src/NOS_LIB_Driver/Src/WS2812B.c ****     break;
 1064              		.loc 1 403 5 view .LVU305
 403:Core/Src/NOS_LIB_Driver/Src/WS2812B.c ****     break;
 1065              		.loc 1 403 12 is_stmt 0 view .LVU306
 1066 0130 3648     		ldr	r0, .L108+112
 1067 0132 7047     		bx	lr
 1068              	.L56:
 404:Core/Src/NOS_LIB_Driver/Src/WS2812B.c **** case 'r':
 1069              		.loc 1 404 5 is_stmt 1 view .LVU307
 406:Core/Src/NOS_LIB_Driver/Src/WS2812B.c ****     break;
 1070              		.loc 1 406 5 view .LVU308
 406:Core/Src/NOS_LIB_Driver/Src/WS2812B.c ****     break;
 1071              		.loc 1 406 12 is_stmt 0 view .LVU309
 1072 0134 3648     		ldr	r0, .L108+116
 1073 0136 7047     		bx	lr
 1074              	.L58:
 407:Core/Src/NOS_LIB_Driver/Src/WS2812B.c **** /* English lower case */
 1075              		.loc 1 407 5 is_stmt 1 view .LVU310
 411:Core/Src/NOS_LIB_Driver/Src/WS2812B.c ****     break;
 1076              		.loc 1 411 5 view .LVU311
 411:Core/Src/NOS_LIB_Driver/Src/WS2812B.c ****     break;
 1077              		.loc 1 411 12 is_stmt 0 view .LVU312
ARM GAS  C:\Users\user\AppData\Local\Temp\ccKeU5r1.s 			page 31


 1078 0138 3648     		ldr	r0, .L108+120
 1079 013a 7047     		bx	lr
 1080              	.L59:
 412:Core/Src/NOS_LIB_Driver/Src/WS2812B.c **** case 'k':
 1081              		.loc 1 412 5 is_stmt 1 view .LVU313
 414:Core/Src/NOS_LIB_Driver/Src/WS2812B.c ****     break;
 1082              		.loc 1 414 5 view .LVU314
 414:Core/Src/NOS_LIB_Driver/Src/WS2812B.c ****     break;
 1083              		.loc 1 414 12 is_stmt 0 view .LVU315
 1084 013c 3648     		ldr	r0, .L108+124
 1085 013e 7047     		bx	lr
 1086              	.L61:
 415:Core/Src/NOS_LIB_Driver/Src/WS2812B.c **** case 'd':
 1087              		.loc 1 415 5 is_stmt 1 view .LVU316
 417:Core/Src/NOS_LIB_Driver/Src/WS2812B.c ****     break;    
 1088              		.loc 1 417 5 view .LVU317
 417:Core/Src/NOS_LIB_Driver/Src/WS2812B.c ****     break;    
 1089              		.loc 1 417 12 is_stmt 0 view .LVU318
 1090 0140 3648     		ldr	r0, .L108+128
 1091 0142 7047     		bx	lr
 1092              	.L57:
 418:Core/Src/NOS_LIB_Driver/Src/WS2812B.c **** case 'o':
 1093              		.loc 1 418 5 is_stmt 1 view .LVU319
 420:Core/Src/NOS_LIB_Driver/Src/WS2812B.c ****     break;     
 1094              		.loc 1 420 5 view .LVU320
 420:Core/Src/NOS_LIB_Driver/Src/WS2812B.c ****     break;     
 1095              		.loc 1 420 12 is_stmt 0 view .LVU321
 1096 0144 3648     		ldr	r0, .L108+132
 1097 0146 7047     		bx	lr
 1098              	.L60:
 421:Core/Src/NOS_LIB_Driver/Src/WS2812B.c ****  case 'g':
 1099              		.loc 1 421 5 is_stmt 1 view .LVU322
 423:Core/Src/NOS_LIB_Driver/Src/WS2812B.c ****     break;       
 1100              		.loc 1 423 5 view .LVU323
 423:Core/Src/NOS_LIB_Driver/Src/WS2812B.c ****     break;       
 1101              		.loc 1 423 12 is_stmt 0 view .LVU324
 1102 0148 3648     		ldr	r0, .L108+136
 1103 014a 7047     		bx	lr
 1104              	.L52:
 424:Core/Src/NOS_LIB_Driver/Src/WS2812B.c **** case 'y':
 1105              		.loc 1 424 5 is_stmt 1 view .LVU325
 426:Core/Src/NOS_LIB_Driver/Src/WS2812B.c ****     break;
 1106              		.loc 1 426 5 view .LVU326
 426:Core/Src/NOS_LIB_Driver/Src/WS2812B.c ****     break;
 1107              		.loc 1 426 12 is_stmt 0 view .LVU327
 1108 014c 3648     		ldr	r0, .L108+140
 1109 014e 7047     		bx	lr
 1110              	.L106:
 427:Core/Src/NOS_LIB_Driver/Src/WS2812B.c **** 
 1111              		.loc 1 427 5 is_stmt 1 view .LVU328
 431:Core/Src/NOS_LIB_Driver/Src/WS2812B.c ****     break;
 1112              		.loc 1 431 5 view .LVU329
 431:Core/Src/NOS_LIB_Driver/Src/WS2812B.c ****     break;
 1113              		.loc 1 431 12 is_stmt 0 view .LVU330
 1114 0150 3648     		ldr	r0, .L108+144
 1115 0152 7047     		bx	lr
 1116              	.L104:
ARM GAS  C:\Users\user\AppData\Local\Temp\ccKeU5r1.s 			page 32


 432:Core/Src/NOS_LIB_Driver/Src/WS2812B.c **** case '+':
 1117              		.loc 1 432 5 is_stmt 1 view .LVU331
 434:Core/Src/NOS_LIB_Driver/Src/WS2812B.c ****     break;
 1118              		.loc 1 434 5 view .LVU332
 434:Core/Src/NOS_LIB_Driver/Src/WS2812B.c ****     break;
 1119              		.loc 1 434 12 is_stmt 0 view .LVU333
 1120 0154 3648     		ldr	r0, .L108+148
 1121 0156 7047     		bx	lr
 1122              	.L103:
 435:Core/Src/NOS_LIB_Driver/Src/WS2812B.c **** case '-':
 1123              		.loc 1 435 5 is_stmt 1 view .LVU334
 437:Core/Src/NOS_LIB_Driver/Src/WS2812B.c ****     break;    
 1124              		.loc 1 437 5 view .LVU335
 437:Core/Src/NOS_LIB_Driver/Src/WS2812B.c ****     break;    
 1125              		.loc 1 437 12 is_stmt 0 view .LVU336
 1126 0158 3648     		ldr	r0, .L108+152
 1127 015a 7047     		bx	lr
 1128              	.L101:
 438:Core/Src/NOS_LIB_Driver/Src/WS2812B.c **** case '/':
 1129              		.loc 1 438 5 is_stmt 1 view .LVU337
 440:Core/Src/NOS_LIB_Driver/Src/WS2812B.c ****     break;
 1130              		.loc 1 440 5 view .LVU338
 440:Core/Src/NOS_LIB_Driver/Src/WS2812B.c ****     break;
 1131              		.loc 1 440 12 is_stmt 0 view .LVU339
 1132 015c 3648     		ldr	r0, .L108+156
 1133 015e 7047     		bx	lr
 1134              	.L105:
 441:Core/Src/NOS_LIB_Driver/Src/WS2812B.c **** case '*':
 1135              		.loc 1 441 5 is_stmt 1 view .LVU340
 443:Core/Src/NOS_LIB_Driver/Src/WS2812B.c ****     break;
 1136              		.loc 1 443 5 view .LVU341
 443:Core/Src/NOS_LIB_Driver/Src/WS2812B.c ****     break;
 1137              		.loc 1 443 12 is_stmt 0 view .LVU342
 1138 0160 3648     		ldr	r0, .L108+160
 1139 0162 7047     		bx	lr
 1140              	.L102:
 444:Core/Src/NOS_LIB_Driver/Src/WS2812B.c **** case '.':
 1141              		.loc 1 444 5 is_stmt 1 view .LVU343
 446:Core/Src/NOS_LIB_Driver/Src/WS2812B.c ****     break;
 1142              		.loc 1 446 5 view .LVU344
 446:Core/Src/NOS_LIB_Driver/Src/WS2812B.c ****     break;
 1143              		.loc 1 446 12 is_stmt 0 view .LVU345
 1144 0164 3648     		ldr	r0, .L108+164
 1145 0166 7047     		bx	lr
 1146              	.L90:
 447:Core/Src/NOS_LIB_Driver/Src/WS2812B.c **** case ':':
 1147              		.loc 1 447 5 is_stmt 1 view .LVU346
 449:Core/Src/NOS_LIB_Driver/Src/WS2812B.c ****     break;
 1148              		.loc 1 449 5 view .LVU347
 449:Core/Src/NOS_LIB_Driver/Src/WS2812B.c ****     break;
 1149              		.loc 1 449 12 is_stmt 0 view .LVU348
 1150 0168 3648     		ldr	r0, .L108+168
 1151 016a 7047     		bx	lr
 1152              	.L100:
 450:Core/Src/NOS_LIB_Driver/Src/WS2812B.c **** 
 1153              		.loc 1 450 5 is_stmt 1 view .LVU349
 458:Core/Src/NOS_LIB_Driver/Src/WS2812B.c ****     break;
ARM GAS  C:\Users\user\AppData\Local\Temp\ccKeU5r1.s 			page 33


 1154              		.loc 1 458 5 view .LVU350
 458:Core/Src/NOS_LIB_Driver/Src/WS2812B.c ****     break;
 1155              		.loc 1 458 12 is_stmt 0 view .LVU351
 1156 016c 3648     		ldr	r0, .L108+172
 1157 016e 7047     		bx	lr
 1158              	.L99:
 459:Core/Src/NOS_LIB_Driver/Src/WS2812B.c ****     case '1':
 1159              		.loc 1 459 5 is_stmt 1 view .LVU352
 461:Core/Src/NOS_LIB_Driver/Src/WS2812B.c ****     break;
 1160              		.loc 1 461 5 view .LVU353
 461:Core/Src/NOS_LIB_Driver/Src/WS2812B.c ****     break;
 1161              		.loc 1 461 12 is_stmt 0 view .LVU354
 1162 0170 3648     		ldr	r0, .L108+176
 1163 0172 7047     		bx	lr
 1164              	.L98:
 462:Core/Src/NOS_LIB_Driver/Src/WS2812B.c ****     case '2':
 1165              		.loc 1 462 5 is_stmt 1 view .LVU355
 464:Core/Src/NOS_LIB_Driver/Src/WS2812B.c ****     break;
 1166              		.loc 1 464 5 view .LVU356
 464:Core/Src/NOS_LIB_Driver/Src/WS2812B.c ****     break;
 1167              		.loc 1 464 12 is_stmt 0 view .LVU357
 1168 0174 3648     		ldr	r0, .L108+180
 1169 0176 7047     		bx	lr
 1170              	.L97:
 465:Core/Src/NOS_LIB_Driver/Src/WS2812B.c ****     case '3':
 1171              		.loc 1 465 5 is_stmt 1 view .LVU358
 467:Core/Src/NOS_LIB_Driver/Src/WS2812B.c ****     break;
 1172              		.loc 1 467 5 view .LVU359
 467:Core/Src/NOS_LIB_Driver/Src/WS2812B.c ****     break;
 1173              		.loc 1 467 12 is_stmt 0 view .LVU360
 1174 0178 3648     		ldr	r0, .L108+184
 1175 017a 7047     		bx	lr
 1176              	.L96:
 468:Core/Src/NOS_LIB_Driver/Src/WS2812B.c ****     case '4':
 1177              		.loc 1 468 5 is_stmt 1 view .LVU361
 470:Core/Src/NOS_LIB_Driver/Src/WS2812B.c ****     break;
 1178              		.loc 1 470 5 view .LVU362
 470:Core/Src/NOS_LIB_Driver/Src/WS2812B.c ****     break;
 1179              		.loc 1 470 12 is_stmt 0 view .LVU363
 1180 017c 3648     		ldr	r0, .L108+188
 1181 017e 7047     		bx	lr
 1182              	.L95:
 471:Core/Src/NOS_LIB_Driver/Src/WS2812B.c ****     case '5':
 1183              		.loc 1 471 5 is_stmt 1 view .LVU364
 473:Core/Src/NOS_LIB_Driver/Src/WS2812B.c ****     break;
 1184              		.loc 1 473 5 view .LVU365
 473:Core/Src/NOS_LIB_Driver/Src/WS2812B.c ****     break;
 1185              		.loc 1 473 12 is_stmt 0 view .LVU366
 1186 0180 3648     		ldr	r0, .L108+192
 1187 0182 7047     		bx	lr
 1188              	.L94:
 474:Core/Src/NOS_LIB_Driver/Src/WS2812B.c ****     case '6':
 1189              		.loc 1 474 5 is_stmt 1 view .LVU367
 476:Core/Src/NOS_LIB_Driver/Src/WS2812B.c ****     break;
 1190              		.loc 1 476 5 view .LVU368
 476:Core/Src/NOS_LIB_Driver/Src/WS2812B.c ****     break;
 1191              		.loc 1 476 12 is_stmt 0 view .LVU369
ARM GAS  C:\Users\user\AppData\Local\Temp\ccKeU5r1.s 			page 34


 1192 0184 3648     		ldr	r0, .L108+196
 1193 0186 7047     		bx	lr
 1194              	.L93:
 477:Core/Src/NOS_LIB_Driver/Src/WS2812B.c ****     case '7':
 1195              		.loc 1 477 5 is_stmt 1 view .LVU370
 479:Core/Src/NOS_LIB_Driver/Src/WS2812B.c ****     break;
 1196              		.loc 1 479 5 view .LVU371
 479:Core/Src/NOS_LIB_Driver/Src/WS2812B.c ****     break;
 1197              		.loc 1 479 12 is_stmt 0 view .LVU372
 1198 0188 3648     		ldr	r0, .L108+200
 1199 018a 7047     		bx	lr
 1200              	.L92:
 480:Core/Src/NOS_LIB_Driver/Src/WS2812B.c ****     case '8':
 1201              		.loc 1 480 5 is_stmt 1 view .LVU373
 482:Core/Src/NOS_LIB_Driver/Src/WS2812B.c ****     break;
 1202              		.loc 1 482 5 view .LVU374
 482:Core/Src/NOS_LIB_Driver/Src/WS2812B.c ****     break;
 1203              		.loc 1 482 12 is_stmt 0 view .LVU375
 1204 018c 3648     		ldr	r0, .L108+204
 1205 018e 7047     		bx	lr
 1206              	.L91:
 483:Core/Src/NOS_LIB_Driver/Src/WS2812B.c ****     case '9':
 1207              		.loc 1 483 5 is_stmt 1 view .LVU376
 1208              		.loc 1 485 5 view .LVU377
 1209              		.loc 1 485 12 is_stmt 0 view .LVU378
 1210 0190 3648     		ldr	r0, .L108+208
 1211 0192 7047     		bx	lr
 1212              	.L51:
 486:Core/Src/NOS_LIB_Driver/Src/WS2812B.c ****     break;
 1213              		.loc 1 486 5 is_stmt 1 view .LVU379
 487:Core/Src/NOS_LIB_Driver/Src/WS2812B.c **** /* Numbers */
 488:Core/Src/NOS_LIB_Driver/Src/WS2812B.c **** 
 489:Core/Src/NOS_LIB_Driver/Src/WS2812B.c ****     default:
 490:Core/Src/NOS_LIB_Driver/Src/WS2812B.c ****     return Space;
 1214              		.loc 1 490 5 view .LVU380
 1215              		.loc 1 490 12 is_stmt 0 view .LVU381
 1216 0194 2548     		ldr	r0, .L108+144
 1217 0196 7047     		bx	lr
 1218              	.L107:
 316:Core/Src/NOS_LIB_Driver/Src/WS2812B.c ****     break;
 1219              		.loc 1 316 12 view .LVU382
 1220 0198 3548     		ldr	r0, .L108+212
 491:Core/Src/NOS_LIB_Driver/Src/WS2812B.c ****         break;
 1221              		.loc 1 491 9 is_stmt 1 view .LVU383
 492:Core/Src/NOS_LIB_Driver/Src/WS2812B.c ****     }
 493:Core/Src/NOS_LIB_Driver/Src/WS2812B.c **** }
 1222              		.loc 1 493 1 is_stmt 0 view .LVU384
 1223 019a 7047     		bx	lr
 1224              	.L109:
 1225              		.align	2
 1226              	.L108:
 1227 019c 00000000 		.word	.LANCHOR53
 1228 01a0 00000000 		.word	.LANCHOR2
 1229 01a4 00000000 		.word	.LANCHOR3
 1230 01a8 00000000 		.word	.LANCHOR4
 1231 01ac 00000000 		.word	.LANCHOR5
 1232 01b0 00000000 		.word	.LANCHOR6
ARM GAS  C:\Users\user\AppData\Local\Temp\ccKeU5r1.s 			page 35


 1233 01b4 00000000 		.word	.LANCHOR7
 1234 01b8 00000000 		.word	.LANCHOR8
 1235 01bc 00000000 		.word	.LANCHOR9
 1236 01c0 00000000 		.word	.LANCHOR10
 1237 01c4 00000000 		.word	.LANCHOR11
 1238 01c8 00000000 		.word	.LANCHOR12
 1239 01cc 00000000 		.word	.LANCHOR13
 1240 01d0 00000000 		.word	.LANCHOR14
 1241 01d4 00000000 		.word	.LANCHOR15
 1242 01d8 00000000 		.word	.LANCHOR16
 1243 01dc 00000000 		.word	.LANCHOR17
 1244 01e0 00000000 		.word	.LANCHOR18
 1245 01e4 00000000 		.word	.LANCHOR19
 1246 01e8 00000000 		.word	.LANCHOR20
 1247 01ec 00000000 		.word	.LANCHOR21
 1248 01f0 00000000 		.word	.LANCHOR22
 1249 01f4 00000000 		.word	.LANCHOR23
 1250 01f8 00000000 		.word	.LANCHOR24
 1251 01fc 00000000 		.word	.LANCHOR25
 1252 0200 00000000 		.word	.LANCHOR26
 1253 0204 00000000 		.word	.LANCHOR27
 1254 0208 00000000 		.word	.LANCHOR28
 1255 020c 00000000 		.word	.LANCHOR29
 1256 0210 00000000 		.word	.LANCHOR30
 1257 0214 00000000 		.word	.LANCHOR31
 1258 0218 00000000 		.word	.LANCHOR32
 1259 021c 00000000 		.word	.LANCHOR33
 1260 0220 00000000 		.word	.LANCHOR34
 1261 0224 00000000 		.word	.LANCHOR35
 1262 0228 00000000 		.word	.LANCHOR36
 1263 022c 00000000 		.word	.LANCHOR0
 1264 0230 00000000 		.word	.LANCHOR37
 1265 0234 00000000 		.word	.LANCHOR38
 1266 0238 00000000 		.word	.LANCHOR39
 1267 023c 00000000 		.word	.LANCHOR40
 1268 0240 00000000 		.word	.LANCHOR41
 1269 0244 00000000 		.word	.LANCHOR42
 1270 0248 00000000 		.word	.LANCHOR43
 1271 024c 00000000 		.word	.LANCHOR44
 1272 0250 00000000 		.word	.LANCHOR45
 1273 0254 00000000 		.word	.LANCHOR46
 1274 0258 00000000 		.word	.LANCHOR47
 1275 025c 00000000 		.word	.LANCHOR48
 1276 0260 00000000 		.word	.LANCHOR49
 1277 0264 00000000 		.word	.LANCHOR50
 1278 0268 00000000 		.word	.LANCHOR51
 1279 026c 00000000 		.word	.LANCHOR52
 1280 0270 00000000 		.word	.LANCHOR1
 1281              		.cfi_endproc
 1282              	.LFE143:
 1284              		.section	.text.NOS_WS2812B_Matrix_SetSymvol,"ax",%progbits
 1285              		.align	1
 1286              		.global	NOS_WS2812B_Matrix_SetSymvol
 1287              		.syntax unified
 1288              		.thumb
 1289              		.thumb_func
 1290              		.fpu fpv4-sp-d16
ARM GAS  C:\Users\user\AppData\Local\Temp\ccKeU5r1.s 			page 36


 1292              	NOS_WS2812B_Matrix_SetSymvol:
 1293              	.LVL78:
 1294              	.LFB135:
 114:Core/Src/NOS_LIB_Driver/Src/WS2812B.c ****     uint8_t* buff = Symvol_GetBitMap(sym);
 1295              		.loc 1 114 1 is_stmt 1 view -0
 1296              		.cfi_startproc
 1297              		@ args = 0, pretend = 0, frame = 0
 1298              		@ frame_needed = 0, uses_anonymous_args = 0
 114:Core/Src/NOS_LIB_Driver/Src/WS2812B.c ****     uint8_t* buff = Symvol_GetBitMap(sym);
 1299              		.loc 1 114 1 is_stmt 0 view .LVU386
 1300 0000 38B5     		push	{r3, r4, r5, lr}
 1301              	.LCFI6:
 1302              		.cfi_def_cfa_offset 16
 1303              		.cfi_offset 3, -16
 1304              		.cfi_offset 4, -12
 1305              		.cfi_offset 5, -8
 1306              		.cfi_offset 14, -4
 1307 0002 0546     		mov	r5, r0
 1308 0004 1446     		mov	r4, r2
 115:Core/Src/NOS_LIB_Driver/Src/WS2812B.c ****     for(int i = 0; i < 5; i++)
 1309              		.loc 1 115 5 is_stmt 1 view .LVU387
 115:Core/Src/NOS_LIB_Driver/Src/WS2812B.c ****     for(int i = 0; i < 5; i++)
 1310              		.loc 1 115 21 is_stmt 0 view .LVU388
 1311 0006 0846     		mov	r0, r1
 1312              	.LVL79:
 115:Core/Src/NOS_LIB_Driver/Src/WS2812B.c ****     for(int i = 0; i < 5; i++)
 1313              		.loc 1 115 21 view .LVU389
 1314 0008 FFF7FEFF 		bl	Symvol_GetBitMap
 1315              	.LVL80:
 116:Core/Src/NOS_LIB_Driver/Src/WS2812B.c ****     {
 1316              		.loc 1 116 5 is_stmt 1 view .LVU390
 1317              	.LBB9:
 116:Core/Src/NOS_LIB_Driver/Src/WS2812B.c ****     {
 1318              		.loc 1 116 9 view .LVU391
 116:Core/Src/NOS_LIB_Driver/Src/WS2812B.c ****     {
 1319              		.loc 1 116 13 is_stmt 0 view .LVU392
 1320 000c 0023     		movs	r3, #0
 116:Core/Src/NOS_LIB_Driver/Src/WS2812B.c ****     {
 1321              		.loc 1 116 5 view .LVU393
 1322 000e 06E0     		b	.L111
 1323              	.LVL81:
 1324              	.L112:
 118:Core/Src/NOS_LIB_Driver/Src/WS2812B.c ****     }
 1325              		.loc 1 118 9 is_stmt 1 discriminator 3 view .LVU394
 118:Core/Src/NOS_LIB_Driver/Src/WS2812B.c ****     }
 1326              		.loc 1 118 15 is_stmt 0 discriminator 3 view .LVU395
 1327 0010 6969     		ldr	r1, [r5, #20]
 118:Core/Src/NOS_LIB_Driver/Src/WS2812B.c ****     }
 1328              		.loc 1 118 24 discriminator 3 view .LVU396
 1329 0012 04EB8402 		add	r2, r4, r4, lsl #2
 1330 0016 1144     		add	r1, r1, r2
 118:Core/Src/NOS_LIB_Driver/Src/WS2812B.c ****     }
 1331              		.loc 1 118 44 discriminator 3 view .LVU397
 1332 0018 C25C     		ldrb	r2, [r0, r3]	@ zero_extendqisi2
 118:Core/Src/NOS_LIB_Driver/Src/WS2812B.c ****     }
 1333              		.loc 1 118 38 discriminator 3 view .LVU398
 1334 001a CA54     		strb	r2, [r1, r3]
ARM GAS  C:\Users\user\AppData\Local\Temp\ccKeU5r1.s 			page 37


 116:Core/Src/NOS_LIB_Driver/Src/WS2812B.c ****     {
 1335              		.loc 1 116 27 is_stmt 1 discriminator 3 view .LVU399
 116:Core/Src/NOS_LIB_Driver/Src/WS2812B.c ****     {
 1336              		.loc 1 116 28 is_stmt 0 discriminator 3 view .LVU400
 1337 001c 0133     		adds	r3, r3, #1
 1338              	.LVL82:
 1339              	.L111:
 116:Core/Src/NOS_LIB_Driver/Src/WS2812B.c ****     {
 1340              		.loc 1 116 20 is_stmt 1 discriminator 1 view .LVU401
 116:Core/Src/NOS_LIB_Driver/Src/WS2812B.c ****     {
 1341              		.loc 1 116 5 is_stmt 0 discriminator 1 view .LVU402
 1342 001e 042B     		cmp	r3, #4
 1343 0020 F6DD     		ble	.L112
 1344              	.LBE9:
 120:Core/Src/NOS_LIB_Driver/Src/WS2812B.c **** 
 1345              		.loc 1 120 1 view .LVU403
 1346 0022 38BD     		pop	{r3, r4, r5, pc}
 120:Core/Src/NOS_LIB_Driver/Src/WS2812B.c **** 
 1347              		.loc 1 120 1 view .LVU404
 1348              		.cfi_endproc
 1349              	.LFE135:
 1351              		.section	.text.NOS_WS2812B_Matrix_PrintStaticString,"ax",%progbits
 1352              		.align	1
 1353              		.global	NOS_WS2812B_Matrix_PrintStaticString
 1354              		.syntax unified
 1355              		.thumb
 1356              		.thumb_func
 1357              		.fpu fpv4-sp-d16
 1359              	NOS_WS2812B_Matrix_PrintStaticString:
 1360              	.LVL83:
 1361              	.LFB136:
 123:Core/Src/NOS_LIB_Driver/Src/WS2812B.c ****     for(int i = startpos; i < startpos + lenght; i++)
 1362              		.loc 1 123 1 is_stmt 1 view -0
 1363              		.cfi_startproc
 1364              		@ args = 0, pretend = 0, frame = 0
 1365              		@ frame_needed = 0, uses_anonymous_args = 0
 123:Core/Src/NOS_LIB_Driver/Src/WS2812B.c ****     for(int i = startpos; i < startpos + lenght; i++)
 1366              		.loc 1 123 1 is_stmt 0 view .LVU406
 1367 0000 2DE9F041 		push	{r4, r5, r6, r7, r8, lr}
 1368              	.LCFI7:
 1369              		.cfi_def_cfa_offset 24
 1370              		.cfi_offset 4, -24
 1371              		.cfi_offset 5, -20
 1372              		.cfi_offset 6, -16
 1373              		.cfi_offset 7, -12
 1374              		.cfi_offset 8, -8
 1375              		.cfi_offset 14, -4
 1376 0004 8046     		mov	r8, r0
 1377 0006 0F46     		mov	r7, r1
 1378 0008 1546     		mov	r5, r2
 1379 000a 1E46     		mov	r6, r3
 124:Core/Src/NOS_LIB_Driver/Src/WS2812B.c ****     {
 1380              		.loc 1 124 5 is_stmt 1 view .LVU407
 1381              	.LBB10:
 124:Core/Src/NOS_LIB_Driver/Src/WS2812B.c ****     {
 1382              		.loc 1 124 9 view .LVU408
 1383              	.LVL84:
ARM GAS  C:\Users\user\AppData\Local\Temp\ccKeU5r1.s 			page 38


 124:Core/Src/NOS_LIB_Driver/Src/WS2812B.c ****     {
 1384              		.loc 1 124 13 is_stmt 0 view .LVU409
 1385 000c 1446     		mov	r4, r2
 124:Core/Src/NOS_LIB_Driver/Src/WS2812B.c ****     {
 1386              		.loc 1 124 5 view .LVU410
 1387 000e 08E0     		b	.L115
 1388              	.LVL85:
 1389              	.L116:
 126:Core/Src/NOS_LIB_Driver/Src/WS2812B.c ****     }
 1390              		.loc 1 126 9 is_stmt 1 discriminator 3 view .LVU411
 126:Core/Src/NOS_LIB_Driver/Src/WS2812B.c ****     }
 1391              		.loc 1 126 54 is_stmt 0 discriminator 3 view .LVU412
 1392 0010 A4EB050C 		sub	ip, r4, r5
 126:Core/Src/NOS_LIB_Driver/Src/WS2812B.c ****     }
 1393              		.loc 1 126 9 discriminator 3 view .LVU413
 1394 0014 E2B2     		uxtb	r2, r4
 1395 0016 17F80C10 		ldrb	r1, [r7, ip]	@ zero_extendqisi2
 1396 001a 4046     		mov	r0, r8
 1397 001c FFF7FEFF 		bl	NOS_WS2812B_Matrix_SetSymvol
 1398              	.LVL86:
 124:Core/Src/NOS_LIB_Driver/Src/WS2812B.c ****     {
 1399              		.loc 1 124 50 is_stmt 1 discriminator 3 view .LVU414
 124:Core/Src/NOS_LIB_Driver/Src/WS2812B.c ****     {
 1400              		.loc 1 124 51 is_stmt 0 discriminator 3 view .LVU415
 1401 0020 0134     		adds	r4, r4, #1
 1402              	.LVL87:
 1403              	.L115:
 124:Core/Src/NOS_LIB_Driver/Src/WS2812B.c ****     {
 1404              		.loc 1 124 27 is_stmt 1 discriminator 1 view .LVU416
 124:Core/Src/NOS_LIB_Driver/Src/WS2812B.c ****     {
 1405              		.loc 1 124 40 is_stmt 0 discriminator 1 view .LVU417
 1406 0022 7219     		adds	r2, r6, r5
 124:Core/Src/NOS_LIB_Driver/Src/WS2812B.c ****     {
 1407              		.loc 1 124 5 discriminator 1 view .LVU418
 1408 0024 A242     		cmp	r2, r4
 1409 0026 F3DC     		bgt	.L116
 124:Core/Src/NOS_LIB_Driver/Src/WS2812B.c ****     {
 1410              		.loc 1 124 5 discriminator 1 view .LVU419
 1411              	.LBE10:
 128:Core/Src/NOS_LIB_Driver/Src/WS2812B.c **** 
 1412              		.loc 1 128 1 view .LVU420
 1413 0028 BDE8F081 		pop	{r4, r5, r6, r7, r8, pc}
 128:Core/Src/NOS_LIB_Driver/Src/WS2812B.c **** 
 1414              		.loc 1 128 1 view .LVU421
 1415              		.cfi_endproc
 1416              	.LFE136:
 1418              		.global	__aeabi_ui2d
 1419              		.global	__aeabi_i2d
 1420              		.global	__aeabi_ddiv
 1421              		.global	__aeabi_d2uiz
 1422              		.global	__aeabi_dmul
 1423              		.global	__aeabi_dsub
 1424              		.section	.text.NOS_WS2812B_Matrix_PrintIntNumber,"ax",%progbits
 1425              		.align	1
 1426              		.global	NOS_WS2812B_Matrix_PrintIntNumber
 1427              		.syntax unified
 1428              		.thumb
ARM GAS  C:\Users\user\AppData\Local\Temp\ccKeU5r1.s 			page 39


 1429              		.thumb_func
 1430              		.fpu fpv4-sp-d16
 1432              	NOS_WS2812B_Matrix_PrintIntNumber:
 1433              	.LVL88:
 1434              	.LFB137:
 131:Core/Src/NOS_LIB_Driver/Src/WS2812B.c ****     
 1435              		.loc 1 131 1 is_stmt 1 view -0
 1436              		.cfi_startproc
 1437              		@ args = 0, pretend = 0, frame = 24
 1438              		@ frame_needed = 0, uses_anonymous_args = 0
 131:Core/Src/NOS_LIB_Driver/Src/WS2812B.c ****     
 1439              		.loc 1 131 1 is_stmt 0 view .LVU423
 1440 0000 2DE9F04F 		push	{r4, r5, r6, r7, r8, r9, r10, fp, lr}
 1441              	.LCFI8:
 1442              		.cfi_def_cfa_offset 36
 1443              		.cfi_offset 4, -36
 1444              		.cfi_offset 5, -32
 1445              		.cfi_offset 6, -28
 1446              		.cfi_offset 7, -24
 1447              		.cfi_offset 8, -20
 1448              		.cfi_offset 9, -16
 1449              		.cfi_offset 10, -12
 1450              		.cfi_offset 11, -8
 1451              		.cfi_offset 14, -4
 1452 0004 2DED048B 		vpush.64	{d8, d9}
 1453              	.LCFI9:
 1454              		.cfi_def_cfa_offset 52
 1455              		.cfi_offset 80, -52
 1456              		.cfi_offset 81, -48
 1457              		.cfi_offset 82, -44
 1458              		.cfi_offset 83, -40
 1459 0008 87B0     		sub	sp, sp, #28
 1460              	.LCFI10:
 1461              		.cfi_def_cfa_offset 80
 1462 000a 0190     		str	r0, [sp, #4]
 1463 000c 0C46     		mov	r4, r1
 1464 000e 9346     		mov	fp, r2
 133:Core/Src/NOS_LIB_Driver/Src/WS2812B.c ****     int a = 0;
 1465              		.loc 1 133 5 is_stmt 1 view .LVU424
 1466              	.LVL89:
 134:Core/Src/NOS_LIB_Driver/Src/WS2812B.c ****     int power = NOS_Math_GetNumberPower(num);
 1467              		.loc 1 134 5 view .LVU425
 135:Core/Src/NOS_LIB_Driver/Src/WS2812B.c ****     char buff[16];
 1468              		.loc 1 135 5 view .LVU426
 135:Core/Src/NOS_LIB_Driver/Src/WS2812B.c ****     char buff[16];
 1469              		.loc 1 135 17 is_stmt 0 view .LVU427
 1470 0010 0846     		mov	r0, r1
 1471              	.LVL90:
 135:Core/Src/NOS_LIB_Driver/Src/WS2812B.c ****     char buff[16];
 1472              		.loc 1 135 17 view .LVU428
 1473 0012 FFF7FEFF 		bl	NOS_Math_GetNumberPower
 1474              	.LVL91:
 136:Core/Src/NOS_LIB_Driver/Src/WS2812B.c **** 
 1475              		.loc 1 136 5 is_stmt 1 view .LVU429
 139:Core/Src/NOS_LIB_Driver/Src/WS2812B.c ****     {
 1476              		.loc 1 139 5 view .LVU430
 1477              	.LBB11:
ARM GAS  C:\Users\user\AppData\Local\Temp\ccKeU5r1.s 			page 40


 139:Core/Src/NOS_LIB_Driver/Src/WS2812B.c ****     {
 1478              		.loc 1 139 10 view .LVU431
 139:Core/Src/NOS_LIB_Driver/Src/WS2812B.c ****     {
 1479              		.loc 1 139 14 is_stmt 0 view .LVU432
 1480 0016 471E     		subs	r7, r0, #1
 1481              	.LVL92:
 139:Core/Src/NOS_LIB_Driver/Src/WS2812B.c ****     {
 1482              		.loc 1 139 14 view .LVU433
 1483              	.LBE11:
 134:Core/Src/NOS_LIB_Driver/Src/WS2812B.c ****     int power = NOS_Math_GetNumberPower(num);
 1484              		.loc 1 134 9 view .LVU434
 1485 0018 4FF0000A 		mov	r10, #0
 1486              	.LBB13:
 139:Core/Src/NOS_LIB_Driver/Src/WS2812B.c ****     {
 1487              		.loc 1 139 5 view .LVU435
 1488 001c 3FE0     		b	.L119
 1489              	.LVL93:
 1490              	.L120:
 1491              	.LBB12:
 141:Core/Src/NOS_LIB_Driver/Src/WS2812B.c ****         num = num - (buff[a] * pow(10,i));
 1492              		.loc 1 141 9 is_stmt 1 discriminator 3 view .LVU436
 141:Core/Src/NOS_LIB_Driver/Src/WS2812B.c ****         num = num - (buff[a] * pow(10,i));
 1493              		.loc 1 141 23 is_stmt 0 discriminator 3 view .LVU437
 1494 001e 2046     		mov	r0, r4
 1495 0020 FFF7FEFF 		bl	__aeabi_ui2d
 1496              	.LVL94:
 1497 0024 0446     		mov	r4, r0
 1498              	.LVL95:
 141:Core/Src/NOS_LIB_Driver/Src/WS2812B.c ****         num = num - (buff[a] * pow(10,i));
 1499              		.loc 1 141 23 discriminator 3 view .LVU438
 1500 0026 0D46     		mov	r5, r1
 141:Core/Src/NOS_LIB_Driver/Src/WS2812B.c ****         num = num - (buff[a] * pow(10,i));
 1501              		.loc 1 141 25 discriminator 3 view .LVU439
 1502 0028 3846     		mov	r0, r7
 1503 002a FFF7FEFF 		bl	__aeabi_i2d
 1504              	.LVL96:
 1505 002e 41EC180B 		vmov	d8, r0, r1
 1506 0032 9FED2F9B 		vldr.64	d9, .L124
 1507 0036 41EC110B 		vmov	d1, r0, r1
 1508 003a B0EE490A 		vmov.f32	s0, s18
 1509 003e F0EE690A 		vmov.f32	s1, s19
 1510 0042 FFF7FEFF 		bl	pow
 1511              	.LVL97:
 1512 0046 53EC102B 		vmov	r2, r3, d0
 141:Core/Src/NOS_LIB_Driver/Src/WS2812B.c ****         num = num - (buff[a] * pow(10,i));
 1513              		.loc 1 141 23 discriminator 3 view .LVU440
 1514 004a 2046     		mov	r0, r4
 1515 004c 2946     		mov	r1, r5
 1516 004e FFF7FEFF 		bl	__aeabi_ddiv
 1517              	.LVL98:
 141:Core/Src/NOS_LIB_Driver/Src/WS2812B.c ****         num = num - (buff[a] * pow(10,i));
 1518              		.loc 1 141 17 discriminator 3 view .LVU441
 1519 0052 FFF7FEFF 		bl	__aeabi_d2uiz
 1520              	.LVL99:
 1521 0056 C6B2     		uxtb	r6, r0
 1522 0058 06AB     		add	r3, sp, #24
 1523 005a 5344     		add	r3, r3, r10
ARM GAS  C:\Users\user\AppData\Local\Temp\ccKeU5r1.s 			page 41


 1524 005c 03F8106C 		strb	r6, [r3, #-16]
 142:Core/Src/NOS_LIB_Driver/Src/WS2812B.c ****         a++;
 1525              		.loc 1 142 9 is_stmt 1 discriminator 3 view .LVU442
 142:Core/Src/NOS_LIB_Driver/Src/WS2812B.c ****         a++;
 1526              		.loc 1 142 32 is_stmt 0 discriminator 3 view .LVU443
 1527 0060 B0EE481A 		vmov.f32	s2, s16
 1528 0064 F0EE681A 		vmov.f32	s3, s17
 1529 0068 B0EE490A 		vmov.f32	s0, s18
 1530 006c F0EE690A 		vmov.f32	s1, s19
 1531 0070 FFF7FEFF 		bl	pow
 1532              	.LVL100:
 1533 0074 59EC108B 		vmov	r8, r9, d0
 142:Core/Src/NOS_LIB_Driver/Src/WS2812B.c ****         a++;
 1534              		.loc 1 142 30 discriminator 3 view .LVU444
 1535 0078 3046     		mov	r0, r6
 1536 007a FFF7FEFF 		bl	__aeabi_i2d
 1537              	.LVL101:
 1538 007e 4246     		mov	r2, r8
 1539 0080 4B46     		mov	r3, r9
 1540 0082 FFF7FEFF 		bl	__aeabi_dmul
 1541              	.LVL102:
 1542 0086 0246     		mov	r2, r0
 1543 0088 0B46     		mov	r3, r1
 142:Core/Src/NOS_LIB_Driver/Src/WS2812B.c ****         a++;
 1544              		.loc 1 142 19 discriminator 3 view .LVU445
 1545 008a 2046     		mov	r0, r4
 1546 008c 2946     		mov	r1, r5
 1547 008e FFF7FEFF 		bl	__aeabi_dsub
 1548              	.LVL103:
 142:Core/Src/NOS_LIB_Driver/Src/WS2812B.c ****         a++;
 1549              		.loc 1 142 13 discriminator 3 view .LVU446
 1550 0092 FFF7FEFF 		bl	__aeabi_d2uiz
 1551              	.LVL104:
 1552 0096 0446     		mov	r4, r0
 1553              	.LVL105:
 143:Core/Src/NOS_LIB_Driver/Src/WS2812B.c ****     }
 1554              		.loc 1 143 9 is_stmt 1 discriminator 3 view .LVU447
 143:Core/Src/NOS_LIB_Driver/Src/WS2812B.c ****     }
 1555              		.loc 1 143 10 is_stmt 0 discriminator 3 view .LVU448
 1556 0098 0AF1010A 		add	r10, r10, #1
 1557              	.LVL106:
 143:Core/Src/NOS_LIB_Driver/Src/WS2812B.c ****     }
 1558              		.loc 1 143 10 discriminator 3 view .LVU449
 1559              	.LBE12:
 139:Core/Src/NOS_LIB_Driver/Src/WS2812B.c ****     {
 1560              		.loc 1 139 36 is_stmt 1 discriminator 3 view .LVU450
 139:Core/Src/NOS_LIB_Driver/Src/WS2812B.c ****     {
 1561              		.loc 1 139 37 is_stmt 0 discriminator 3 view .LVU451
 1562 009c 013F     		subs	r7, r7, #1
 1563              	.LVL107:
 1564              	.L119:
 139:Core/Src/NOS_LIB_Driver/Src/WS2812B.c ****     {
 1565              		.loc 1 139 29 is_stmt 1 discriminator 1 view .LVU452
 139:Core/Src/NOS_LIB_Driver/Src/WS2812B.c ****     {
 1566              		.loc 1 139 5 is_stmt 0 discriminator 1 view .LVU453
 1567 009e 002F     		cmp	r7, #0
 1568 00a0 BDDC     		bgt	.L120
ARM GAS  C:\Users\user\AppData\Local\Temp\ccKeU5r1.s 			page 42


 139:Core/Src/NOS_LIB_Driver/Src/WS2812B.c ****     {
 1569              		.loc 1 139 5 discriminator 1 view .LVU454
 1570              	.LBE13:
 146:Core/Src/NOS_LIB_Driver/Src/WS2812B.c **** 
 1571              		.loc 1 146 5 is_stmt 1 view .LVU455
 146:Core/Src/NOS_LIB_Driver/Src/WS2812B.c **** 
 1572              		.loc 1 146 19 is_stmt 0 view .LVU456
 1573 00a2 154B     		ldr	r3, .L124+8
 1574 00a4 A3FB0423 		umull	r2, r3, r3, r4
 1575 00a8 DB08     		lsrs	r3, r3, #3
 1576 00aa 03EB8303 		add	r3, r3, r3, lsl #2
 1577 00ae A4EB4303 		sub	r3, r4, r3, lsl #1
 146:Core/Src/NOS_LIB_Driver/Src/WS2812B.c **** 
 1578              		.loc 1 146 13 view .LVU457
 1579 00b2 06AA     		add	r2, sp, #24
 1580 00b4 5244     		add	r2, r2, r10
 1581 00b6 02F8103C 		strb	r3, [r2, #-16]
 148:Core/Src/NOS_LIB_Driver/Src/WS2812B.c ****     {
 1582              		.loc 1 148 5 is_stmt 1 view .LVU458
 1583              	.LBB14:
 148:Core/Src/NOS_LIB_Driver/Src/WS2812B.c ****     {
 1584              		.loc 1 148 9 view .LVU459
 1585              	.LVL108:
 148:Core/Src/NOS_LIB_Driver/Src/WS2812B.c ****     {
 1586              		.loc 1 148 13 is_stmt 0 view .LVU460
 1587 00ba 0024     		movs	r4, #0
 1588              	.LVL109:
 148:Core/Src/NOS_LIB_Driver/Src/WS2812B.c ****     {
 1589              		.loc 1 148 5 view .LVU461
 1590 00bc 0EE0     		b	.L121
 1591              	.LVL110:
 1592              	.L122:
 150:Core/Src/NOS_LIB_Driver/Src/WS2812B.c ****         NOS_WS2812B_Matrix_SetSymvol(matrix,buff[i],i + startpos);
 1593              		.loc 1 150 9 is_stmt 1 discriminator 3 view .LVU462
 150:Core/Src/NOS_LIB_Driver/Src/WS2812B.c ****         NOS_WS2812B_Matrix_SetSymvol(matrix,buff[i],i + startpos);
 1594              		.loc 1 150 17 is_stmt 0 discriminator 3 view .LVU463
 1595 00be 06AB     		add	r3, sp, #24
 1596 00c0 2344     		add	r3, r3, r4
 1597 00c2 13F8101C 		ldrb	r1, [r3, #-16]	@ zero_extendqisi2
 1598 00c6 3031     		adds	r1, r1, #48
 1599 00c8 C9B2     		uxtb	r1, r1
 1600 00ca 03F8101C 		strb	r1, [r3, #-16]
 151:Core/Src/NOS_LIB_Driver/Src/WS2812B.c ****     }
 1601              		.loc 1 151 9 is_stmt 1 discriminator 3 view .LVU464
 1602 00ce 0BEB0402 		add	r2, fp, r4
 1603 00d2 D2B2     		uxtb	r2, r2
 1604 00d4 0198     		ldr	r0, [sp, #4]
 1605 00d6 FFF7FEFF 		bl	NOS_WS2812B_Matrix_SetSymvol
 1606              	.LVL111:
 148:Core/Src/NOS_LIB_Driver/Src/WS2812B.c ****     {
 1607              		.loc 1 148 31 discriminator 3 view .LVU465
 148:Core/Src/NOS_LIB_Driver/Src/WS2812B.c ****     {
 1608              		.loc 1 148 32 is_stmt 0 discriminator 3 view .LVU466
 1609 00da 0134     		adds	r4, r4, #1
 1610              	.LVL112:
 1611              	.L121:
 148:Core/Src/NOS_LIB_Driver/Src/WS2812B.c ****     {
ARM GAS  C:\Users\user\AppData\Local\Temp\ccKeU5r1.s 			page 43


 1612              		.loc 1 148 20 is_stmt 1 discriminator 1 view .LVU467
 148:Core/Src/NOS_LIB_Driver/Src/WS2812B.c ****     {
 1613              		.loc 1 148 5 is_stmt 0 discriminator 1 view .LVU468
 1614 00dc A245     		cmp	r10, r4
 1615 00de EEDA     		bge	.L122
 1616              	.LBE14:
 153:Core/Src/NOS_LIB_Driver/Src/WS2812B.c **** 
 1617              		.loc 1 153 1 view .LVU469
 1618 00e0 07B0     		add	sp, sp, #28
 1619              	.LCFI11:
 1620              		.cfi_def_cfa_offset 52
 1621              		@ sp needed
 1622 00e2 BDEC048B 		vldm	sp!, {d8-d9}
 1623              	.LCFI12:
 1624              		.cfi_restore 82
 1625              		.cfi_restore 83
 1626              		.cfi_restore 80
 1627              		.cfi_restore 81
 1628              		.cfi_def_cfa_offset 36
 1629 00e6 BDE8F08F 		pop	{r4, r5, r6, r7, r8, r9, r10, fp, pc}
 1630              	.LVL113:
 1631              	.L125:
 153:Core/Src/NOS_LIB_Driver/Src/WS2812B.c **** 
 1632              		.loc 1 153 1 view .LVU470
 1633 00ea 00BFAFF3 		.align	3
 1633      0080
 1634              	.L124:
 1635 00f0 00000000 		.word	0
 1636 00f4 00002440 		.word	1076101120
 1637 00f8 CDCCCCCC 		.word	-858993459
 1638              		.cfi_endproc
 1639              	.LFE137:
 1641              		.section	.rodata.NOS_WS2812B_Matrix_PrintFloatNumber.str1.4,"aMS",%progbits,1
 1642              		.align	2
 1643              	.LC0:
 1644 0000 2E00     		.ascii	".\000"
 1645              		.section	.text.NOS_WS2812B_Matrix_PrintFloatNumber,"ax",%progbits
 1646              		.align	1
 1647              		.global	NOS_WS2812B_Matrix_PrintFloatNumber
 1648              		.syntax unified
 1649              		.thumb
 1650              		.thumb_func
 1651              		.fpu fpv4-sp-d16
 1653              	NOS_WS2812B_Matrix_PrintFloatNumber:
 1654              	.LVL114:
 1655              	.LFB138:
 156:Core/Src/NOS_LIB_Driver/Src/WS2812B.c ****     if(num > 0.0f)
 1656              		.loc 1 156 1 is_stmt 1 view -0
 1657              		.cfi_startproc
 1658              		@ args = 0, pretend = 0, frame = 0
 1659              		@ frame_needed = 0, uses_anonymous_args = 0
 157:Core/Src/NOS_LIB_Driver/Src/WS2812B.c ****     {
 1660              		.loc 1 157 5 view .LVU472
 157:Core/Src/NOS_LIB_Driver/Src/WS2812B.c ****     {
 1661              		.loc 1 157 7 is_stmt 0 view .LVU473
 1662 0000 B5EEC00A 		vcmpe.f32	s0, #0
 1663 0004 F1EE10FA 		vmrs	APSR_nzcv, FPSCR
ARM GAS  C:\Users\user\AppData\Local\Temp\ccKeU5r1.s 			page 44


 1664 0008 00DC     		bgt	.L134
 1665 000a 7047     		bx	lr
 1666              	.L134:
 156:Core/Src/NOS_LIB_Driver/Src/WS2812B.c ****     if(num > 0.0f)
 1667              		.loc 1 156 1 view .LVU474
 1668 000c 70B5     		push	{r4, r5, r6, lr}
 1669              	.LCFI13:
 1670              		.cfi_def_cfa_offset 16
 1671              		.cfi_offset 4, -16
 1672              		.cfi_offset 5, -12
 1673              		.cfi_offset 6, -8
 1674              		.cfi_offset 14, -4
 1675 000e 2DED028B 		vpush.64	{d8}
 1676              	.LCFI14:
 1677              		.cfi_def_cfa_offset 24
 1678              		.cfi_offset 80, -24
 1679              		.cfi_offset 81, -20
 1680 0012 0546     		mov	r5, r0
 1681 0014 0E46     		mov	r6, r1
 1682              	.LBB15:
 159:Core/Src/NOS_LIB_Driver/Src/WS2812B.c ****     float after = num - (float)before;
 1683              		.loc 1 159 5 is_stmt 1 view .LVU475
 159:Core/Src/NOS_LIB_Driver/Src/WS2812B.c ****     float after = num - (float)before;
 1684              		.loc 1 159 9 is_stmt 0 view .LVU476
 1685 0016 FDEEC08A 		vcvt.s32.f32	s17, s0
 1686              	.LVL115:
 160:Core/Src/NOS_LIB_Driver/Src/WS2812B.c ****     int af = after * 100;
 1687              		.loc 1 160 5 is_stmt 1 view .LVU477
 160:Core/Src/NOS_LIB_Driver/Src/WS2812B.c ****     int af = after * 100;
 1688              		.loc 1 160 25 is_stmt 0 view .LVU478
 1689 001a B8EEE88A 		vcvt.f32.s32	s16, s17
 160:Core/Src/NOS_LIB_Driver/Src/WS2812B.c ****     int af = after * 100;
 1690              		.loc 1 160 11 view .LVU479
 1691 001e 30EE488A 		vsub.f32	s16, s0, s16
 1692              	.LVL116:
 161:Core/Src/NOS_LIB_Driver/Src/WS2812B.c ****     int pow = NOS_Math_GetNumberPower(before);
 1693              		.loc 1 161 5 is_stmt 1 view .LVU480
 161:Core/Src/NOS_LIB_Driver/Src/WS2812B.c ****     int pow = NOS_Math_GetNumberPower(before);
 1694              		.loc 1 161 20 is_stmt 0 view .LVU481
 1695 0022 9FED120A 		vldr.32	s0, .L135
 1696              	.LVL117:
 161:Core/Src/NOS_LIB_Driver/Src/WS2812B.c ****     int pow = NOS_Math_GetNumberPower(before);
 1697              		.loc 1 161 20 view .LVU482
 1698 0026 28EE008A 		vmul.f32	s16, s16, s0
 1699              	.LVL118:
 161:Core/Src/NOS_LIB_Driver/Src/WS2812B.c ****     int pow = NOS_Math_GetNumberPower(before);
 1700              		.loc 1 161 9 view .LVU483
 1701 002a BDEEC88A 		vcvt.s32.f32	s16, s16
 1702              	.LVL119:
 162:Core/Src/NOS_LIB_Driver/Src/WS2812B.c ****     NOS_WS2812B_Matrix_PrintIntNumber(matrix,before,startpos,pow);
 1703              		.loc 1 162 5 is_stmt 1 view .LVU484
 162:Core/Src/NOS_LIB_Driver/Src/WS2812B.c ****     NOS_WS2812B_Matrix_PrintIntNumber(matrix,before,startpos,pow);
 1704              		.loc 1 162 15 is_stmt 0 view .LVU485
 1705 002e 18EE900A 		vmov	r0, s17	@ int
 1706              	.LVL120:
 162:Core/Src/NOS_LIB_Driver/Src/WS2812B.c ****     NOS_WS2812B_Matrix_PrintIntNumber(matrix,before,startpos,pow);
 1707              		.loc 1 162 15 view .LVU486
ARM GAS  C:\Users\user\AppData\Local\Temp\ccKeU5r1.s 			page 45


 1708 0032 FFF7FEFF 		bl	NOS_Math_GetNumberPower
 1709              	.LVL121:
 163:Core/Src/NOS_LIB_Driver/Src/WS2812B.c ****     NOS_WS2812B_Matrix_PrintStaticString(matrix,".",startpos + pow,1);
 1710              		.loc 1 163 5 is_stmt 1 view .LVU487
 1711 0036 C4B2     		uxtb	r4, r0
 1712 0038 2346     		mov	r3, r4
 1713 003a 3246     		mov	r2, r6
 1714 003c 18EE901A 		vmov	r1, s17	@ int
 1715 0040 2846     		mov	r0, r5
 1716              	.LVL122:
 163:Core/Src/NOS_LIB_Driver/Src/WS2812B.c ****     NOS_WS2812B_Matrix_PrintStaticString(matrix,".",startpos + pow,1);
 1717              		.loc 1 163 5 is_stmt 0 view .LVU488
 1718 0042 FFF7FEFF 		bl	NOS_WS2812B_Matrix_PrintIntNumber
 1719              	.LVL123:
 164:Core/Src/NOS_LIB_Driver/Src/WS2812B.c ****     NOS_WS2812B_Matrix_PrintIntNumber(matrix,af,startpos + pow + 1,2);
 1720              		.loc 1 164 5 is_stmt 1 view .LVU489
 1721 0046 3444     		add	r4, r4, r6
 1722 0048 E4B2     		uxtb	r4, r4
 1723 004a 0123     		movs	r3, #1
 1724 004c 2246     		mov	r2, r4
 1725 004e 0849     		ldr	r1, .L135+4
 1726 0050 2846     		mov	r0, r5
 1727 0052 FFF7FEFF 		bl	NOS_WS2812B_Matrix_PrintStaticString
 1728              	.LVL124:
 165:Core/Src/NOS_LIB_Driver/Src/WS2812B.c ****     }
 1729              		.loc 1 165 5 view .LVU490
 1730 0056 621C     		adds	r2, r4, #1
 1731 0058 0223     		movs	r3, #2
 1732 005a D2B2     		uxtb	r2, r2
 1733 005c 18EE101A 		vmov	r1, s16	@ int
 1734 0060 2846     		mov	r0, r5
 1735 0062 FFF7FEFF 		bl	NOS_WS2812B_Matrix_PrintIntNumber
 1736              	.LVL125:
 1737              	.LBE15:
 167:Core/Src/NOS_LIB_Driver/Src/WS2812B.c **** 
 1738              		.loc 1 167 1 is_stmt 0 view .LVU491
 1739 0066 BDEC028B 		vldm	sp!, {d8}
 1740              	.LCFI15:
 1741              		.cfi_restore 80
 1742              		.cfi_restore 81
 1743              		.cfi_def_cfa_offset 16
 1744              	.LVL126:
 167:Core/Src/NOS_LIB_Driver/Src/WS2812B.c **** 
 1745              		.loc 1 167 1 view .LVU492
 1746 006a 70BD     		pop	{r4, r5, r6, pc}
 1747              	.LVL127:
 1748              	.L136:
 167:Core/Src/NOS_LIB_Driver/Src/WS2812B.c **** 
 1749              		.loc 1 167 1 view .LVU493
 1750              		.align	2
 1751              	.L135:
 1752 006c 0000C842 		.word	1120403456
 1753 0070 00000000 		.word	.LC0
 1754              		.cfi_endproc
 1755              	.LFE138:
 1757              		.section	.text.NOS_WS2812B_Matrix_PrintRealTime,"ax",%progbits
 1758              		.align	1
ARM GAS  C:\Users\user\AppData\Local\Temp\ccKeU5r1.s 			page 46


 1759              		.global	NOS_WS2812B_Matrix_PrintRealTime
 1760              		.syntax unified
 1761              		.thumb
 1762              		.thumb_func
 1763              		.fpu fpv4-sp-d16
 1765              	NOS_WS2812B_Matrix_PrintRealTime:
 1766              	.LVL128:
 1767              	.LFB139:
 170:Core/Src/NOS_LIB_Driver/Src/WS2812B.c ****     int startpos = 0;
 1768              		.loc 1 170 1 is_stmt 1 view -0
 1769              		.cfi_startproc
 1770              		@ args = 0, pretend = 0, frame = 8
 1771              		@ frame_needed = 0, uses_anonymous_args = 0
 170:Core/Src/NOS_LIB_Driver/Src/WS2812B.c ****     int startpos = 0;
 1772              		.loc 1 170 1 is_stmt 0 view .LVU495
 1773 0000 2DE9F043 		push	{r4, r5, r6, r7, r8, r9, lr}
 1774              	.LCFI16:
 1775              		.cfi_def_cfa_offset 28
 1776              		.cfi_offset 4, -28
 1777              		.cfi_offset 5, -24
 1778              		.cfi_offset 6, -20
 1779              		.cfi_offset 7, -16
 1780              		.cfi_offset 8, -12
 1781              		.cfi_offset 9, -8
 1782              		.cfi_offset 14, -4
 1783 0004 83B0     		sub	sp, sp, #12
 1784              	.LCFI17:
 1785              		.cfi_def_cfa_offset 40
 1786 0006 0546     		mov	r5, r0
 1787 0008 02AB     		add	r3, sp, #8
 1788 000a 03E90600 		stmdb	r3, {r1, r2}
 171:Core/Src/NOS_LIB_Driver/Src/WS2812B.c ****     if(rt.format == Hour24)
 1789              		.loc 1 171 5 is_stmt 1 view .LVU496
 1790              	.LVL129:
 172:Core/Src/NOS_LIB_Driver/Src/WS2812B.c ****     {
 1791              		.loc 1 172 5 view .LVU497
 172:Core/Src/NOS_LIB_Driver/Src/WS2812B.c ****     {
 1792              		.loc 1 172 10 is_stmt 0 view .LVU498
 1793 000e 9DF80530 		ldrb	r3, [sp, #5]	@ zero_extendqisi2
 172:Core/Src/NOS_LIB_Driver/Src/WS2812B.c ****     {
 1794              		.loc 1 172 7 view .LVU499
 1795 0012 6BB3     		cbz	r3, .L144
 171:Core/Src/NOS_LIB_Driver/Src/WS2812B.c ****     if(rt.format == Hour24)
 1796              		.loc 1 171 9 view .LVU500
 1797 0014 4FF00009 		mov	r9, #0
 1798              	.L138:
 1799              	.LVL130:
 177:Core/Src/NOS_LIB_Driver/Src/WS2812B.c ****     {
 1800              		.loc 1 177 5 is_stmt 1 view .LVU501
 177:Core/Src/NOS_LIB_Driver/Src/WS2812B.c ****     {
 1801              		.loc 1 177 7 is_stmt 0 view .LVU502
 1802 0018 012B     		cmp	r3, #1
 1803 001a 4FD1     		bne	.L139
 179:Core/Src/NOS_LIB_Driver/Src/WS2812B.c ****         {   
 1804              		.loc 1 179 9 is_stmt 1 view .LVU503
 179:Core/Src/NOS_LIB_Driver/Src/WS2812B.c ****         {   
 1805              		.loc 1 179 14 is_stmt 0 view .LVU504
ARM GAS  C:\Users\user\AppData\Local\Temp\ccKeU5r1.s 			page 47


 1806 001c 9DF80240 		ldrb	r4, [sp, #2]	@ zero_extendqisi2
 179:Core/Src/NOS_LIB_Driver/Src/WS2812B.c ****         {   
 1807              		.loc 1 179 11 view .LVU505
 1808 0020 0C2C     		cmp	r4, #12
 1809 0022 28D9     		bls	.L140
 181:Core/Src/NOS_LIB_Driver/Src/WS2812B.c ****             NOS_WS2812B_Matrix_SetSymvol(matrix,(char)(rt.hour - 12) % 10 + 48,startpos + 1);
 1810              		.loc 1 181 13 is_stmt 1 view .LVU506
 181:Core/Src/NOS_LIB_Driver/Src/WS2812B.c ****             NOS_WS2812B_Matrix_SetSymvol(matrix,(char)(rt.hour - 12) % 10 + 48,startpos + 1);
 1811              		.loc 1 181 49 is_stmt 0 view .LVU507
 1812 0024 0C3C     		subs	r4, r4, #12
 1813 0026 E4B2     		uxtb	r4, r4
 181:Core/Src/NOS_LIB_Driver/Src/WS2812B.c ****             NOS_WS2812B_Matrix_SetSymvol(matrix,(char)(rt.hour - 12) % 10 + 48,startpos + 1);
 1814              		.loc 1 181 13 view .LVU508
 1815 0028 5FFA89F7 		uxtb	r7, r9
 1816 002c 584E     		ldr	r6, .L146
 1817 002e A6FB0436 		umull	r3, r6, r6, r4
 1818 0032 F608     		lsrs	r6, r6, #3
 1819 0034 3A46     		mov	r2, r7
 1820 0036 06F13001 		add	r1, r6, #48
 1821 003a 2846     		mov	r0, r5
 1822              	.LVL131:
 181:Core/Src/NOS_LIB_Driver/Src/WS2812B.c ****             NOS_WS2812B_Matrix_SetSymvol(matrix,(char)(rt.hour - 12) % 10 + 48,startpos + 1);
 1823              		.loc 1 181 13 view .LVU509
 1824 003c FFF7FEFF 		bl	NOS_WS2812B_Matrix_SetSymvol
 1825              	.LVL132:
 182:Core/Src/NOS_LIB_Driver/Src/WS2812B.c ****             NOS_WS2812B_Matrix_SetSymvol(matrix,'P',startpos + 8);
 1826              		.loc 1 182 13 is_stmt 1 view .LVU510
 1827 0040 06EB8606 		add	r6, r6, r6, lsl #2
 1828 0044 A4EB4606 		sub	r6, r4, r6, lsl #1
 1829 0048 06F13001 		add	r1, r6, #48
 1830 004c 7A1C     		adds	r2, r7, #1
 1831 004e C9B2     		uxtb	r1, r1
 1832 0050 2846     		mov	r0, r5
 1833 0052 FFF7FEFF 		bl	NOS_WS2812B_Matrix_SetSymvol
 1834              	.LVL133:
 183:Core/Src/NOS_LIB_Driver/Src/WS2812B.c ****             NOS_WS2812B_Matrix_SetSymvol(matrix,'M',startpos + 9);
 1835              		.loc 1 183 13 view .LVU511
 1836 0056 07F10802 		add	r2, r7, #8
 1837 005a 5021     		movs	r1, #80
 1838 005c 2846     		mov	r0, r5
 1839 005e FFF7FEFF 		bl	NOS_WS2812B_Matrix_SetSymvol
 1840              	.LVL134:
 184:Core/Src/NOS_LIB_Driver/Src/WS2812B.c ****         }
 1841              		.loc 1 184 13 view .LVU512
 1842 0062 07F10902 		add	r2, r7, #9
 1843 0066 4D21     		movs	r1, #77
 1844 0068 2846     		mov	r0, r5
 1845 006a FFF7FEFF 		bl	NOS_WS2812B_Matrix_SetSymvol
 1846              	.LVL135:
 1847 006e 44E0     		b	.L141
 1848              	.LVL136:
 1849              	.L144:
 174:Core/Src/NOS_LIB_Driver/Src/WS2812B.c ****     }
 1850              		.loc 1 174 18 is_stmt 0 view .LVU513
 1851 0070 4FF00109 		mov	r9, #1
 1852 0074 D0E7     		b	.L138
 1853              	.LVL137:
ARM GAS  C:\Users\user\AppData\Local\Temp\ccKeU5r1.s 			page 48


 1854              	.L140:
 188:Core/Src/NOS_LIB_Driver/Src/WS2812B.c ****             NOS_WS2812B_Matrix_SetSymvol(matrix,(char)(rt.hour) % 10 + 48,startpos + 1);
 1855              		.loc 1 188 13 is_stmt 1 view .LVU514
 1856 0076 5FFA89F7 		uxtb	r7, r9
 1857 007a 454E     		ldr	r6, .L146
 1858 007c A6FB0436 		umull	r3, r6, r6, r4
 1859 0080 F608     		lsrs	r6, r6, #3
 1860 0082 3A46     		mov	r2, r7
 1861 0084 06F13001 		add	r1, r6, #48
 1862 0088 2846     		mov	r0, r5
 1863              	.LVL138:
 188:Core/Src/NOS_LIB_Driver/Src/WS2812B.c ****             NOS_WS2812B_Matrix_SetSymvol(matrix,(char)(rt.hour) % 10 + 48,startpos + 1);
 1864              		.loc 1 188 13 is_stmt 0 view .LVU515
 1865 008a FFF7FEFF 		bl	NOS_WS2812B_Matrix_SetSymvol
 1866              	.LVL139:
 189:Core/Src/NOS_LIB_Driver/Src/WS2812B.c ****             NOS_WS2812B_Matrix_SetSymvol(matrix,'A',startpos + 8);
 1867              		.loc 1 189 13 is_stmt 1 view .LVU516
 1868 008e 06EB8601 		add	r1, r6, r6, lsl #2
 1869 0092 A4EB4101 		sub	r1, r4, r1, lsl #1
 1870 0096 3031     		adds	r1, r1, #48
 1871 0098 7A1C     		adds	r2, r7, #1
 1872 009a C9B2     		uxtb	r1, r1
 1873 009c 2846     		mov	r0, r5
 1874 009e FFF7FEFF 		bl	NOS_WS2812B_Matrix_SetSymvol
 1875              	.LVL140:
 190:Core/Src/NOS_LIB_Driver/Src/WS2812B.c ****             NOS_WS2812B_Matrix_SetSymvol(matrix,'M',startpos + 9);
 1876              		.loc 1 190 13 view .LVU517
 1877 00a2 07F10802 		add	r2, r7, #8
 1878 00a6 4121     		movs	r1, #65
 1879 00a8 2846     		mov	r0, r5
 1880 00aa FFF7FEFF 		bl	NOS_WS2812B_Matrix_SetSymvol
 1881              	.LVL141:
 191:Core/Src/NOS_LIB_Driver/Src/WS2812B.c ****         }
 1882              		.loc 1 191 13 view .LVU518
 1883 00ae 07F10902 		add	r2, r7, #9
 1884 00b2 4D21     		movs	r1, #77
 1885 00b4 2846     		mov	r0, r5
 1886 00b6 FFF7FEFF 		bl	NOS_WS2812B_Matrix_SetSymvol
 1887              	.LVL142:
 1888 00ba 1EE0     		b	.L141
 1889              	.LVL143:
 1890              	.L139:
 196:Core/Src/NOS_LIB_Driver/Src/WS2812B.c ****             NOS_WS2812B_Matrix_SetSymvol(matrix,(char)(rt.hour) % 10 + 48,startpos + 1);
 1891              		.loc 1 196 13 view .LVU519
 196:Core/Src/NOS_LIB_Driver/Src/WS2812B.c ****             NOS_WS2812B_Matrix_SetSymvol(matrix,(char)(rt.hour) % 10 + 48,startpos + 1);
 1892              		.loc 1 196 58 is_stmt 0 view .LVU520
 1893 00bc 9DF80260 		ldrb	r6, [sp, #2]	@ zero_extendqisi2
 196:Core/Src/NOS_LIB_Driver/Src/WS2812B.c ****             NOS_WS2812B_Matrix_SetSymvol(matrix,(char)(rt.hour) % 10 + 48,startpos + 1);
 1894              		.loc 1 196 13 view .LVU521
 1895 00c0 5FFA89F7 		uxtb	r7, r9
 1896 00c4 324C     		ldr	r4, .L146
 1897 00c6 A4FB0634 		umull	r3, r4, r4, r6
 1898 00ca E408     		lsrs	r4, r4, #3
 1899 00cc 3A46     		mov	r2, r7
 1900 00ce 04F13001 		add	r1, r4, #48
 1901 00d2 2846     		mov	r0, r5
 1902              	.LVL144:
ARM GAS  C:\Users\user\AppData\Local\Temp\ccKeU5r1.s 			page 49


 196:Core/Src/NOS_LIB_Driver/Src/WS2812B.c ****             NOS_WS2812B_Matrix_SetSymvol(matrix,(char)(rt.hour) % 10 + 48,startpos + 1);
 1903              		.loc 1 196 13 view .LVU522
 1904 00d4 FFF7FEFF 		bl	NOS_WS2812B_Matrix_SetSymvol
 1905              	.LVL145:
 197:Core/Src/NOS_LIB_Driver/Src/WS2812B.c ****             NOS_WS2812B_Matrix_SetSymvol(matrix,' ',startpos + 8);
 1906              		.loc 1 197 13 is_stmt 1 view .LVU523
 1907 00d8 04EB8404 		add	r4, r4, r4, lsl #2
 1908 00dc A6EB4404 		sub	r4, r6, r4, lsl #1
 1909 00e0 04F13001 		add	r1, r4, #48
 1910 00e4 7A1C     		adds	r2, r7, #1
 1911 00e6 C9B2     		uxtb	r1, r1
 1912 00e8 2846     		mov	r0, r5
 1913 00ea FFF7FEFF 		bl	NOS_WS2812B_Matrix_SetSymvol
 1914              	.LVL146:
 198:Core/Src/NOS_LIB_Driver/Src/WS2812B.c ****     }
 1915              		.loc 1 198 13 view .LVU524
 1916 00ee 07F10802 		add	r2, r7, #8
 1917 00f2 2021     		movs	r1, #32
 1918 00f4 2846     		mov	r0, r5
 1919 00f6 FFF7FEFF 		bl	NOS_WS2812B_Matrix_SetSymvol
 1920              	.LVL147:
 1921              	.L141:
 201:Core/Src/NOS_LIB_Driver/Src/WS2812B.c ****     NOS_WS2812B_Matrix_SetSymvol(matrix,(char)(rt.min%10) + 48,startpos + 4);
 1922              		.loc 1 201 5 view .LVU525
 201:Core/Src/NOS_LIB_Driver/Src/WS2812B.c ****     NOS_WS2812B_Matrix_SetSymvol(matrix,(char)(rt.min%10) + 48,startpos + 4);
 1923              		.loc 1 201 50 is_stmt 0 view .LVU526
 1924 00fa 9DF80380 		ldrb	r8, [sp, #3]	@ zero_extendqisi2
 201:Core/Src/NOS_LIB_Driver/Src/WS2812B.c ****     NOS_WS2812B_Matrix_SetSymvol(matrix,(char)(rt.min%10) + 48,startpos + 4);
 1925              		.loc 1 201 5 view .LVU527
 1926 00fe 5FFA89F6 		uxtb	r6, r9
 1927 0102 234C     		ldr	r4, .L146
 1928 0104 A4FB0837 		umull	r3, r7, r4, r8
 1929 0108 FF08     		lsrs	r7, r7, #3
 1930 010a 09F10302 		add	r2, r9, #3
 1931 010e 07F13001 		add	r1, r7, #48
 1932 0112 2846     		mov	r0, r5
 1933 0114 FFF7FEFF 		bl	NOS_WS2812B_Matrix_SetSymvol
 1934              	.LVL148:
 202:Core/Src/NOS_LIB_Driver/Src/WS2812B.c **** 
 1935              		.loc 1 202 5 is_stmt 1 view .LVU528
 1936 0118 07EB8707 		add	r7, r7, r7, lsl #2
 1937 011c A8EB4707 		sub	r7, r8, r7, lsl #1
 1938 0120 07F13001 		add	r1, r7, #48
 1939 0124 321D     		adds	r2, r6, #4
 1940 0126 C9B2     		uxtb	r1, r1
 1941 0128 2846     		mov	r0, r5
 1942 012a FFF7FEFF 		bl	NOS_WS2812B_Matrix_SetSymvol
 1943              	.LVL149:
 204:Core/Src/NOS_LIB_Driver/Src/WS2812B.c ****     NOS_WS2812B_Matrix_SetSymvol(matrix,(char)rt.sec%10 + 48,startpos + 7);
 1944              		.loc 1 204 5 view .LVU529
 204:Core/Src/NOS_LIB_Driver/Src/WS2812B.c ****     NOS_WS2812B_Matrix_SetSymvol(matrix,(char)rt.sec%10 + 48,startpos + 7);
 1945              		.loc 1 204 49 is_stmt 0 view .LVU530
 1946 012e 9DF80470 		ldrb	r7, [sp, #4]	@ zero_extendqisi2
 204:Core/Src/NOS_LIB_Driver/Src/WS2812B.c ****     NOS_WS2812B_Matrix_SetSymvol(matrix,(char)rt.sec%10 + 48,startpos + 7);
 1947              		.loc 1 204 5 view .LVU531
 1948 0132 A4FB0734 		umull	r3, r4, r4, r7
 1949 0136 E408     		lsrs	r4, r4, #3
ARM GAS  C:\Users\user\AppData\Local\Temp\ccKeU5r1.s 			page 50


 1950 0138 B21D     		adds	r2, r6, #6
 1951 013a 04F13001 		add	r1, r4, #48
 1952 013e 2846     		mov	r0, r5
 1953 0140 FFF7FEFF 		bl	NOS_WS2812B_Matrix_SetSymvol
 1954              	.LVL150:
 205:Core/Src/NOS_LIB_Driver/Src/WS2812B.c **** 
 1955              		.loc 1 205 5 is_stmt 1 view .LVU532
 1956 0144 04EB8401 		add	r1, r4, r4, lsl #2
 1957 0148 A7EB4101 		sub	r1, r7, r1, lsl #1
 1958 014c 3031     		adds	r1, r1, #48
 1959 014e F21D     		adds	r2, r6, #7
 1960 0150 C9B2     		uxtb	r1, r1
 1961 0152 2846     		mov	r0, r5
 1962 0154 FFF7FEFF 		bl	NOS_WS2812B_Matrix_SetSymvol
 1963              	.LVL151:
 207:Core/Src/NOS_LIB_Driver/Src/WS2812B.c ****     {
 1964              		.loc 1 207 5 view .LVU533
 207:Core/Src/NOS_LIB_Driver/Src/WS2812B.c ****     {
 1965              		.loc 1 207 7 is_stmt 0 view .LVU534
 1966 0158 17F0010F 		tst	r7, #1
 1967 015c 0CD1     		bne	.L142
 209:Core/Src/NOS_LIB_Driver/Src/WS2812B.c ****         NOS_WS2812B_Matrix_SetSymvol(matrix,':',startpos + 5);
 1968              		.loc 1 209 9 is_stmt 1 view .LVU535
 1969 015e B21C     		adds	r2, r6, #2
 1970 0160 3A21     		movs	r1, #58
 1971 0162 2846     		mov	r0, r5
 1972 0164 FFF7FEFF 		bl	NOS_WS2812B_Matrix_SetSymvol
 1973              	.LVL152:
 210:Core/Src/NOS_LIB_Driver/Src/WS2812B.c ****     }
 1974              		.loc 1 210 9 view .LVU536
 1975 0168 721D     		adds	r2, r6, #5
 1976 016a 3A21     		movs	r1, #58
 1977 016c 2846     		mov	r0, r5
 1978 016e FFF7FEFF 		bl	NOS_WS2812B_Matrix_SetSymvol
 1979              	.LVL153:
 1980              	.L137:
 217:Core/Src/NOS_LIB_Driver/Src/WS2812B.c **** 
 1981              		.loc 1 217 1 is_stmt 0 view .LVU537
 1982 0172 03B0     		add	sp, sp, #12
 1983              	.LCFI18:
 1984              		.cfi_remember_state
 1985              		.cfi_def_cfa_offset 28
 1986              		@ sp needed
 1987 0174 BDE8F083 		pop	{r4, r5, r6, r7, r8, r9, pc}
 1988              	.LVL154:
 1989              	.L142:
 1990              	.LCFI19:
 1991              		.cfi_restore_state
 214:Core/Src/NOS_LIB_Driver/Src/WS2812B.c ****         NOS_WS2812B_Matrix_SetSymvol(matrix,' ',startpos + 5);
 1992              		.loc 1 214 9 is_stmt 1 view .LVU538
 1993 0178 B21C     		adds	r2, r6, #2
 1994 017a 2021     		movs	r1, #32
 1995 017c 2846     		mov	r0, r5
 1996 017e FFF7FEFF 		bl	NOS_WS2812B_Matrix_SetSymvol
 1997              	.LVL155:
 215:Core/Src/NOS_LIB_Driver/Src/WS2812B.c ****     }
 1998              		.loc 1 215 9 view .LVU539
ARM GAS  C:\Users\user\AppData\Local\Temp\ccKeU5r1.s 			page 51


 1999 0182 721D     		adds	r2, r6, #5
 2000 0184 2021     		movs	r1, #32
 2001 0186 2846     		mov	r0, r5
 2002 0188 FFF7FEFF 		bl	NOS_WS2812B_Matrix_SetSymvol
 2003              	.LVL156:
 217:Core/Src/NOS_LIB_Driver/Src/WS2812B.c **** 
 2004              		.loc 1 217 1 is_stmt 0 view .LVU540
 2005 018c F1E7     		b	.L137
 2006              	.L147:
 2007 018e 00BF     		.align	2
 2008              	.L146:
 2009 0190 CDCCCCCC 		.word	-858993459
 2010              		.cfi_endproc
 2011              	.LFE139:
 2013              		.section	.text.NOS_WS2812B_Matrix_PrintTemperature,"ax",%progbits
 2014              		.align	1
 2015              		.global	NOS_WS2812B_Matrix_PrintTemperature
 2016              		.syntax unified
 2017              		.thumb
 2018              		.thumb_func
 2019              		.fpu fpv4-sp-d16
 2021              	NOS_WS2812B_Matrix_PrintTemperature:
 2022              	.LVL157:
 2023              	.LFB142:
 278:Core/Src/NOS_LIB_Driver/Src/WS2812B.c ****     if(temperature > 0)
 2024              		.loc 1 278 1 is_stmt 1 view -0
 2025              		.cfi_startproc
 2026              		@ args = 0, pretend = 0, frame = 0
 2027              		@ frame_needed = 0, uses_anonymous_args = 0
 278:Core/Src/NOS_LIB_Driver/Src/WS2812B.c ****     if(temperature > 0)
 2028              		.loc 1 278 1 is_stmt 0 view .LVU542
 2029 0000 38B5     		push	{r3, r4, r5, lr}
 2030              	.LCFI20:
 2031              		.cfi_def_cfa_offset 16
 2032              		.cfi_offset 3, -16
 2033              		.cfi_offset 4, -12
 2034              		.cfi_offset 5, -8
 2035              		.cfi_offset 14, -4
 2036 0002 0546     		mov	r5, r0
 279:Core/Src/NOS_LIB_Driver/Src/WS2812B.c ****     {
 2037              		.loc 1 279 5 is_stmt 1 view .LVU543
 279:Core/Src/NOS_LIB_Driver/Src/WS2812B.c ****     {
 2038              		.loc 1 279 7 is_stmt 0 view .LVU544
 2039 0004 0C1E     		subs	r4, r1, #0
 2040 0006 16DD     		ble	.L149
 281:Core/Src/NOS_LIB_Driver/Src/WS2812B.c ****     }
 2041              		.loc 1 281 8 is_stmt 1 view .LVU545
 2042 0008 0022     		movs	r2, #0
 2043 000a 2B21     		movs	r1, #43
 2044              	.LVL158:
 281:Core/Src/NOS_LIB_Driver/Src/WS2812B.c ****     }
 2045              		.loc 1 281 8 is_stmt 0 view .LVU546
 2046 000c FFF7FEFF 		bl	NOS_WS2812B_Matrix_SetSymvol
 2047              	.LVL159:
 2048              	.L150:
 288:Core/Src/NOS_LIB_Driver/Src/WS2812B.c ****        NOS_WS2812B_Matrix_SetSymvol(matrix,'C',4);
 2049              		.loc 1 288 8 is_stmt 1 view .LVU547
ARM GAS  C:\Users\user\AppData\Local\Temp\ccKeU5r1.s 			page 52


 2050 0010 0322     		movs	r2, #3
 2051 0012 2A21     		movs	r1, #42
 2052 0014 2846     		mov	r0, r5
 2053 0016 FFF7FEFF 		bl	NOS_WS2812B_Matrix_SetSymvol
 2054              	.LVL160:
 289:Core/Src/NOS_LIB_Driver/Src/WS2812B.c **** 
 2055              		.loc 1 289 8 view .LVU548
 2056 001a 0422     		movs	r2, #4
 2057 001c 4321     		movs	r1, #67
 2058 001e 2846     		mov	r0, r5
 2059 0020 FFF7FEFF 		bl	NOS_WS2812B_Matrix_SetSymvol
 2060              	.LVL161:
 291:Core/Src/NOS_LIB_Driver/Src/WS2812B.c ****     if(temperature < 0)
 2061              		.loc 1 291 5 view .LVU549
 292:Core/Src/NOS_LIB_Driver/Src/WS2812B.c ****     {
 2062              		.loc 1 292 5 view .LVU550
 292:Core/Src/NOS_LIB_Driver/Src/WS2812B.c ****     {
 2063              		.loc 1 292 7 is_stmt 0 view .LVU551
 2064 0024 002C     		cmp	r4, #0
 2065 0026 12DB     		blt	.L158
 302:Core/Src/NOS_LIB_Driver/Src/WS2812B.c ****     }
 2066              		.loc 1 302 9 is_stmt 1 view .LVU552
 302:Core/Src/NOS_LIB_Driver/Src/WS2812B.c ****     }
 2067              		.loc 1 302 17 is_stmt 0 view .LVU553
 2068 0028 E1B2     		uxtb	r1, r4
 2069              	.LVL162:
 2070              	.L154:
 304:Core/Src/NOS_LIB_Driver/Src/WS2812B.c **** }
 2071              		.loc 1 304 5 is_stmt 1 view .LVU554
 2072 002a 0223     		movs	r3, #2
 2073 002c 0122     		movs	r2, #1
 2074 002e 2846     		mov	r0, r5
 2075 0030 FFF7FEFF 		bl	NOS_WS2812B_Matrix_PrintIntNumber
 2076              	.LVL163:
 305:Core/Src/NOS_LIB_Driver/Src/WS2812B.c **** 
 2077              		.loc 1 305 1 is_stmt 0 view .LVU555
 2078 0034 38BD     		pop	{r3, r4, r5, pc}
 2079              	.LVL164:
 2080              	.L149:
 285:Core/Src/NOS_LIB_Driver/Src/WS2812B.c ****     }
 2081              		.loc 1 285 8 is_stmt 1 view .LVU556
 2082 0036 0022     		movs	r2, #0
 2083 0038 2D21     		movs	r1, #45
 2084              	.LVL165:
 285:Core/Src/NOS_LIB_Driver/Src/WS2812B.c ****     }
 2085              		.loc 1 285 8 is_stmt 0 view .LVU557
 2086 003a FFF7FEFF 		bl	NOS_WS2812B_Matrix_SetSymvol
 2087              	.LVL166:
 285:Core/Src/NOS_LIB_Driver/Src/WS2812B.c ****     }
 2088              		.loc 1 285 8 view .LVU558
 2089 003e E7E7     		b	.L150
 2090              	.LVL167:
 2091              	.L153:
 296:Core/Src/NOS_LIB_Driver/Src/WS2812B.c ****        counter++;
 2092              		.loc 1 296 8 is_stmt 1 view .LVU559
 296:Core/Src/NOS_LIB_Driver/Src/WS2812B.c ****        counter++;
 2093              		.loc 1 296 19 is_stmt 0 view .LVU560
ARM GAS  C:\Users\user\AppData\Local\Temp\ccKeU5r1.s 			page 53


 2094 0040 0134     		adds	r4, r4, #1
 2095              	.LVL168:
 296:Core/Src/NOS_LIB_Driver/Src/WS2812B.c ****        counter++;
 2096              		.loc 1 296 19 view .LVU561
 2097 0042 24B2     		sxth	r4, r4
 2098              	.LVL169:
 297:Core/Src/NOS_LIB_Driver/Src/WS2812B.c ****     }
 2099              		.loc 1 297 8 is_stmt 1 view .LVU562
 297:Core/Src/NOS_LIB_Driver/Src/WS2812B.c ****     }
 2100              		.loc 1 297 15 is_stmt 0 view .LVU563
 2101 0044 0131     		adds	r1, r1, #1
 2102              	.LVL170:
 297:Core/Src/NOS_LIB_Driver/Src/WS2812B.c ****     }
 2103              		.loc 1 297 15 view .LVU564
 2104 0046 C9B2     		uxtb	r1, r1
 2105              	.LVL171:
 2106              	.L151:
 294:Core/Src/NOS_LIB_Driver/Src/WS2812B.c ****     {
 2107              		.loc 1 294 10 is_stmt 1 view .LVU565
 2108 0048 002C     		cmp	r4, #0
 2109 004a F9DB     		blt	.L153
 2110 004c EDE7     		b	.L154
 2111              	.LVL172:
 2112              	.L158:
 291:Core/Src/NOS_LIB_Driver/Src/WS2812B.c ****     if(temperature < 0)
 2113              		.loc 1 291 13 is_stmt 0 view .LVU566
 2114 004e 0021     		movs	r1, #0
 2115 0050 FAE7     		b	.L151
 2116              		.cfi_endproc
 2117              	.LFE142:
 2119              		.global	Num_9
 2120              		.global	Num_8
 2121              		.global	Num_7
 2122              		.global	Num_6
 2123              		.global	Num_5
 2124              		.global	Num_4
 2125              		.global	Num_3
 2126              		.global	Num_2
 2127              		.global	Num_1
 2128              		.global	Num_0
 2129              		.global	Celcium
 2130              		.global	Multiply
 2131              		.global	Minus
 2132              		.global	Plus
 2133              		.global	Slash
 2134              		.global	DoubleDot
 2135              		.global	Dot
 2136              		.global	Space
 2137              		.global	Ukr_ch
 2138              		.global	Ukr_d
 2139              		.global	Ukr_g
 2140              		.global	Ukr_k
 2141              		.global	Ukr_m
 2142              		.global	Eng_r
 2143              		.global	Eng_o
 2144              		.global	Eng_u
 2145              		.global	Eng_v
ARM GAS  C:\Users\user\AppData\Local\Temp\ccKeU5r1.s 			page 54


 2146              		.global	Eng_c
 2147              		.global	Eng_a
 2148              		.global	Eng_Z
 2149              		.global	Eng_Y
 2150              		.global	Eng_X
 2151              		.global	Eng_W
 2152              		.global	Eng_V
 2153              		.global	Eng_U
 2154              		.global	Eng_T
 2155              		.global	Eng_S
 2156              		.global	Eng_R
 2157              		.global	Eng_Q
 2158              		.global	Eng_P
 2159              		.global	Eng_O
 2160              		.global	Eng_N
 2161              		.global	Eng_M
 2162              		.global	Eng_L
 2163              		.global	Eng_K
 2164              		.global	Eng_J
 2165              		.global	Eng_I
 2166              		.global	Eng_H
 2167              		.global	Eng_G
 2168              		.global	Eng_F
 2169              		.global	Eng_E
 2170              		.global	Eng_D
 2171              		.global	Eng_C
 2172              		.global	Eng_B
 2173              		.global	Eng_A
 2174              		.section	.bss.Space,"aw",%nobits
 2175              		.align	2
 2176              		.set	.LANCHOR0,. + 0
 2179              	Space:
 2180 0000 00000000 		.space	5
 2180      00
 2181              		.section	.data.Celcium,"aw"
 2182              		.align	2
 2183              		.set	.LANCHOR40,. + 0
 2186              	Celcium:
 2187 0000 0000040A 		.ascii	"\000\000\004\012\004"
 2187      04
 2188              		.section	.data.Dot,"aw"
 2189              		.align	2
 2190              		.set	.LANCHOR41,. + 0
 2193              	Dot:
 2194 0000 00008000 		.ascii	"\000\000\200\000\000"
 2194      00
 2195              		.section	.data.DoubleDot,"aw"
 2196              		.align	2
 2197              		.set	.LANCHOR42,. + 0
 2200              	DoubleDot:
 2201 0000 00004400 		.ascii	"\000\000D\000\000"
 2201      00
 2202              		.section	.data.Eng_A,"aw"
 2203              		.align	2
 2204              		.set	.LANCHOR53,. + 0
 2207              	Eng_A:
 2208 0000 FC121212 		.ascii	"\374\022\022\022\374"
ARM GAS  C:\Users\user\AppData\Local\Temp\ccKeU5r1.s 			page 55


 2208      FC
 2209              		.section	.data.Eng_B,"aw"
 2210              		.align	2
 2211              		.set	.LANCHOR1,. + 0
 2214              	Eng_B:
 2215 0000 FE929292 		.ascii	"\376\222\222\222l"
 2215      6C
 2216              		.section	.data.Eng_C,"aw"
 2217              		.align	2
 2218              		.set	.LANCHOR2,. + 0
 2221              	Eng_C:
 2222 0000 7C828282 		.ascii	"|\202\202\202D"
 2222      44
 2223              		.section	.data.Eng_D,"aw"
 2224              		.align	2
 2225              		.set	.LANCHOR3,. + 0
 2228              	Eng_D:
 2229 0000 FE828282 		.ascii	"\376\202\202\202|"
 2229      7C
 2230              		.section	.data.Eng_E,"aw"
 2231              		.align	2
 2232              		.set	.LANCHOR4,. + 0
 2235              	Eng_E:
 2236 0000 FE929292 		.ascii	"\376\222\222\222\202"
 2236      82
 2237              		.section	.data.Eng_F,"aw"
 2238              		.align	2
 2239              		.set	.LANCHOR5,. + 0
 2242              	Eng_F:
 2243 0000 FE121212 		.ascii	"\376\022\022\022\002"
 2243      02
 2244              		.section	.data.Eng_G,"aw"
 2245              		.align	2
 2246              		.set	.LANCHOR6,. + 0
 2249              	Eng_G:
 2250 0000 7C829292 		.ascii	"|\202\222\222t"
 2250      74
 2251              		.section	.data.Eng_H,"aw"
 2252              		.align	2
 2253              		.set	.LANCHOR7,. + 0
 2256              	Eng_H:
 2257 0000 FE101010 		.ascii	"\376\020\020\020\376"
 2257      FE
 2258              		.section	.data.Eng_I,"aw"
 2259              		.align	2
 2260              		.set	.LANCHOR8,. + 0
 2263              	Eng_I:
 2264 0000 0082FE82 		.ascii	"\000\202\376\202\000"
 2264      00
 2265              		.section	.data.Eng_J,"aw"
 2266              		.align	2
 2267              		.set	.LANCHOR9,. + 0
 2270              	Eng_J:
 2271 0000 40808080 		.ascii	"@\200\200\200~"
 2271      7E
 2272              		.section	.data.Eng_K,"aw"
 2273              		.align	2
ARM GAS  C:\Users\user\AppData\Local\Temp\ccKeU5r1.s 			page 56


 2274              		.set	.LANCHOR10,. + 0
 2277              	Eng_K:
 2278 0000 FE102844 		.ascii	"\376\020(D\202"
 2278      82
 2279              		.section	.data.Eng_L,"aw"
 2280              		.align	2
 2281              		.set	.LANCHOR11,. + 0
 2284              	Eng_L:
 2285 0000 FE808080 		.ascii	"\376\200\200\200\200"
 2285      80
 2286              		.section	.data.Eng_M,"aw"
 2287              		.align	2
 2288              		.set	.LANCHOR12,. + 0
 2291              	Eng_M:
 2292 0000 FE040804 		.ascii	"\376\004\010\004\376"
 2292      FE
 2293              		.section	.data.Eng_N,"aw"
 2294              		.align	2
 2295              		.set	.LANCHOR13,. + 0
 2298              	Eng_N:
 2299 0000 FE081020 		.ascii	"\376\010\020 \376"
 2299      FE
 2300              		.section	.data.Eng_O,"aw"
 2301              		.align	2
 2302              		.set	.LANCHOR14,. + 0
 2305              	Eng_O:
 2306 0000 7C828282 		.ascii	"|\202\202\202|"
 2306      7C
 2307              		.section	.data.Eng_P,"aw"
 2308              		.align	2
 2309              		.set	.LANCHOR15,. + 0
 2312              	Eng_P:
 2313 0000 FE121212 		.ascii	"\376\022\022\022\014"
 2313      0C
 2314              		.section	.data.Eng_Q,"aw"
 2315              		.align	2
 2316              		.set	.LANCHOR16,. + 0
 2319              	Eng_Q:
 2320 0000 7C82A242 		.ascii	"|\202\242B\274"
 2320      BC
 2321              		.section	.data.Eng_R,"aw"
 2322              		.align	2
 2323              		.set	.LANCHOR17,. + 0
 2326              	Eng_R:
 2327 0000 FE123252 		.ascii	"\376\0222R\214"
 2327      8C
 2328              		.section	.data.Eng_S,"aw"
 2329              		.align	2
 2330              		.set	.LANCHOR18,. + 0
 2333              	Eng_S:
 2334 0000 4C929292 		.ascii	"L\222\222\222d"
 2334      64
 2335              		.section	.data.Eng_T,"aw"
 2336              		.align	2
 2337              		.set	.LANCHOR19,. + 0
 2340              	Eng_T:
 2341 0000 0202FE02 		.ascii	"\002\002\376\002\002"
ARM GAS  C:\Users\user\AppData\Local\Temp\ccKeU5r1.s 			page 57


 2341      02
 2342              		.section	.data.Eng_U,"aw"
 2343              		.align	2
 2344              		.set	.LANCHOR20,. + 0
 2347              	Eng_U:
 2348 0000 7E808080 		.ascii	"~\200\200\200~"
 2348      7E
 2349              		.section	.data.Eng_V,"aw"
 2350              		.align	2
 2351              		.set	.LANCHOR21,. + 0
 2354              	Eng_V:
 2355 0000 3E408040 		.ascii	">@\200@>"
 2355      3E
 2356              		.section	.data.Eng_W,"aw"
 2357              		.align	2
 2358              		.set	.LANCHOR22,. + 0
 2361              	Eng_W:
 2362 0000 7E807880 		.ascii	"~\200x\200~"
 2362      7E
 2363              		.section	.data.Eng_X,"aw"
 2364              		.align	2
 2365              		.set	.LANCHOR23,. + 0
 2368              	Eng_X:
 2369 0000 C6281028 		.ascii	"\306(\020(\306"
 2369      C6
 2370              		.section	.data.Eng_Y,"aw"
 2371              		.align	2
 2372              		.set	.LANCHOR24,. + 0
 2375              	Eng_Y:
 2376 0000 0204F804 		.ascii	"\002\004\370\004\002"
 2376      02
 2377              		.section	.data.Eng_Z,"aw"
 2378              		.align	2
 2379              		.set	.LANCHOR25,. + 0
 2382              	Eng_Z:
 2383 0000 C2A2928A 		.ascii	"\302\242\222\212\206"
 2383      86
 2384              		.section	.data.Eng_a,"aw"
 2385              		.align	2
 2386              		.set	.LANCHOR28,. + 0
 2389              	Eng_a:
 2390 0000 40A8A8A8 		.ascii	"@\250\250\250p"
 2390      70
 2391              		.section	.data.Eng_c,"aw"
 2392              		.align	2
 2393              		.set	.LANCHOR29,. + 0
 2396              	Eng_c:
 2397 0000 70888888 		.ascii	"p\210\210\210\000"
 2397      00
 2398              		.section	.data.Eng_o,"aw"
 2399              		.align	2
 2400              		.set	.LANCHOR34,. + 0
 2403              	Eng_o:
 2404 0000 70888888 		.ascii	"p\210\210\210p"
 2404      70
 2405              		.section	.data.Eng_r,"aw"
 2406              		.align	2
ARM GAS  C:\Users\user\AppData\Local\Temp\ccKeU5r1.s 			page 58


 2407              		.set	.LANCHOR30,. + 0
 2410              	Eng_r:
 2411 0000 F8100808 		.ascii	"\370\020\010\010\010"
 2411      08
 2412              		.section	.data.Eng_u,"aw"
 2413              		.align	2
 2414              		.set	.LANCHOR26,. + 0
 2417              	Eng_u:
 2418 0000 78808080 		.ascii	"x\200\200\200x"
 2418      78
 2419              		.section	.data.Eng_v,"aw"
 2420              		.align	2
 2421              		.set	.LANCHOR27,. + 0
 2424              	Eng_v:
 2425 0000 38408040 		.ascii	"8@\200@8"
 2425      38
 2426              		.section	.data.Minus,"aw"
 2427              		.align	2
 2428              		.set	.LANCHOR38,. + 0
 2431              	Minus:
 2432 0000 10101010 		.ascii	"\020\020\020\020\020"
 2432      10
 2433              		.section	.data.Multiply,"aw"
 2434              		.align	2
 2437              	Multiply:
 2438 0000 44281028 		.ascii	"D(\020(D"
 2438      44
 2439              		.section	.data.Num_0,"aw"
 2440              		.align	2
 2441              		.set	.LANCHOR43,. + 0
 2444              	Num_0:
 2445 0000 7CA2928A 		.ascii	"|\242\222\212|"
 2445      7C
 2446              		.section	.data.Num_1,"aw"
 2447              		.align	2
 2448              		.set	.LANCHOR44,. + 0
 2451              	Num_1:
 2452 0000 8884FE80 		.ascii	"\210\204\376\200\200"
 2452      80
 2453              		.section	.data.Num_2,"aw"
 2454              		.align	2
 2455              		.set	.LANCHOR45,. + 0
 2458              	Num_2:
 2459 0000 84C2A292 		.ascii	"\204\302\242\222\214"
 2459      8C
 2460              		.section	.data.Num_3,"aw"
 2461              		.align	2
 2462              		.set	.LANCHOR46,. + 0
 2465              	Num_3:
 2466 0000 44929292 		.ascii	"D\222\222\222l"
 2466      6C
 2467              		.section	.data.Num_4,"aw"
 2468              		.align	2
 2469              		.set	.LANCHOR47,. + 0
 2472              	Num_4:
 2473 0000 0E101010 		.ascii	"\016\020\020\020\376"
 2473      FE
ARM GAS  C:\Users\user\AppData\Local\Temp\ccKeU5r1.s 			page 59


 2474              		.section	.data.Num_5,"aw"
 2475              		.align	2
 2476              		.set	.LANCHOR48,. + 0
 2479              	Num_5:
 2480 0000 8E929292 		.ascii	"\216\222\222\222b"
 2480      62
 2481              		.section	.data.Num_6,"aw"
 2482              		.align	2
 2483              		.set	.LANCHOR49,. + 0
 2486              	Num_6:
 2487 0000 7C929292 		.ascii	"|\222\222\222d"
 2487      64
 2488              		.section	.data.Num_7,"aw"
 2489              		.align	2
 2490              		.set	.LANCHOR50,. + 0
 2493              	Num_7:
 2494 0000 0202F20A 		.ascii	"\002\002\362\012\006"
 2494      06
 2495              		.section	.data.Num_8,"aw"
 2496              		.align	2
 2497              		.set	.LANCHOR51,. + 0
 2500              	Num_8:
 2501 0000 6C929292 		.ascii	"l\222\222\222l"
 2501      6C
 2502              		.section	.data.Num_9,"aw"
 2503              		.align	2
 2504              		.set	.LANCHOR52,. + 0
 2507              	Num_9:
 2508 0000 4C929292 		.ascii	"L\222\222\222|"
 2508      7C
 2509              		.section	.data.Plus,"aw"
 2510              		.align	2
 2511              		.set	.LANCHOR37,. + 0
 2514              	Plus:
 2515 0000 10107C10 		.ascii	"\020\020|\020\020"
 2515      10
 2516              		.section	.data.Slash,"aw"
 2517              		.align	2
 2518              		.set	.LANCHOR39,. + 0
 2521              	Slash:
 2522 0000 40201008 		.ascii	"@ \020\010\004"
 2522      04
 2523              		.section	.data.Ukr_ch,"aw"
 2524              		.align	2
 2525              		.set	.LANCHOR36,. + 0
 2528              	Ukr_ch:
 2529 0000 18202020 		.ascii	"\030   \370"
 2529      F8
 2530              		.section	.data.Ukr_d,"aw"
 2531              		.align	2
 2532              		.set	.LANCHOR33,. + 0
 2535              	Ukr_d:
 2536 0000 C0784878 		.ascii	"\300xHx\300"
 2536      C0
 2537              		.section	.data.Ukr_g,"aw"
 2538              		.align	2
 2539              		.set	.LANCHOR35,. + 0
ARM GAS  C:\Users\user\AppData\Local\Temp\ccKeU5r1.s 			page 60


 2542              	Ukr_g:
 2543 0000 F8080808 		.ascii	"\370\010\010\010\000"
 2543      00
 2544              		.section	.data.Ukr_k,"aw"
 2545              		.align	2
 2546              		.set	.LANCHOR32,. + 0
 2549              	Ukr_k:
 2550 0000 F8205088 		.ascii	"\370 P\210\000"
 2550      00
 2551              		.section	.data.Ukr_m,"aw"
 2552              		.align	2
 2553              		.set	.LANCHOR31,. + 0
 2556              	Ukr_m:
 2557 0000 F8102010 		.ascii	"\370\020 \020\370"
 2557      F8
 2558              		.text
 2559              	.Letext0:
 2560              		.file 2 "c:\\users\\user\\appdata\\roaming\\code\\user\\globalstorage\\bmd.stm32-for-vscode\\@xpac
 2561              		.file 3 "c:\\users\\user\\appdata\\roaming\\code\\user\\globalstorage\\bmd.stm32-for-vscode\\@xpac
 2562              		.file 4 "Core/Src/NOS_LIB_Driver/Inc/NOS_Typedefs.h"
 2563              		.file 5 "Core/Src/NOS_LIB_Driver/Inc/CharLib(7x5).h"
 2564              		.file 6 "Core/Src/NOS_LIB_Driver/Inc/NOS_Math.h"
 2565              		.file 7 "<built-in>"
ARM GAS  C:\Users\user\AppData\Local\Temp\ccKeU5r1.s 			page 61

