ARM GAS  C:\Users\user\AppData\Local\Temp\ccdt2dNM.s 			page 1


   1              		.cpu cortex-m4
   2              		.eabi_attribute 27, 1
   3              		.eabi_attribute 28, 1
   4              		.eabi_attribute 20, 1
   5              		.eabi_attribute 21, 1
   6              		.eabi_attribute 23, 3
   7              		.eabi_attribute 24, 1
   8              		.eabi_attribute 25, 1
   9              		.eabi_attribute 26, 1
  10              		.eabi_attribute 30, 1
  11              		.eabi_attribute 34, 1
  12              		.eabi_attribute 18, 4
  13              		.file	"WS2812B.c"
  14              		.text
  15              	.Ltext0:
  16              		.cfi_sections	.debug_frame
  17              		.section	.text.NOS_WS2812B_Matrix_Init,"ax",%progbits
  18              		.align	1
  19              		.global	NOS_WS2812B_Matrix_Init
  20              		.arch armv7e-m
  21              		.syntax unified
  22              		.thumb
  23              		.thumb_func
  24              		.fpu fpv4-sp-d16
  26              	NOS_WS2812B_Matrix_Init:
  27              	.LVL0:
  28              	.LFB0:
  29              		.file 1 "Core/Src/NOS_LIB_Driver/Src/WS2812B.c"
   1:Core/Src/NOS_LIB_Driver/Src/WS2812B.c **** #include "WS2812B.h"
   2:Core/Src/NOS_LIB_Driver/Src/WS2812B.c **** #include "CharLib(7x5).h"
   3:Core/Src/NOS_LIB_Driver/Src/WS2812B.c **** #include <stdbool.h>
   4:Core/Src/NOS_LIB_Driver/Src/WS2812B.c **** #include "NOS_Math.h"
   5:Core/Src/NOS_LIB_Driver/Src/WS2812B.c **** 
   6:Core/Src/NOS_LIB_Driver/Src/WS2812B.c **** void NOS_WS2812B_Matrix_Init(WS2812B_Matrix* matrix,uint8_t* buff,uint16_t ledsCount)
   7:Core/Src/NOS_LIB_Driver/Src/WS2812B.c **** {
  30              		.loc 1 7 1 view -0
  31              		.cfi_startproc
  32              		@ args = 0, pretend = 0, frame = 0
  33              		@ frame_needed = 0, uses_anonymous_args = 0
  34              		@ link register save eliminated.
   8:Core/Src/NOS_LIB_Driver/Src/WS2812B.c ****      matrix->buffer = buff;
  35              		.loc 1 8 6 view .LVU1
  36              		.loc 1 8 21 is_stmt 0 view .LVU2
  37 0000 0160     		str	r1, [r0]
   9:Core/Src/NOS_LIB_Driver/Src/WS2812B.c ****      matrix->ledsCount.data = ledsCount;
  38              		.loc 1 9 6 is_stmt 1 view .LVU3
  39              		.loc 1 9 29 is_stmt 0 view .LVU4
  40 0002 8280     		strh	r2, [r0, #4]	@ movhi
  10:Core/Src/NOS_LIB_Driver/Src/WS2812B.c **** }
  41              		.loc 1 10 1 view .LVU5
  42 0004 7047     		bx	lr
  43              		.cfi_endproc
  44              	.LFE0:
  46              		.section	.text.NOS_WS2812B_Matrix_SetPixel,"ax",%progbits
  47              		.align	1
  48              		.global	NOS_WS2812B_Matrix_SetPixel
  49              		.syntax unified
ARM GAS  C:\Users\user\AppData\Local\Temp\ccdt2dNM.s 			page 2


  50              		.thumb
  51              		.thumb_func
  52              		.fpu fpv4-sp-d16
  54              	NOS_WS2812B_Matrix_SetPixel:
  55              	.LVL1:
  56              	.LFB1:
  11:Core/Src/NOS_LIB_Driver/Src/WS2812B.c **** 
  12:Core/Src/NOS_LIB_Driver/Src/WS2812B.c **** void NOS_WS2812B_Matrix_SetPixel(WS2812B_Matrix* matrix,PixelColor* color,uint16_t pixelPos)
  13:Core/Src/NOS_LIB_Driver/Src/WS2812B.c **** {
  57              		.loc 1 13 1 is_stmt 1 view -0
  58              		.cfi_startproc
  59              		@ args = 0, pretend = 0, frame = 0
  60              		@ frame_needed = 0, uses_anonymous_args = 0
  61              		@ link register save eliminated.
  62              		.loc 1 13 1 is_stmt 0 view .LVU7
  63 0000 10B4     		push	{r4}
  64              	.LCFI0:
  65              		.cfi_def_cfa_offset 4
  66              		.cfi_offset 4, -4
  14:Core/Src/NOS_LIB_Driver/Src/WS2812B.c ****     matrix->buffer[pixelPos * 3] = color->R;
  67              		.loc 1 14 5 is_stmt 1 view .LVU8
  68              		.loc 1 14 11 is_stmt 0 view .LVU9
  69 0002 0368     		ldr	r3, [r0]
  70              		.loc 1 14 29 view .LVU10
  71 0004 02EB4202 		add	r2, r2, r2, lsl #1
  72              	.LVL2:
  73              		.loc 1 14 41 view .LVU11
  74 0008 91F800C0 		ldrb	ip, [r1]	@ zero_extendqisi2
  75              		.loc 1 14 34 view .LVU12
  76 000c 03F802C0 		strb	ip, [r3, r2]
  15:Core/Src/NOS_LIB_Driver/Src/WS2812B.c ****     matrix->buffer[pixelPos * 3 + 1] = color->G;
  77              		.loc 1 15 5 is_stmt 1 view .LVU13
  78              		.loc 1 15 19 is_stmt 0 view .LVU14
  79 0010 531C     		adds	r3, r2, #1
  80              		.loc 1 15 45 view .LVU15
  81 0012 91F801C0 		ldrb	ip, [r1, #1]	@ zero_extendqisi2
  82              		.loc 1 15 38 view .LVU16
  83 0016 0468     		ldr	r4, [r0]
  84 0018 04F803C0 		strb	ip, [r4, r3]
  16:Core/Src/NOS_LIB_Driver/Src/WS2812B.c ****     matrix->buffer[pixelPos * 3 + 2] = color->B;
  85              		.loc 1 16 5 is_stmt 1 view .LVU17
  86              		.loc 1 16 11 is_stmt 0 view .LVU18
  87 001c 0368     		ldr	r3, [r0]
  88              		.loc 1 16 19 view .LVU19
  89 001e 0232     		adds	r2, r2, #2
  90              		.loc 1 16 45 view .LVU20
  91 0020 8978     		ldrb	r1, [r1, #2]	@ zero_extendqisi2
  92              	.LVL3:
  93              		.loc 1 16 38 view .LVU21
  94 0022 9954     		strb	r1, [r3, r2]
  17:Core/Src/NOS_LIB_Driver/Src/WS2812B.c **** }
  95              		.loc 1 17 1 view .LVU22
  96 0024 5DF8044B 		ldr	r4, [sp], #4
  97              	.LCFI1:
  98              		.cfi_restore 4
  99              		.cfi_def_cfa_offset 0
 100 0028 7047     		bx	lr
ARM GAS  C:\Users\user\AppData\Local\Temp\ccdt2dNM.s 			page 3


 101              		.cfi_endproc
 102              	.LFE1:
 104              		.section	.text.GetPixelPos,"ax",%progbits
 105              		.align	1
 106              		.global	GetPixelPos
 107              		.syntax unified
 108              		.thumb
 109              		.thumb_func
 110              		.fpu fpv4-sp-d16
 112              	GetPixelPos:
 113              	.LVL4:
 114              	.LFB2:
  18:Core/Src/NOS_LIB_Driver/Src/WS2812B.c **** 
  19:Core/Src/NOS_LIB_Driver/Src/WS2812B.c **** uint16_t GetPixelPos(uint8_t x, uint8_t y)
  20:Core/Src/NOS_LIB_Driver/Src/WS2812B.c **** {
 115              		.loc 1 20 1 is_stmt 1 view -0
 116              		.cfi_startproc
 117              		@ args = 0, pretend = 0, frame = 0
 118              		@ frame_needed = 0, uses_anonymous_args = 0
 119              		@ link register save eliminated.
  21:Core/Src/NOS_LIB_Driver/Src/WS2812B.c ****     if (x % 2 == 0)
 120              		.loc 1 21 5 view .LVU24
 121              		.loc 1 21 8 is_stmt 0 view .LVU25
 122 0000 10F0010F 		tst	r0, #1
 123 0004 02D1     		bne	.L5
  22:Core/Src/NOS_LIB_Driver/Src/WS2812B.c ****     {
  23:Core/Src/NOS_LIB_Driver/Src/WS2812B.c ****         return (x * 8) + y;
 124              		.loc 1 23 9 is_stmt 1 view .LVU26
 125              		.loc 1 23 24 is_stmt 0 view .LVU27
 126 0006 01EBC000 		add	r0, r1, r0, lsl #3
 127              	.LVL5:
 128              		.loc 1 23 24 view .LVU28
 129 000a 7047     		bx	lr
 130              	.LVL6:
 131              	.L5:
  24:Core/Src/NOS_LIB_Driver/Src/WS2812B.c ****     }
  25:Core/Src/NOS_LIB_Driver/Src/WS2812B.c ****     else
  26:Core/Src/NOS_LIB_Driver/Src/WS2812B.c ****     {
  27:Core/Src/NOS_LIB_Driver/Src/WS2812B.c ****         return(x * 8) + (8 - y);
 132              		.loc 1 27 9 is_stmt 1 view .LVU29
 133              		.loc 1 27 23 is_stmt 0 view .LVU30
 134 000c C1EBC000 		rsb	r0, r1, r0, lsl #3
 135              	.LVL7:
 136              		.loc 1 27 23 view .LVU31
 137 0010 0830     		adds	r0, r0, #8
 138 0012 80B2     		uxth	r0, r0
  28:Core/Src/NOS_LIB_Driver/Src/WS2812B.c ****     }
  29:Core/Src/NOS_LIB_Driver/Src/WS2812B.c **** }
 139              		.loc 1 29 1 view .LVU32
 140 0014 7047     		bx	lr
 141              		.cfi_endproc
 142              	.LFE2:
 144              		.section	.text.NOS_WS2812B_Matrix_Update,"ax",%progbits
 145              		.align	1
 146              		.global	NOS_WS2812B_Matrix_Update
 147              		.syntax unified
 148              		.thumb
ARM GAS  C:\Users\user\AppData\Local\Temp\ccdt2dNM.s 			page 4


 149              		.thumb_func
 150              		.fpu fpv4-sp-d16
 152              	NOS_WS2812B_Matrix_Update:
 153              	.LVL8:
 154              	.LFB3:
  30:Core/Src/NOS_LIB_Driver/Src/WS2812B.c **** 
  31:Core/Src/NOS_LIB_Driver/Src/WS2812B.c **** void NOS_WS2812B_Matrix_Update(WS2812B_Matrix* matrix,uint8_t offset)
  32:Core/Src/NOS_LIB_Driver/Src/WS2812B.c **** {
 155              		.loc 1 32 1 is_stmt 1 view -0
 156              		.cfi_startproc
 157              		@ args = 0, pretend = 0, frame = 0
 158              		@ frame_needed = 0, uses_anonymous_args = 0
 159              		.loc 1 32 1 is_stmt 0 view .LVU34
 160 0000 2DE9F84F 		push	{r3, r4, r5, r6, r7, r8, r9, r10, fp, lr}
 161              	.LCFI2:
 162              		.cfi_def_cfa_offset 40
 163              		.cfi_offset 3, -40
 164              		.cfi_offset 4, -36
 165              		.cfi_offset 5, -32
 166              		.cfi_offset 6, -28
 167              		.cfi_offset 7, -24
 168              		.cfi_offset 8, -20
 169              		.cfi_offset 9, -16
 170              		.cfi_offset 10, -12
 171              		.cfi_offset 11, -8
 172              		.cfi_offset 14, -4
 173 0004 0446     		mov	r4, r0
 174 0006 0846     		mov	r0, r1
 175              	.LVL9:
  33:Core/Src/NOS_LIB_Driver/Src/WS2812B.c ****      uint8_t currColumn = NOS_Math_NormalizeValue(offset,matrix->size->col);
 176              		.loc 1 33 6 is_stmt 1 view .LVU35
 177              		.loc 1 33 64 is_stmt 0 view .LVU36
 178 0008 A368     		ldr	r3, [r4, #8]
 179              		.loc 1 33 27 view .LVU37
 180 000a 1978     		ldrb	r1, [r3]	@ zero_extendqisi2
 181              	.LVL10:
 182              		.loc 1 33 27 view .LVU38
 183 000c FFF7FEFF 		bl	NOS_Math_NormalizeValue
 184              	.LVL11:
 185              		.loc 1 33 14 view .LVU39
 186 0010 C6B2     		uxtb	r6, r0
 187              	.LVL12:
  34:Core/Src/NOS_LIB_Driver/Src/WS2812B.c ****      uint8_t currByte = 0;
 188              		.loc 1 34 6 is_stmt 1 view .LVU40
  35:Core/Src/NOS_LIB_Driver/Src/WS2812B.c ****      bool bit = false;
 189              		.loc 1 35 6 view .LVU41
  36:Core/Src/NOS_LIB_Driver/Src/WS2812B.c ****      uint8_t symvolCount = matrix->size->col / 6;
 190              		.loc 1 36 6 view .LVU42
 191              		.loc 1 36 34 is_stmt 0 view .LVU43
 192 0012 A368     		ldr	r3, [r4, #8]
 193              		.loc 1 36 40 view .LVU44
 194 0014 93F800A0 		ldrb	r10, [r3]	@ zero_extendqisi2
 195              		.loc 1 36 14 view .LVU45
 196 0018 3B4B     		ldr	r3, .L27
 197 001a A3FB0A3A 		umull	r3, r10, r3, r10
 198 001e 4FEA9A0A 		lsr	r10, r10, #2
 199              	.LVL13:
ARM GAS  C:\Users\user\AppData\Local\Temp\ccdt2dNM.s 			page 5


  37:Core/Src/NOS_LIB_Driver/Src/WS2812B.c ****      symvolCount--;
 200              		.loc 1 37 6 is_stmt 1 view .LVU46
 201              		.loc 1 37 17 is_stmt 0 view .LVU47
 202 0022 0AF1FF3A 		add	r10, r10, #-1
 203              	.LVL14:
 204              		.loc 1 37 17 view .LVU48
 205 0026 5FFA8AFA 		uxtb	r10, r10
 206              	.LVL15:
  38:Core/Src/NOS_LIB_Driver/Src/WS2812B.c ****      int currX = 0;
 207              		.loc 1 38 6 is_stmt 1 view .LVU49
  39:Core/Src/NOS_LIB_Driver/Src/WS2812B.c **** 
  40:Core/Src/NOS_LIB_Driver/Src/WS2812B.c ****      for(int currSymvol = 0; currSymvol < symvolCount; currSymvol++)
 208              		.loc 1 40 6 view .LVU50
 209              	.LBB2:
 210              		.loc 1 40 10 view .LVU51
 211              		.loc 1 40 14 is_stmt 0 view .LVU52
 212 002a 4FF00009 		mov	r9, #0
 213              		.loc 1 40 6 view .LVU53
 214 002e 64E0     		b	.L8
 215              	.LVL16:
 216              	.L11:
 217              	.LBB3:
 218              	.LBB4:
  41:Core/Src/NOS_LIB_Driver/Src/WS2812B.c ****      {
  42:Core/Src/NOS_LIB_Driver/Src/WS2812B.c ****         for(int Column = 0; Column < 5 ; Column++)
  43:Core/Src/NOS_LIB_Driver/Src/WS2812B.c ****         {
  44:Core/Src/NOS_LIB_Driver/Src/WS2812B.c ****             currByte = matrix->symvols[currSymvol].data[Column];
  45:Core/Src/NOS_LIB_Driver/Src/WS2812B.c **** 
  46:Core/Src/NOS_LIB_Driver/Src/WS2812B.c ****             if(currColumn % 2 == 0)
  47:Core/Src/NOS_LIB_Driver/Src/WS2812B.c ****             {
  48:Core/Src/NOS_LIB_Driver/Src/WS2812B.c ****                currX = 0;
  49:Core/Src/NOS_LIB_Driver/Src/WS2812B.c ****                for(int currBit = 0; currBit < 8; currBit++)
  50:Core/Src/NOS_LIB_Driver/Src/WS2812B.c ****                {
  51:Core/Src/NOS_LIB_Driver/Src/WS2812B.c ****                    bit = ((1 << currBit) & currByte);
  52:Core/Src/NOS_LIB_Driver/Src/WS2812B.c **** 
  53:Core/Src/NOS_LIB_Driver/Src/WS2812B.c ****                    if(bit)
  54:Core/Src/NOS_LIB_Driver/Src/WS2812B.c ****                    {
  55:Core/Src/NOS_LIB_Driver/Src/WS2812B.c ****                        NOS_WS2812B_Matrix_SetPixel(matrix,matrix->textColor,GetPixelPos(currColumn,
  56:Core/Src/NOS_LIB_Driver/Src/WS2812B.c ****                    }
  57:Core/Src/NOS_LIB_Driver/Src/WS2812B.c ****                    else
  58:Core/Src/NOS_LIB_Driver/Src/WS2812B.c ****                    {
  59:Core/Src/NOS_LIB_Driver/Src/WS2812B.c ****                        NOS_WS2812B_Matrix_SetPixel(matrix,matrix->foneColor,GetPixelPos(currColumn,
 219              		.loc 1 59 24 is_stmt 1 view .LVU54
 220 0030 5FFA8BF1 		uxtb	r1, fp
 221 0034 3046     		mov	r0, r6
 222 0036 FFF7FEFF 		bl	GetPixelPos
 223              	.LVL17:
 224              		.loc 1 59 24 is_stmt 0 view .LVU55
 225 003a 0246     		mov	r2, r0
 226 003c 2169     		ldr	r1, [r4, #16]
 227 003e 2046     		mov	r0, r4
 228 0040 FFF7FEFF 		bl	NOS_WS2812B_Matrix_SetPixel
 229              	.LVL18:
 230              	.L12:
  60:Core/Src/NOS_LIB_Driver/Src/WS2812B.c ****                    }
  61:Core/Src/NOS_LIB_Driver/Src/WS2812B.c ****                    currX++;
 231              		.loc 1 61 20 is_stmt 1 discriminator 2 view .LVU56
ARM GAS  C:\Users\user\AppData\Local\Temp\ccdt2dNM.s 			page 6


 232              		.loc 1 61 25 is_stmt 0 discriminator 2 view .LVU57
 233 0044 0BF1010B 		add	fp, fp, #1
 234              	.LVL19:
  49:Core/Src/NOS_LIB_Driver/Src/WS2812B.c ****                {
 235              		.loc 1 49 50 is_stmt 1 discriminator 2 view .LVU58
  49:Core/Src/NOS_LIB_Driver/Src/WS2812B.c ****                {
 236              		.loc 1 49 57 is_stmt 0 discriminator 2 view .LVU59
 237 0048 0135     		adds	r5, r5, #1
 238              	.LVL20:
 239              	.L9:
  49:Core/Src/NOS_LIB_Driver/Src/WS2812B.c ****                {
 240              		.loc 1 49 37 is_stmt 1 discriminator 1 view .LVU60
  49:Core/Src/NOS_LIB_Driver/Src/WS2812B.c ****                {
 241              		.loc 1 49 16 is_stmt 0 discriminator 1 view .LVU61
 242 004a 072D     		cmp	r5, #7
 243 004c 2FDC     		bgt	.L14
  51:Core/Src/NOS_LIB_Driver/Src/WS2812B.c **** 
 244              		.loc 1 51 20 is_stmt 1 view .LVU62
  51:Core/Src/NOS_LIB_Driver/Src/WS2812B.c **** 
 245              		.loc 1 51 30 is_stmt 0 view .LVU63
 246 004e 0123     		movs	r3, #1
 247 0050 AB40     		lsls	r3, r3, r5
 248              	.LVL21:
  53:Core/Src/NOS_LIB_Driver/Src/WS2812B.c ****                    {
 249              		.loc 1 53 20 is_stmt 1 view .LVU64
  53:Core/Src/NOS_LIB_Driver/Src/WS2812B.c ****                    {
 250              		.loc 1 53 22 is_stmt 0 view .LVU65
 251 0052 1F42     		tst	r7, r3
 252 0054 ECD0     		beq	.L11
  55:Core/Src/NOS_LIB_Driver/Src/WS2812B.c ****                    }
 253              		.loc 1 55 24 is_stmt 1 view .LVU66
 254 0056 5FFA8BF1 		uxtb	r1, fp
 255 005a 3046     		mov	r0, r6
 256 005c FFF7FEFF 		bl	GetPixelPos
 257              	.LVL22:
  55:Core/Src/NOS_LIB_Driver/Src/WS2812B.c ****                    }
 258              		.loc 1 55 24 is_stmt 0 view .LVU67
 259 0060 0246     		mov	r2, r0
 260 0062 E168     		ldr	r1, [r4, #12]
 261 0064 2046     		mov	r0, r4
 262 0066 FFF7FEFF 		bl	NOS_WS2812B_Matrix_SetPixel
 263              	.LVL23:
 264 006a EBE7     		b	.L12
 265              	.LVL24:
 266              	.L22:
  49:Core/Src/NOS_LIB_Driver/Src/WS2812B.c ****                {
 267              		.loc 1 49 24 view .LVU68
 268 006c 0025     		movs	r5, #0
 269              	.LBE4:
  48:Core/Src/NOS_LIB_Driver/Src/WS2812B.c ****                for(int currBit = 0; currBit < 8; currBit++)
 270              		.loc 1 48 22 view .LVU69
 271 006e AB46     		mov	fp, r5
 272 0070 EBE7     		b	.L9
 273              	.LVL25:
 274              	.L15:
 275              	.LBB5:
  62:Core/Src/NOS_LIB_Driver/Src/WS2812B.c ****                 }
ARM GAS  C:\Users\user\AppData\Local\Temp\ccdt2dNM.s 			page 7


  63:Core/Src/NOS_LIB_Driver/Src/WS2812B.c ****             }
  64:Core/Src/NOS_LIB_Driver/Src/WS2812B.c ****             else
  65:Core/Src/NOS_LIB_Driver/Src/WS2812B.c ****             {
  66:Core/Src/NOS_LIB_Driver/Src/WS2812B.c ****                currX = 1;
  67:Core/Src/NOS_LIB_Driver/Src/WS2812B.c ****                for(int currBit = 0; currBit < 8; currBit++)
  68:Core/Src/NOS_LIB_Driver/Src/WS2812B.c ****                {
  69:Core/Src/NOS_LIB_Driver/Src/WS2812B.c ****                    bit = ((1 << currBit) & currByte);
  70:Core/Src/NOS_LIB_Driver/Src/WS2812B.c **** 
  71:Core/Src/NOS_LIB_Driver/Src/WS2812B.c ****                    if(bit)
  72:Core/Src/NOS_LIB_Driver/Src/WS2812B.c ****                    {
  73:Core/Src/NOS_LIB_Driver/Src/WS2812B.c ****                        NOS_WS2812B_Matrix_SetPixel(matrix,matrix->textColor,GetPixelPos(currColumn,
  74:Core/Src/NOS_LIB_Driver/Src/WS2812B.c ****                    }
  75:Core/Src/NOS_LIB_Driver/Src/WS2812B.c ****                    else
  76:Core/Src/NOS_LIB_Driver/Src/WS2812B.c ****                    {
  77:Core/Src/NOS_LIB_Driver/Src/WS2812B.c ****                        NOS_WS2812B_Matrix_SetPixel(matrix,matrix->foneColor,GetPixelPos(currColumn,
 276              		.loc 1 77 24 is_stmt 1 view .LVU70
 277 0072 5FFA8BF1 		uxtb	r1, fp
 278 0076 3046     		mov	r0, r6
 279 0078 FFF7FEFF 		bl	GetPixelPos
 280              	.LVL26:
 281              		.loc 1 77 24 is_stmt 0 view .LVU71
 282 007c 0246     		mov	r2, r0
 283 007e 2169     		ldr	r1, [r4, #16]
 284 0080 2046     		mov	r0, r4
 285 0082 FFF7FEFF 		bl	NOS_WS2812B_Matrix_SetPixel
 286              	.LVL27:
 287              	.L16:
  78:Core/Src/NOS_LIB_Driver/Src/WS2812B.c ****                    }
  79:Core/Src/NOS_LIB_Driver/Src/WS2812B.c ****                    currX++;
 288              		.loc 1 79 20 is_stmt 1 discriminator 2 view .LVU72
 289              		.loc 1 79 25 is_stmt 0 discriminator 2 view .LVU73
 290 0086 0BF1010B 		add	fp, fp, #1
 291              	.LVL28:
  67:Core/Src/NOS_LIB_Driver/Src/WS2812B.c ****                {
 292              		.loc 1 67 50 is_stmt 1 discriminator 2 view .LVU74
  67:Core/Src/NOS_LIB_Driver/Src/WS2812B.c ****                {
 293              		.loc 1 67 57 is_stmt 0 discriminator 2 view .LVU75
 294 008a 0135     		adds	r5, r5, #1
 295              	.LVL29:
 296              	.L10:
  67:Core/Src/NOS_LIB_Driver/Src/WS2812B.c ****                {
 297              		.loc 1 67 37 is_stmt 1 discriminator 1 view .LVU76
  67:Core/Src/NOS_LIB_Driver/Src/WS2812B.c ****                {
 298              		.loc 1 67 16 is_stmt 0 discriminator 1 view .LVU77
 299 008c 072D     		cmp	r5, #7
 300 008e 0EDC     		bgt	.L14
  69:Core/Src/NOS_LIB_Driver/Src/WS2812B.c **** 
 301              		.loc 1 69 20 is_stmt 1 view .LVU78
  69:Core/Src/NOS_LIB_Driver/Src/WS2812B.c **** 
 302              		.loc 1 69 30 is_stmt 0 view .LVU79
 303 0090 0123     		movs	r3, #1
 304 0092 AB40     		lsls	r3, r3, r5
 305              	.LVL30:
  71:Core/Src/NOS_LIB_Driver/Src/WS2812B.c ****                    {
 306              		.loc 1 71 20 is_stmt 1 view .LVU80
  71:Core/Src/NOS_LIB_Driver/Src/WS2812B.c ****                    {
 307              		.loc 1 71 22 is_stmt 0 view .LVU81
ARM GAS  C:\Users\user\AppData\Local\Temp\ccdt2dNM.s 			page 8


 308 0094 1F42     		tst	r7, r3
 309 0096 ECD0     		beq	.L15
  73:Core/Src/NOS_LIB_Driver/Src/WS2812B.c ****                    }
 310              		.loc 1 73 24 is_stmt 1 view .LVU82
 311 0098 5FFA8BF1 		uxtb	r1, fp
 312 009c 3046     		mov	r0, r6
 313 009e FFF7FEFF 		bl	GetPixelPos
 314              	.LVL31:
  73:Core/Src/NOS_LIB_Driver/Src/WS2812B.c ****                    }
 315              		.loc 1 73 24 is_stmt 0 view .LVU83
 316 00a2 0246     		mov	r2, r0
 317 00a4 E168     		ldr	r1, [r4, #12]
 318 00a6 2046     		mov	r0, r4
 319 00a8 FFF7FEFF 		bl	NOS_WS2812B_Matrix_SetPixel
 320              	.LVL32:
 321 00ac EBE7     		b	.L16
 322              	.LVL33:
 323              	.L14:
  73:Core/Src/NOS_LIB_Driver/Src/WS2812B.c ****                    }
 324              		.loc 1 73 24 view .LVU84
 325              	.LBE5:
  80:Core/Src/NOS_LIB_Driver/Src/WS2812B.c ****                 }
  81:Core/Src/NOS_LIB_Driver/Src/WS2812B.c **** 
  82:Core/Src/NOS_LIB_Driver/Src/WS2812B.c ****             }
  83:Core/Src/NOS_LIB_Driver/Src/WS2812B.c ****             currColumn++;
 326              		.loc 1 83 13 is_stmt 1 discriminator 2 view .LVU85
 327              		.loc 1 83 23 is_stmt 0 discriminator 2 view .LVU86
 328 00ae 0136     		adds	r6, r6, #1
 329              	.LVL34:
 330              		.loc 1 83 23 discriminator 2 view .LVU87
 331 00b0 F6B2     		uxtb	r6, r6
 332              	.LVL35:
  42:Core/Src/NOS_LIB_Driver/Src/WS2812B.c ****         {
 333              		.loc 1 42 42 is_stmt 1 discriminator 2 view .LVU88
  42:Core/Src/NOS_LIB_Driver/Src/WS2812B.c ****         {
 334              		.loc 1 42 48 is_stmt 0 discriminator 2 view .LVU89
 335 00b2 08F10108 		add	r8, r8, #1
 336              	.LVL36:
 337              	.L21:
  42:Core/Src/NOS_LIB_Driver/Src/WS2812B.c ****         {
 338              		.loc 1 42 29 is_stmt 1 discriminator 1 view .LVU90
  42:Core/Src/NOS_LIB_Driver/Src/WS2812B.c ****         {
 339              		.loc 1 42 9 is_stmt 0 discriminator 1 view .LVU91
 340 00b6 B8F1040F 		cmp	r8, #4
 341 00ba 0CDC     		bgt	.L25
  44:Core/Src/NOS_LIB_Driver/Src/WS2812B.c **** 
 342              		.loc 1 44 13 is_stmt 1 view .LVU92
  44:Core/Src/NOS_LIB_Driver/Src/WS2812B.c **** 
 343              		.loc 1 44 30 is_stmt 0 view .LVU93
 344 00bc 6369     		ldr	r3, [r4, #20]
  44:Core/Src/NOS_LIB_Driver/Src/WS2812B.c **** 
 345              		.loc 1 44 39 view .LVU94
 346 00be 09EB8902 		add	r2, r9, r9, lsl #2
 347 00c2 1344     		add	r3, r3, r2
  44:Core/Src/NOS_LIB_Driver/Src/WS2812B.c **** 
 348              		.loc 1 44 22 view .LVU95
 349 00c4 13F80870 		ldrb	r7, [r3, r8]	@ zero_extendqisi2
ARM GAS  C:\Users\user\AppData\Local\Temp\ccdt2dNM.s 			page 9


 350              	.LVL37:
  46:Core/Src/NOS_LIB_Driver/Src/WS2812B.c ****             {
 351              		.loc 1 46 13 is_stmt 1 view .LVU96
  46:Core/Src/NOS_LIB_Driver/Src/WS2812B.c ****             {
 352              		.loc 1 46 15 is_stmt 0 view .LVU97
 353 00c8 16F0010F 		tst	r6, #1
 354 00cc CED0     		beq	.L22
 355              	.LBB6:
  67:Core/Src/NOS_LIB_Driver/Src/WS2812B.c ****                {
 356              		.loc 1 67 24 view .LVU98
 357 00ce 0025     		movs	r5, #0
 358              	.LBE6:
  66:Core/Src/NOS_LIB_Driver/Src/WS2812B.c ****                for(int currBit = 0; currBit < 8; currBit++)
 359              		.loc 1 66 22 view .LVU99
 360 00d0 4FF0010B 		mov	fp, #1
 361 00d4 DAE7     		b	.L10
 362              	.LVL38:
 363              	.L25:
  66:Core/Src/NOS_LIB_Driver/Src/WS2812B.c ****                for(int currBit = 0; currBit < 8; currBit++)
 364              		.loc 1 66 22 view .LVU100
 365              	.LBE3:
 366              	.LBB7:
  84:Core/Src/NOS_LIB_Driver/Src/WS2812B.c ****         }
  85:Core/Src/NOS_LIB_Driver/Src/WS2812B.c **** 
  86:Core/Src/NOS_LIB_Driver/Src/WS2812B.c ****         for(int i = 1; i < 9; i++)
 367              		.loc 1 86 17 view .LVU101
 368 00d6 0125     		movs	r5, #1
 369 00d8 09E0     		b	.L19
 370              	.LVL39:
 371              	.L20:
  87:Core/Src/NOS_LIB_Driver/Src/WS2812B.c ****         {
  88:Core/Src/NOS_LIB_Driver/Src/WS2812B.c ****             NOS_WS2812B_Matrix_SetPixel(matrix,matrix->foneColor,GetPixelPos(currColumn,i));
 372              		.loc 1 88 13 is_stmt 1 discriminator 3 view .LVU102
 373 00da E9B2     		uxtb	r1, r5
 374 00dc 3046     		mov	r0, r6
 375 00de FFF7FEFF 		bl	GetPixelPos
 376              	.LVL40:
 377 00e2 0246     		mov	r2, r0
 378 00e4 2169     		ldr	r1, [r4, #16]
 379 00e6 2046     		mov	r0, r4
 380 00e8 FFF7FEFF 		bl	NOS_WS2812B_Matrix_SetPixel
 381              	.LVL41:
  86:Core/Src/NOS_LIB_Driver/Src/WS2812B.c ****         {
 382              		.loc 1 86 31 discriminator 3 view .LVU103
  86:Core/Src/NOS_LIB_Driver/Src/WS2812B.c ****         {
 383              		.loc 1 86 32 is_stmt 0 discriminator 3 view .LVU104
 384 00ec 0135     		adds	r5, r5, #1
 385              	.LVL42:
 386              	.L19:
  86:Core/Src/NOS_LIB_Driver/Src/WS2812B.c ****         {
 387              		.loc 1 86 24 is_stmt 1 discriminator 1 view .LVU105
  86:Core/Src/NOS_LIB_Driver/Src/WS2812B.c ****         {
 388              		.loc 1 86 9 is_stmt 0 discriminator 1 view .LVU106
 389 00ee 082D     		cmp	r5, #8
 390 00f0 F3DD     		ble	.L20
 391              	.LBE7:
  89:Core/Src/NOS_LIB_Driver/Src/WS2812B.c ****         }
ARM GAS  C:\Users\user\AppData\Local\Temp\ccdt2dNM.s 			page 10


  90:Core/Src/NOS_LIB_Driver/Src/WS2812B.c ****         currColumn++;
 392              		.loc 1 90 9 is_stmt 1 discriminator 2 view .LVU107
 393              		.loc 1 90 19 is_stmt 0 discriminator 2 view .LVU108
 394 00f2 0136     		adds	r6, r6, #1
 395              	.LVL43:
 396              		.loc 1 90 19 discriminator 2 view .LVU109
 397 00f4 F6B2     		uxtb	r6, r6
 398              	.LVL44:
  40:Core/Src/NOS_LIB_Driver/Src/WS2812B.c ****      {
 399              		.loc 1 40 56 is_stmt 1 discriminator 2 view .LVU110
  40:Core/Src/NOS_LIB_Driver/Src/WS2812B.c ****      {
 400              		.loc 1 40 66 is_stmt 0 discriminator 2 view .LVU111
 401 00f6 09F10109 		add	r9, r9, #1
 402              	.LVL45:
 403              	.L8:
  40:Core/Src/NOS_LIB_Driver/Src/WS2812B.c ****      {
 404              		.loc 1 40 30 is_stmt 1 discriminator 1 view .LVU112
  40:Core/Src/NOS_LIB_Driver/Src/WS2812B.c ****      {
 405              		.loc 1 40 6 is_stmt 0 discriminator 1 view .LVU113
 406 00fa CA45     		cmp	r10, r9
 407 00fc 02DD     		ble	.L26
 408              	.LBB8:
  42:Core/Src/NOS_LIB_Driver/Src/WS2812B.c ****         {
 409              		.loc 1 42 17 view .LVU114
 410 00fe 4FF00008 		mov	r8, #0
 411 0102 D8E7     		b	.L21
 412              	.L26:
 413              	.LBE8:
 414              	.LBE2:
  91:Core/Src/NOS_LIB_Driver/Src/WS2812B.c ****      }
  92:Core/Src/NOS_LIB_Driver/Src/WS2812B.c **** }
 415              		.loc 1 92 1 view .LVU115
 416 0104 BDE8F88F 		pop	{r3, r4, r5, r6, r7, r8, r9, r10, fp, pc}
 417              	.LVL46:
 418              	.L28:
 419              		.loc 1 92 1 view .LVU116
 420              		.align	2
 421              	.L27:
 422 0108 ABAAAAAA 		.word	-1431655765
 423              		.cfi_endproc
 424              	.LFE3:
 426              		.section	.text.Symvol_GetBitMap,"ax",%progbits
 427              		.align	1
 428              		.global	Symvol_GetBitMap
 429              		.syntax unified
 430              		.thumb
 431              		.thumb_func
 432              		.fpu fpv4-sp-d16
 434              	Symvol_GetBitMap:
 435              	.LVL47:
 436              	.LFB8:
  93:Core/Src/NOS_LIB_Driver/Src/WS2812B.c **** 
  94:Core/Src/NOS_LIB_Driver/Src/WS2812B.c **** void NOS_WS2812B_Matrix_SetSymvol(WS2812B_Matrix* matrix,char sym,uint8_t pos)
  95:Core/Src/NOS_LIB_Driver/Src/WS2812B.c **** {
  96:Core/Src/NOS_LIB_Driver/Src/WS2812B.c ****     uint8_t* buff = Symvol_GetBitMap(sym);
  97:Core/Src/NOS_LIB_Driver/Src/WS2812B.c ****     for(int i = 0; i < 5; i++)
  98:Core/Src/NOS_LIB_Driver/Src/WS2812B.c ****     {
ARM GAS  C:\Users\user\AppData\Local\Temp\ccdt2dNM.s 			page 11


  99:Core/Src/NOS_LIB_Driver/Src/WS2812B.c ****         matrix->symvols[pos].data[i] = buff[i];
 100:Core/Src/NOS_LIB_Driver/Src/WS2812B.c ****     }
 101:Core/Src/NOS_LIB_Driver/Src/WS2812B.c **** }
 102:Core/Src/NOS_LIB_Driver/Src/WS2812B.c **** 
 103:Core/Src/NOS_LIB_Driver/Src/WS2812B.c **** void NOS_WS2812B_Matrix_PrintStaticString(WS2812B_Matrix* matrix,char string[],uint8_t startpos,uin
 104:Core/Src/NOS_LIB_Driver/Src/WS2812B.c **** {
 105:Core/Src/NOS_LIB_Driver/Src/WS2812B.c ****     for(int i = startpos; i < startpos + lenght; i++)
 106:Core/Src/NOS_LIB_Driver/Src/WS2812B.c ****     {
 107:Core/Src/NOS_LIB_Driver/Src/WS2812B.c ****         NOS_WS2812B_Matrix_SetSymvol(matrix,string[i - startpos],i);
 108:Core/Src/NOS_LIB_Driver/Src/WS2812B.c ****     }
 109:Core/Src/NOS_LIB_Driver/Src/WS2812B.c **** }
 110:Core/Src/NOS_LIB_Driver/Src/WS2812B.c **** 
 111:Core/Src/NOS_LIB_Driver/Src/WS2812B.c **** void NOS_WS2812B_Matrix_PrintIntNumber(WS2812B_Matrix* matrix,int num,uint8_t startpos,uint8_t leng
 112:Core/Src/NOS_LIB_Driver/Src/WS2812B.c **** {
 113:Core/Src/NOS_LIB_Driver/Src/WS2812B.c **** 
 114:Core/Src/NOS_LIB_Driver/Src/WS2812B.c ****     int probe = 10;
 115:Core/Src/NOS_LIB_Driver/Src/WS2812B.c ****     int a = 0;
 116:Core/Src/NOS_LIB_Driver/Src/WS2812B.c ****     int power = 1;
 117:Core/Src/NOS_LIB_Driver/Src/WS2812B.c ****     char buff[16];
 118:Core/Src/NOS_LIB_Driver/Src/WS2812B.c **** 
 119:Core/Src/NOS_LIB_Driver/Src/WS2812B.c ****     while (num > probe)
 120:Core/Src/NOS_LIB_Driver/Src/WS2812B.c ****     {
 121:Core/Src/NOS_LIB_Driver/Src/WS2812B.c ****         power++;
 122:Core/Src/NOS_LIB_Driver/Src/WS2812B.c ****         probe = probe * 10;
 123:Core/Src/NOS_LIB_Driver/Src/WS2812B.c ****     }
 124:Core/Src/NOS_LIB_Driver/Src/WS2812B.c **** 
 125:Core/Src/NOS_LIB_Driver/Src/WS2812B.c **** 
 126:Core/Src/NOS_LIB_Driver/Src/WS2812B.c ****     for (int i = power - 1; i > 0; i--)
 127:Core/Src/NOS_LIB_Driver/Src/WS2812B.c ****     {
 128:Core/Src/NOS_LIB_Driver/Src/WS2812B.c ****         buff[a] = num / pow(10,i);
 129:Core/Src/NOS_LIB_Driver/Src/WS2812B.c ****         num = num - (buff[a] * pow(10,i));
 130:Core/Src/NOS_LIB_Driver/Src/WS2812B.c ****         a++;
 131:Core/Src/NOS_LIB_Driver/Src/WS2812B.c ****     }
 132:Core/Src/NOS_LIB_Driver/Src/WS2812B.c **** 
 133:Core/Src/NOS_LIB_Driver/Src/WS2812B.c ****     buff[a] = num % 10;
 134:Core/Src/NOS_LIB_Driver/Src/WS2812B.c **** 
 135:Core/Src/NOS_LIB_Driver/Src/WS2812B.c ****     for(int i = 0; i < a + 1; i++)
 136:Core/Src/NOS_LIB_Driver/Src/WS2812B.c ****     {
 137:Core/Src/NOS_LIB_Driver/Src/WS2812B.c ****         buff[i] += 48;
 138:Core/Src/NOS_LIB_Driver/Src/WS2812B.c ****         NOS_WS2812B_Matrix_SetSymvol(matrix,buff[i],i + startpos);
 139:Core/Src/NOS_LIB_Driver/Src/WS2812B.c ****     }
 140:Core/Src/NOS_LIB_Driver/Src/WS2812B.c **** }
 141:Core/Src/NOS_LIB_Driver/Src/WS2812B.c **** 
 142:Core/Src/NOS_LIB_Driver/Src/WS2812B.c **** void NOS_WS2812B_Matrix_PrintFloatNumber(WS2812B_Matrix* matrix,float num,uint8_t startpos,uint8_t 
 143:Core/Src/NOS_LIB_Driver/Src/WS2812B.c **** {
 144:Core/Src/NOS_LIB_Driver/Src/WS2812B.c ****     int before = num;
 145:Core/Src/NOS_LIB_Driver/Src/WS2812B.c ****     float after = num - (float)before;
 146:Core/Src/NOS_LIB_Driver/Src/WS2812B.c ****     int af = after * 100;
 147:Core/Src/NOS_LIB_Driver/Src/WS2812B.c **** 
 148:Core/Src/NOS_LIB_Driver/Src/WS2812B.c ****     NOS_WS2812B_Matrix_PrintIntNumber(matrix,before,startpos,2);
 149:Core/Src/NOS_LIB_Driver/Src/WS2812B.c ****     NOS_WS2812B_Matrix_PrintStaticString(matrix,".",startpos + 2,1);
 150:Core/Src/NOS_LIB_Driver/Src/WS2812B.c ****     NOS_WS2812B_Matrix_PrintIntNumber(matrix,af,startpos+ 3,2);
 151:Core/Src/NOS_LIB_Driver/Src/WS2812B.c **** }
 152:Core/Src/NOS_LIB_Driver/Src/WS2812B.c **** 
 153:Core/Src/NOS_LIB_Driver/Src/WS2812B.c **** uint8_t* Symvol_GetBitMap(char sym)
 154:Core/Src/NOS_LIB_Driver/Src/WS2812B.c **** {
 437              		.loc 1 154 1 is_stmt 1 view -0
ARM GAS  C:\Users\user\AppData\Local\Temp\ccdt2dNM.s 			page 12


 438              		.cfi_startproc
 439              		@ args = 0, pretend = 0, frame = 0
 440              		@ frame_needed = 0, uses_anonymous_args = 0
 441              		@ link register save eliminated.
 155:Core/Src/NOS_LIB_Driver/Src/WS2812B.c ****     switch (sym)
 442              		.loc 1 155 5 view .LVU118
 443 0000 2038     		subs	r0, r0, #32
 444              	.LVL48:
 445              		.loc 1 155 5 is_stmt 0 view .LVU119
 446 0002 3A28     		cmp	r0, #58
 447 0004 71D8     		bhi	.L30
 448 0006 DFE800F0 		tbb	[pc, r0]
 449              	.L32:
 450 000a 50       		.byte	(.L73-.L32)/2
 451 000b 70       		.byte	(.L30-.L32)/2
 452 000c 70       		.byte	(.L30-.L32)/2
 453 000d 70       		.byte	(.L30-.L32)/2
 454 000e 70       		.byte	(.L30-.L32)/2
 455 000f 70       		.byte	(.L30-.L32)/2
 456 0010 70       		.byte	(.L30-.L32)/2
 457 0011 70       		.byte	(.L30-.L32)/2
 458 0012 70       		.byte	(.L30-.L32)/2
 459 0013 70       		.byte	(.L30-.L32)/2
 460 0014 58       		.byte	(.L72-.L32)/2
 461 0015 52       		.byte	(.L71-.L32)/2
 462 0016 70       		.byte	(.L30-.L32)/2
 463 0017 54       		.byte	(.L70-.L32)/2
 464 0018 5A       		.byte	(.L69-.L32)/2
 465 0019 56       		.byte	(.L68-.L32)/2
 466 001a 5C       		.byte	(.L67-.L32)/2
 467 001b 5E       		.byte	(.L66-.L32)/2
 468 001c 60       		.byte	(.L65-.L32)/2
 469 001d 62       		.byte	(.L64-.L32)/2
 470 001e 64       		.byte	(.L63-.L32)/2
 471 001f 66       		.byte	(.L62-.L32)/2
 472 0020 68       		.byte	(.L61-.L32)/2
 473 0021 6A       		.byte	(.L60-.L32)/2
 474 0022 6C       		.byte	(.L59-.L32)/2
 475 0023 6E       		.byte	(.L58-.L32)/2
 476 0024 70       		.byte	(.L30-.L32)/2
 477 0025 70       		.byte	(.L30-.L32)/2
 478 0026 70       		.byte	(.L30-.L32)/2
 479 0027 70       		.byte	(.L30-.L32)/2
 480 0028 70       		.byte	(.L30-.L32)/2
 481 0029 70       		.byte	(.L30-.L32)/2
 482 002a 70       		.byte	(.L30-.L32)/2
 483 002b 1E       		.byte	(.L57-.L32)/2
 484 002c 72       		.byte	(.L74-.L32)/2
 485 002d 20       		.byte	(.L55-.L32)/2
 486 002e 22       		.byte	(.L54-.L32)/2
 487 002f 24       		.byte	(.L53-.L32)/2
 488 0030 26       		.byte	(.L52-.L32)/2
 489 0031 28       		.byte	(.L51-.L32)/2
 490 0032 2A       		.byte	(.L50-.L32)/2
 491 0033 2C       		.byte	(.L49-.L32)/2
 492 0034 2E       		.byte	(.L48-.L32)/2
 493 0035 30       		.byte	(.L47-.L32)/2
ARM GAS  C:\Users\user\AppData\Local\Temp\ccdt2dNM.s 			page 13


 494 0036 32       		.byte	(.L46-.L32)/2
 495 0037 34       		.byte	(.L45-.L32)/2
 496 0038 36       		.byte	(.L44-.L32)/2
 497 0039 38       		.byte	(.L43-.L32)/2
 498 003a 3A       		.byte	(.L42-.L32)/2
 499 003b 3C       		.byte	(.L41-.L32)/2
 500 003c 3E       		.byte	(.L40-.L32)/2
 501 003d 40       		.byte	(.L39-.L32)/2
 502 003e 42       		.byte	(.L38-.L32)/2
 503 003f 44       		.byte	(.L37-.L32)/2
 504 0040 46       		.byte	(.L36-.L32)/2
 505 0041 48       		.byte	(.L35-.L32)/2
 506 0042 4A       		.byte	(.L34-.L32)/2
 507 0043 4C       		.byte	(.L33-.L32)/2
 508 0044 4E       		.byte	(.L31-.L32)/2
 509 0045 00       		.p2align 1
 510              	.L57:
 156:Core/Src/NOS_LIB_Driver/Src/WS2812B.c ****     {
 157:Core/Src/NOS_LIB_Driver/Src/WS2812B.c **** /* English upper case */
 158:Core/Src/NOS_LIB_Driver/Src/WS2812B.c **** case 'A':
 159:Core/Src/NOS_LIB_Driver/Src/WS2812B.c ****     return Eng_A;
 160:Core/Src/NOS_LIB_Driver/Src/WS2812B.c ****     break;
 161:Core/Src/NOS_LIB_Driver/Src/WS2812B.c **** case 'B':
 162:Core/Src/NOS_LIB_Driver/Src/WS2812B.c ****     return Eng_B;
 163:Core/Src/NOS_LIB_Driver/Src/WS2812B.c ****     break;
 164:Core/Src/NOS_LIB_Driver/Src/WS2812B.c **** case 'C':
 165:Core/Src/NOS_LIB_Driver/Src/WS2812B.c ****     return Eng_C;
 166:Core/Src/NOS_LIB_Driver/Src/WS2812B.c ****     break;
 167:Core/Src/NOS_LIB_Driver/Src/WS2812B.c **** case 'D':
 168:Core/Src/NOS_LIB_Driver/Src/WS2812B.c ****     return Eng_D;
 169:Core/Src/NOS_LIB_Driver/Src/WS2812B.c ****     break;
 170:Core/Src/NOS_LIB_Driver/Src/WS2812B.c **** case 'E':
 171:Core/Src/NOS_LIB_Driver/Src/WS2812B.c ****     return Eng_E;
 172:Core/Src/NOS_LIB_Driver/Src/WS2812B.c ****     break;
 173:Core/Src/NOS_LIB_Driver/Src/WS2812B.c **** case 'F':
 174:Core/Src/NOS_LIB_Driver/Src/WS2812B.c ****     return Eng_F;
 175:Core/Src/NOS_LIB_Driver/Src/WS2812B.c ****     break;
 176:Core/Src/NOS_LIB_Driver/Src/WS2812B.c **** case 'G':
 177:Core/Src/NOS_LIB_Driver/Src/WS2812B.c ****     return Eng_G;
 178:Core/Src/NOS_LIB_Driver/Src/WS2812B.c ****     break;
 179:Core/Src/NOS_LIB_Driver/Src/WS2812B.c **** case 'H':
 180:Core/Src/NOS_LIB_Driver/Src/WS2812B.c ****     return Eng_H;
 181:Core/Src/NOS_LIB_Driver/Src/WS2812B.c ****     break;
 182:Core/Src/NOS_LIB_Driver/Src/WS2812B.c **** case 'I':
 183:Core/Src/NOS_LIB_Driver/Src/WS2812B.c ****     return Eng_I;
 184:Core/Src/NOS_LIB_Driver/Src/WS2812B.c ****     break;
 185:Core/Src/NOS_LIB_Driver/Src/WS2812B.c **** case 'J':
 186:Core/Src/NOS_LIB_Driver/Src/WS2812B.c ****     return Eng_J;
 187:Core/Src/NOS_LIB_Driver/Src/WS2812B.c ****     break;
 188:Core/Src/NOS_LIB_Driver/Src/WS2812B.c **** case 'K':
 189:Core/Src/NOS_LIB_Driver/Src/WS2812B.c ****     return Eng_K;
 190:Core/Src/NOS_LIB_Driver/Src/WS2812B.c ****     break;
 191:Core/Src/NOS_LIB_Driver/Src/WS2812B.c **** case 'L':
 192:Core/Src/NOS_LIB_Driver/Src/WS2812B.c ****     return Eng_L;
 193:Core/Src/NOS_LIB_Driver/Src/WS2812B.c ****     break;
 194:Core/Src/NOS_LIB_Driver/Src/WS2812B.c **** case 'M':
 195:Core/Src/NOS_LIB_Driver/Src/WS2812B.c ****     return Eng_M;
ARM GAS  C:\Users\user\AppData\Local\Temp\ccdt2dNM.s 			page 14


 196:Core/Src/NOS_LIB_Driver/Src/WS2812B.c ****     break;
 197:Core/Src/NOS_LIB_Driver/Src/WS2812B.c **** case 'N':
 198:Core/Src/NOS_LIB_Driver/Src/WS2812B.c ****     return Eng_N;
 199:Core/Src/NOS_LIB_Driver/Src/WS2812B.c ****     break;
 200:Core/Src/NOS_LIB_Driver/Src/WS2812B.c **** case 'O':
 201:Core/Src/NOS_LIB_Driver/Src/WS2812B.c ****     return Eng_O;
 202:Core/Src/NOS_LIB_Driver/Src/WS2812B.c ****     break;
 203:Core/Src/NOS_LIB_Driver/Src/WS2812B.c **** case 'P':
 204:Core/Src/NOS_LIB_Driver/Src/WS2812B.c ****     return Eng_P;
 205:Core/Src/NOS_LIB_Driver/Src/WS2812B.c ****     break;
 206:Core/Src/NOS_LIB_Driver/Src/WS2812B.c **** case 'Q':
 207:Core/Src/NOS_LIB_Driver/Src/WS2812B.c ****     return Eng_Q;
 208:Core/Src/NOS_LIB_Driver/Src/WS2812B.c ****     break;
 209:Core/Src/NOS_LIB_Driver/Src/WS2812B.c **** case 'R':
 210:Core/Src/NOS_LIB_Driver/Src/WS2812B.c ****     return Eng_R;
 211:Core/Src/NOS_LIB_Driver/Src/WS2812B.c ****     break;
 212:Core/Src/NOS_LIB_Driver/Src/WS2812B.c **** case 'S':
 213:Core/Src/NOS_LIB_Driver/Src/WS2812B.c ****     return Eng_S;
 214:Core/Src/NOS_LIB_Driver/Src/WS2812B.c ****     break;
 215:Core/Src/NOS_LIB_Driver/Src/WS2812B.c **** case 'T':
 216:Core/Src/NOS_LIB_Driver/Src/WS2812B.c ****     return Eng_T;
 217:Core/Src/NOS_LIB_Driver/Src/WS2812B.c ****     break;
 218:Core/Src/NOS_LIB_Driver/Src/WS2812B.c **** case 'U':
 219:Core/Src/NOS_LIB_Driver/Src/WS2812B.c ****     return Eng_U;
 220:Core/Src/NOS_LIB_Driver/Src/WS2812B.c ****     break;
 221:Core/Src/NOS_LIB_Driver/Src/WS2812B.c **** case 'V':
 222:Core/Src/NOS_LIB_Driver/Src/WS2812B.c ****     return Eng_V;
 223:Core/Src/NOS_LIB_Driver/Src/WS2812B.c ****     break;
 224:Core/Src/NOS_LIB_Driver/Src/WS2812B.c **** case 'W':
 225:Core/Src/NOS_LIB_Driver/Src/WS2812B.c ****     return Eng_W;
 226:Core/Src/NOS_LIB_Driver/Src/WS2812B.c ****     break;
 227:Core/Src/NOS_LIB_Driver/Src/WS2812B.c **** case 'X':
 228:Core/Src/NOS_LIB_Driver/Src/WS2812B.c ****     return Eng_X;
 229:Core/Src/NOS_LIB_Driver/Src/WS2812B.c ****     break;
 230:Core/Src/NOS_LIB_Driver/Src/WS2812B.c **** case 'Y':
 231:Core/Src/NOS_LIB_Driver/Src/WS2812B.c ****     return Eng_Y;
 232:Core/Src/NOS_LIB_Driver/Src/WS2812B.c ****     break;
 233:Core/Src/NOS_LIB_Driver/Src/WS2812B.c **** case 'Z':
 234:Core/Src/NOS_LIB_Driver/Src/WS2812B.c ****     return Eng_Z;
 235:Core/Src/NOS_LIB_Driver/Src/WS2812B.c ****     break;
 236:Core/Src/NOS_LIB_Driver/Src/WS2812B.c **** /* English upper case */
 237:Core/Src/NOS_LIB_Driver/Src/WS2812B.c **** 
 238:Core/Src/NOS_LIB_Driver/Src/WS2812B.c **** /* Special symvols */
 239:Core/Src/NOS_LIB_Driver/Src/WS2812B.c **** case ' ':
 240:Core/Src/NOS_LIB_Driver/Src/WS2812B.c ****     return Space;
 241:Core/Src/NOS_LIB_Driver/Src/WS2812B.c ****     break;
 242:Core/Src/NOS_LIB_Driver/Src/WS2812B.c **** case '+':
 243:Core/Src/NOS_LIB_Driver/Src/WS2812B.c ****     return Plus;
 244:Core/Src/NOS_LIB_Driver/Src/WS2812B.c ****     break;
 245:Core/Src/NOS_LIB_Driver/Src/WS2812B.c **** case '-':
 246:Core/Src/NOS_LIB_Driver/Src/WS2812B.c ****     return Minus;
 247:Core/Src/NOS_LIB_Driver/Src/WS2812B.c ****     break;    
 248:Core/Src/NOS_LIB_Driver/Src/WS2812B.c **** case '/':
 249:Core/Src/NOS_LIB_Driver/Src/WS2812B.c ****     return Slash;
 250:Core/Src/NOS_LIB_Driver/Src/WS2812B.c ****     break;
 251:Core/Src/NOS_LIB_Driver/Src/WS2812B.c **** case '*':
 252:Core/Src/NOS_LIB_Driver/Src/WS2812B.c ****     return Celcium;
ARM GAS  C:\Users\user\AppData\Local\Temp\ccdt2dNM.s 			page 15


 253:Core/Src/NOS_LIB_Driver/Src/WS2812B.c ****     break;
 254:Core/Src/NOS_LIB_Driver/Src/WS2812B.c **** case '.':
 255:Core/Src/NOS_LIB_Driver/Src/WS2812B.c ****     return Dot;
 256:Core/Src/NOS_LIB_Driver/Src/WS2812B.c ****     break;
 257:Core/Src/NOS_LIB_Driver/Src/WS2812B.c **** 
 258:Core/Src/NOS_LIB_Driver/Src/WS2812B.c **** 
 259:Core/Src/NOS_LIB_Driver/Src/WS2812B.c **** /* Special symvols */
 260:Core/Src/NOS_LIB_Driver/Src/WS2812B.c **** 
 261:Core/Src/NOS_LIB_Driver/Src/WS2812B.c **** /* Numbers */
 262:Core/Src/NOS_LIB_Driver/Src/WS2812B.c **** case '0':
 263:Core/Src/NOS_LIB_Driver/Src/WS2812B.c ****     return Num_0;
 264:Core/Src/NOS_LIB_Driver/Src/WS2812B.c ****     break;
 265:Core/Src/NOS_LIB_Driver/Src/WS2812B.c ****     case '1':
 266:Core/Src/NOS_LIB_Driver/Src/WS2812B.c ****     return Num_1;
 267:Core/Src/NOS_LIB_Driver/Src/WS2812B.c ****     break;
 268:Core/Src/NOS_LIB_Driver/Src/WS2812B.c ****     case '2':
 269:Core/Src/NOS_LIB_Driver/Src/WS2812B.c ****     return Num_2;
 270:Core/Src/NOS_LIB_Driver/Src/WS2812B.c ****     break;
 271:Core/Src/NOS_LIB_Driver/Src/WS2812B.c ****     case '3':
 272:Core/Src/NOS_LIB_Driver/Src/WS2812B.c ****     return Num_3;
 273:Core/Src/NOS_LIB_Driver/Src/WS2812B.c ****     break;
 274:Core/Src/NOS_LIB_Driver/Src/WS2812B.c ****     case '4':
 275:Core/Src/NOS_LIB_Driver/Src/WS2812B.c ****     return Num_4;
 276:Core/Src/NOS_LIB_Driver/Src/WS2812B.c ****     break;
 277:Core/Src/NOS_LIB_Driver/Src/WS2812B.c ****     case '5':
 278:Core/Src/NOS_LIB_Driver/Src/WS2812B.c ****     return Num_5;
 279:Core/Src/NOS_LIB_Driver/Src/WS2812B.c ****     break;
 280:Core/Src/NOS_LIB_Driver/Src/WS2812B.c ****     case '6':
 281:Core/Src/NOS_LIB_Driver/Src/WS2812B.c ****     return Num_6;
 282:Core/Src/NOS_LIB_Driver/Src/WS2812B.c ****     break;
 283:Core/Src/NOS_LIB_Driver/Src/WS2812B.c ****     case '7':
 284:Core/Src/NOS_LIB_Driver/Src/WS2812B.c ****     return Num_7;
 285:Core/Src/NOS_LIB_Driver/Src/WS2812B.c ****     break;
 286:Core/Src/NOS_LIB_Driver/Src/WS2812B.c ****     case '8':
 287:Core/Src/NOS_LIB_Driver/Src/WS2812B.c ****     return Num_8;
 288:Core/Src/NOS_LIB_Driver/Src/WS2812B.c ****     break;
 289:Core/Src/NOS_LIB_Driver/Src/WS2812B.c ****     case '9':
 290:Core/Src/NOS_LIB_Driver/Src/WS2812B.c ****     return Num_9;
 511              		.loc 1 290 12 view .LVU120
 512 0046 2B48     		ldr	r0, .L75
 513 0048 7047     		bx	lr
 514              	.L55:
 163:Core/Src/NOS_LIB_Driver/Src/WS2812B.c **** case 'C':
 515              		.loc 1 163 5 is_stmt 1 view .LVU121
 165:Core/Src/NOS_LIB_Driver/Src/WS2812B.c ****     break;
 516              		.loc 1 165 5 view .LVU122
 165:Core/Src/NOS_LIB_Driver/Src/WS2812B.c ****     break;
 517              		.loc 1 165 12 is_stmt 0 view .LVU123
 518 004a 2B48     		ldr	r0, .L75+4
 519 004c 7047     		bx	lr
 520              	.L54:
 166:Core/Src/NOS_LIB_Driver/Src/WS2812B.c **** case 'D':
 521              		.loc 1 166 5 is_stmt 1 view .LVU124
 168:Core/Src/NOS_LIB_Driver/Src/WS2812B.c ****     break;
 522              		.loc 1 168 5 view .LVU125
 168:Core/Src/NOS_LIB_Driver/Src/WS2812B.c ****     break;
 523              		.loc 1 168 12 is_stmt 0 view .LVU126
ARM GAS  C:\Users\user\AppData\Local\Temp\ccdt2dNM.s 			page 16


 524 004e 2B48     		ldr	r0, .L75+8
 525 0050 7047     		bx	lr
 526              	.L53:
 169:Core/Src/NOS_LIB_Driver/Src/WS2812B.c **** case 'E':
 527              		.loc 1 169 5 is_stmt 1 view .LVU127
 171:Core/Src/NOS_LIB_Driver/Src/WS2812B.c ****     break;
 528              		.loc 1 171 5 view .LVU128
 171:Core/Src/NOS_LIB_Driver/Src/WS2812B.c ****     break;
 529              		.loc 1 171 12 is_stmt 0 view .LVU129
 530 0052 2B48     		ldr	r0, .L75+12
 531 0054 7047     		bx	lr
 532              	.L52:
 172:Core/Src/NOS_LIB_Driver/Src/WS2812B.c **** case 'F':
 533              		.loc 1 172 5 is_stmt 1 view .LVU130
 174:Core/Src/NOS_LIB_Driver/Src/WS2812B.c ****     break;
 534              		.loc 1 174 5 view .LVU131
 174:Core/Src/NOS_LIB_Driver/Src/WS2812B.c ****     break;
 535              		.loc 1 174 12 is_stmt 0 view .LVU132
 536 0056 2B48     		ldr	r0, .L75+16
 537 0058 7047     		bx	lr
 538              	.L51:
 175:Core/Src/NOS_LIB_Driver/Src/WS2812B.c **** case 'G':
 539              		.loc 1 175 5 is_stmt 1 view .LVU133
 177:Core/Src/NOS_LIB_Driver/Src/WS2812B.c ****     break;
 540              		.loc 1 177 5 view .LVU134
 177:Core/Src/NOS_LIB_Driver/Src/WS2812B.c ****     break;
 541              		.loc 1 177 12 is_stmt 0 view .LVU135
 542 005a 2B48     		ldr	r0, .L75+20
 543 005c 7047     		bx	lr
 544              	.L50:
 178:Core/Src/NOS_LIB_Driver/Src/WS2812B.c **** case 'H':
 545              		.loc 1 178 5 is_stmt 1 view .LVU136
 180:Core/Src/NOS_LIB_Driver/Src/WS2812B.c ****     break;
 546              		.loc 1 180 5 view .LVU137
 180:Core/Src/NOS_LIB_Driver/Src/WS2812B.c ****     break;
 547              		.loc 1 180 12 is_stmt 0 view .LVU138
 548 005e 2B48     		ldr	r0, .L75+24
 549 0060 7047     		bx	lr
 550              	.L49:
 181:Core/Src/NOS_LIB_Driver/Src/WS2812B.c **** case 'I':
 551              		.loc 1 181 5 is_stmt 1 view .LVU139
 183:Core/Src/NOS_LIB_Driver/Src/WS2812B.c ****     break;
 552              		.loc 1 183 5 view .LVU140
 183:Core/Src/NOS_LIB_Driver/Src/WS2812B.c ****     break;
 553              		.loc 1 183 12 is_stmt 0 view .LVU141
 554 0062 2B48     		ldr	r0, .L75+28
 555 0064 7047     		bx	lr
 556              	.L48:
 184:Core/Src/NOS_LIB_Driver/Src/WS2812B.c **** case 'J':
 557              		.loc 1 184 5 is_stmt 1 view .LVU142
 186:Core/Src/NOS_LIB_Driver/Src/WS2812B.c ****     break;
 558              		.loc 1 186 5 view .LVU143
 186:Core/Src/NOS_LIB_Driver/Src/WS2812B.c ****     break;
 559              		.loc 1 186 12 is_stmt 0 view .LVU144
 560 0066 2B48     		ldr	r0, .L75+32
 561 0068 7047     		bx	lr
 562              	.L47:
ARM GAS  C:\Users\user\AppData\Local\Temp\ccdt2dNM.s 			page 17


 187:Core/Src/NOS_LIB_Driver/Src/WS2812B.c **** case 'K':
 563              		.loc 1 187 5 is_stmt 1 view .LVU145
 189:Core/Src/NOS_LIB_Driver/Src/WS2812B.c ****     break;
 564              		.loc 1 189 5 view .LVU146
 189:Core/Src/NOS_LIB_Driver/Src/WS2812B.c ****     break;
 565              		.loc 1 189 12 is_stmt 0 view .LVU147
 566 006a 2B48     		ldr	r0, .L75+36
 567 006c 7047     		bx	lr
 568              	.L46:
 190:Core/Src/NOS_LIB_Driver/Src/WS2812B.c **** case 'L':
 569              		.loc 1 190 5 is_stmt 1 view .LVU148
 192:Core/Src/NOS_LIB_Driver/Src/WS2812B.c ****     break;
 570              		.loc 1 192 5 view .LVU149
 192:Core/Src/NOS_LIB_Driver/Src/WS2812B.c ****     break;
 571              		.loc 1 192 12 is_stmt 0 view .LVU150
 572 006e 2B48     		ldr	r0, .L75+40
 573 0070 7047     		bx	lr
 574              	.L45:
 193:Core/Src/NOS_LIB_Driver/Src/WS2812B.c **** case 'M':
 575              		.loc 1 193 5 is_stmt 1 view .LVU151
 195:Core/Src/NOS_LIB_Driver/Src/WS2812B.c ****     break;
 576              		.loc 1 195 5 view .LVU152
 195:Core/Src/NOS_LIB_Driver/Src/WS2812B.c ****     break;
 577              		.loc 1 195 12 is_stmt 0 view .LVU153
 578 0072 2B48     		ldr	r0, .L75+44
 579 0074 7047     		bx	lr
 580              	.L44:
 196:Core/Src/NOS_LIB_Driver/Src/WS2812B.c **** case 'N':
 581              		.loc 1 196 5 is_stmt 1 view .LVU154
 198:Core/Src/NOS_LIB_Driver/Src/WS2812B.c ****     break;
 582              		.loc 1 198 5 view .LVU155
 198:Core/Src/NOS_LIB_Driver/Src/WS2812B.c ****     break;
 583              		.loc 1 198 12 is_stmt 0 view .LVU156
 584 0076 2B48     		ldr	r0, .L75+48
 585 0078 7047     		bx	lr
 586              	.L43:
 199:Core/Src/NOS_LIB_Driver/Src/WS2812B.c **** case 'O':
 587              		.loc 1 199 5 is_stmt 1 view .LVU157
 201:Core/Src/NOS_LIB_Driver/Src/WS2812B.c ****     break;
 588              		.loc 1 201 5 view .LVU158
 201:Core/Src/NOS_LIB_Driver/Src/WS2812B.c ****     break;
 589              		.loc 1 201 12 is_stmt 0 view .LVU159
 590 007a 2B48     		ldr	r0, .L75+52
 591 007c 7047     		bx	lr
 592              	.L42:
 202:Core/Src/NOS_LIB_Driver/Src/WS2812B.c **** case 'P':
 593              		.loc 1 202 5 is_stmt 1 view .LVU160
 204:Core/Src/NOS_LIB_Driver/Src/WS2812B.c ****     break;
 594              		.loc 1 204 5 view .LVU161
 204:Core/Src/NOS_LIB_Driver/Src/WS2812B.c ****     break;
 595              		.loc 1 204 12 is_stmt 0 view .LVU162
 596 007e 2B48     		ldr	r0, .L75+56
 597 0080 7047     		bx	lr
 598              	.L41:
 205:Core/Src/NOS_LIB_Driver/Src/WS2812B.c **** case 'Q':
 599              		.loc 1 205 5 is_stmt 1 view .LVU163
 207:Core/Src/NOS_LIB_Driver/Src/WS2812B.c ****     break;
ARM GAS  C:\Users\user\AppData\Local\Temp\ccdt2dNM.s 			page 18


 600              		.loc 1 207 5 view .LVU164
 207:Core/Src/NOS_LIB_Driver/Src/WS2812B.c ****     break;
 601              		.loc 1 207 12 is_stmt 0 view .LVU165
 602 0082 2B48     		ldr	r0, .L75+60
 603 0084 7047     		bx	lr
 604              	.L40:
 208:Core/Src/NOS_LIB_Driver/Src/WS2812B.c **** case 'R':
 605              		.loc 1 208 5 is_stmt 1 view .LVU166
 210:Core/Src/NOS_LIB_Driver/Src/WS2812B.c ****     break;
 606              		.loc 1 210 5 view .LVU167
 210:Core/Src/NOS_LIB_Driver/Src/WS2812B.c ****     break;
 607              		.loc 1 210 12 is_stmt 0 view .LVU168
 608 0086 2B48     		ldr	r0, .L75+64
 609 0088 7047     		bx	lr
 610              	.L39:
 211:Core/Src/NOS_LIB_Driver/Src/WS2812B.c **** case 'S':
 611              		.loc 1 211 5 is_stmt 1 view .LVU169
 213:Core/Src/NOS_LIB_Driver/Src/WS2812B.c ****     break;
 612              		.loc 1 213 5 view .LVU170
 213:Core/Src/NOS_LIB_Driver/Src/WS2812B.c ****     break;
 613              		.loc 1 213 12 is_stmt 0 view .LVU171
 614 008a 2B48     		ldr	r0, .L75+68
 615 008c 7047     		bx	lr
 616              	.L38:
 214:Core/Src/NOS_LIB_Driver/Src/WS2812B.c **** case 'T':
 617              		.loc 1 214 5 is_stmt 1 view .LVU172
 216:Core/Src/NOS_LIB_Driver/Src/WS2812B.c ****     break;
 618              		.loc 1 216 5 view .LVU173
 216:Core/Src/NOS_LIB_Driver/Src/WS2812B.c ****     break;
 619              		.loc 1 216 12 is_stmt 0 view .LVU174
 620 008e 2B48     		ldr	r0, .L75+72
 621 0090 7047     		bx	lr
 622              	.L37:
 217:Core/Src/NOS_LIB_Driver/Src/WS2812B.c **** case 'U':
 623              		.loc 1 217 5 is_stmt 1 view .LVU175
 219:Core/Src/NOS_LIB_Driver/Src/WS2812B.c ****     break;
 624              		.loc 1 219 5 view .LVU176
 219:Core/Src/NOS_LIB_Driver/Src/WS2812B.c ****     break;
 625              		.loc 1 219 12 is_stmt 0 view .LVU177
 626 0092 2B48     		ldr	r0, .L75+76
 627 0094 7047     		bx	lr
 628              	.L36:
 220:Core/Src/NOS_LIB_Driver/Src/WS2812B.c **** case 'V':
 629              		.loc 1 220 5 is_stmt 1 view .LVU178
 222:Core/Src/NOS_LIB_Driver/Src/WS2812B.c ****     break;
 630              		.loc 1 222 5 view .LVU179
 222:Core/Src/NOS_LIB_Driver/Src/WS2812B.c ****     break;
 631              		.loc 1 222 12 is_stmt 0 view .LVU180
 632 0096 2B48     		ldr	r0, .L75+80
 633 0098 7047     		bx	lr
 634              	.L35:
 223:Core/Src/NOS_LIB_Driver/Src/WS2812B.c **** case 'W':
 635              		.loc 1 223 5 is_stmt 1 view .LVU181
 225:Core/Src/NOS_LIB_Driver/Src/WS2812B.c ****     break;
 636              		.loc 1 225 5 view .LVU182
 225:Core/Src/NOS_LIB_Driver/Src/WS2812B.c ****     break;
 637              		.loc 1 225 12 is_stmt 0 view .LVU183
ARM GAS  C:\Users\user\AppData\Local\Temp\ccdt2dNM.s 			page 19


 638 009a 2B48     		ldr	r0, .L75+84
 639 009c 7047     		bx	lr
 640              	.L34:
 226:Core/Src/NOS_LIB_Driver/Src/WS2812B.c **** case 'X':
 641              		.loc 1 226 5 is_stmt 1 view .LVU184
 228:Core/Src/NOS_LIB_Driver/Src/WS2812B.c ****     break;
 642              		.loc 1 228 5 view .LVU185
 228:Core/Src/NOS_LIB_Driver/Src/WS2812B.c ****     break;
 643              		.loc 1 228 12 is_stmt 0 view .LVU186
 644 009e 2B48     		ldr	r0, .L75+88
 645 00a0 7047     		bx	lr
 646              	.L33:
 229:Core/Src/NOS_LIB_Driver/Src/WS2812B.c **** case 'Y':
 647              		.loc 1 229 5 is_stmt 1 view .LVU187
 231:Core/Src/NOS_LIB_Driver/Src/WS2812B.c ****     break;
 648              		.loc 1 231 5 view .LVU188
 231:Core/Src/NOS_LIB_Driver/Src/WS2812B.c ****     break;
 649              		.loc 1 231 12 is_stmt 0 view .LVU189
 650 00a2 2B48     		ldr	r0, .L75+92
 651 00a4 7047     		bx	lr
 652              	.L31:
 232:Core/Src/NOS_LIB_Driver/Src/WS2812B.c **** case 'Z':
 653              		.loc 1 232 5 is_stmt 1 view .LVU190
 234:Core/Src/NOS_LIB_Driver/Src/WS2812B.c ****     break;
 654              		.loc 1 234 5 view .LVU191
 234:Core/Src/NOS_LIB_Driver/Src/WS2812B.c ****     break;
 655              		.loc 1 234 12 is_stmt 0 view .LVU192
 656 00a6 2B48     		ldr	r0, .L75+96
 657 00a8 7047     		bx	lr
 658              	.L73:
 235:Core/Src/NOS_LIB_Driver/Src/WS2812B.c **** /* English upper case */
 659              		.loc 1 235 5 is_stmt 1 view .LVU193
 240:Core/Src/NOS_LIB_Driver/Src/WS2812B.c ****     break;
 660              		.loc 1 240 5 view .LVU194
 240:Core/Src/NOS_LIB_Driver/Src/WS2812B.c ****     break;
 661              		.loc 1 240 12 is_stmt 0 view .LVU195
 662 00aa 2B48     		ldr	r0, .L75+100
 663 00ac 7047     		bx	lr
 664              	.L71:
 241:Core/Src/NOS_LIB_Driver/Src/WS2812B.c **** case '+':
 665              		.loc 1 241 5 is_stmt 1 view .LVU196
 243:Core/Src/NOS_LIB_Driver/Src/WS2812B.c ****     break;
 666              		.loc 1 243 5 view .LVU197
 243:Core/Src/NOS_LIB_Driver/Src/WS2812B.c ****     break;
 667              		.loc 1 243 12 is_stmt 0 view .LVU198
 668 00ae 2B48     		ldr	r0, .L75+104
 669 00b0 7047     		bx	lr
 670              	.L70:
 244:Core/Src/NOS_LIB_Driver/Src/WS2812B.c **** case '-':
 671              		.loc 1 244 5 is_stmt 1 view .LVU199
 246:Core/Src/NOS_LIB_Driver/Src/WS2812B.c ****     break;    
 672              		.loc 1 246 5 view .LVU200
 246:Core/Src/NOS_LIB_Driver/Src/WS2812B.c ****     break;    
 673              		.loc 1 246 12 is_stmt 0 view .LVU201
 674 00b2 2B48     		ldr	r0, .L75+108
 675 00b4 7047     		bx	lr
 676              	.L68:
ARM GAS  C:\Users\user\AppData\Local\Temp\ccdt2dNM.s 			page 20


 247:Core/Src/NOS_LIB_Driver/Src/WS2812B.c **** case '/':
 677              		.loc 1 247 5 is_stmt 1 view .LVU202
 249:Core/Src/NOS_LIB_Driver/Src/WS2812B.c ****     break;
 678              		.loc 1 249 5 view .LVU203
 249:Core/Src/NOS_LIB_Driver/Src/WS2812B.c ****     break;
 679              		.loc 1 249 12 is_stmt 0 view .LVU204
 680 00b6 2B48     		ldr	r0, .L75+112
 681 00b8 7047     		bx	lr
 682              	.L72:
 250:Core/Src/NOS_LIB_Driver/Src/WS2812B.c **** case '*':
 683              		.loc 1 250 5 is_stmt 1 view .LVU205
 252:Core/Src/NOS_LIB_Driver/Src/WS2812B.c ****     break;
 684              		.loc 1 252 5 view .LVU206
 252:Core/Src/NOS_LIB_Driver/Src/WS2812B.c ****     break;
 685              		.loc 1 252 12 is_stmt 0 view .LVU207
 686 00ba 2B48     		ldr	r0, .L75+116
 687 00bc 7047     		bx	lr
 688              	.L69:
 253:Core/Src/NOS_LIB_Driver/Src/WS2812B.c **** case '.':
 689              		.loc 1 253 5 is_stmt 1 view .LVU208
 255:Core/Src/NOS_LIB_Driver/Src/WS2812B.c ****     break;
 690              		.loc 1 255 5 view .LVU209
 255:Core/Src/NOS_LIB_Driver/Src/WS2812B.c ****     break;
 691              		.loc 1 255 12 is_stmt 0 view .LVU210
 692 00be 2B48     		ldr	r0, .L75+120
 693 00c0 7047     		bx	lr
 694              	.L67:
 256:Core/Src/NOS_LIB_Driver/Src/WS2812B.c **** 
 695              		.loc 1 256 5 is_stmt 1 view .LVU211
 263:Core/Src/NOS_LIB_Driver/Src/WS2812B.c ****     break;
 696              		.loc 1 263 5 view .LVU212
 263:Core/Src/NOS_LIB_Driver/Src/WS2812B.c ****     break;
 697              		.loc 1 263 12 is_stmt 0 view .LVU213
 698 00c2 2B48     		ldr	r0, .L75+124
 699 00c4 7047     		bx	lr
 700              	.L66:
 264:Core/Src/NOS_LIB_Driver/Src/WS2812B.c ****     case '1':
 701              		.loc 1 264 5 is_stmt 1 view .LVU214
 266:Core/Src/NOS_LIB_Driver/Src/WS2812B.c ****     break;
 702              		.loc 1 266 5 view .LVU215
 266:Core/Src/NOS_LIB_Driver/Src/WS2812B.c ****     break;
 703              		.loc 1 266 12 is_stmt 0 view .LVU216
 704 00c6 2B48     		ldr	r0, .L75+128
 705 00c8 7047     		bx	lr
 706              	.L65:
 267:Core/Src/NOS_LIB_Driver/Src/WS2812B.c ****     case '2':
 707              		.loc 1 267 5 is_stmt 1 view .LVU217
 269:Core/Src/NOS_LIB_Driver/Src/WS2812B.c ****     break;
 708              		.loc 1 269 5 view .LVU218
 269:Core/Src/NOS_LIB_Driver/Src/WS2812B.c ****     break;
 709              		.loc 1 269 12 is_stmt 0 view .LVU219
 710 00ca 2B48     		ldr	r0, .L75+132
 711 00cc 7047     		bx	lr
 712              	.L64:
 270:Core/Src/NOS_LIB_Driver/Src/WS2812B.c ****     case '3':
 713              		.loc 1 270 5 is_stmt 1 view .LVU220
 272:Core/Src/NOS_LIB_Driver/Src/WS2812B.c ****     break;
ARM GAS  C:\Users\user\AppData\Local\Temp\ccdt2dNM.s 			page 21


 714              		.loc 1 272 5 view .LVU221
 272:Core/Src/NOS_LIB_Driver/Src/WS2812B.c ****     break;
 715              		.loc 1 272 12 is_stmt 0 view .LVU222
 716 00ce 2B48     		ldr	r0, .L75+136
 717 00d0 7047     		bx	lr
 718              	.L63:
 273:Core/Src/NOS_LIB_Driver/Src/WS2812B.c ****     case '4':
 719              		.loc 1 273 5 is_stmt 1 view .LVU223
 275:Core/Src/NOS_LIB_Driver/Src/WS2812B.c ****     break;
 720              		.loc 1 275 5 view .LVU224
 275:Core/Src/NOS_LIB_Driver/Src/WS2812B.c ****     break;
 721              		.loc 1 275 12 is_stmt 0 view .LVU225
 722 00d2 2B48     		ldr	r0, .L75+140
 723 00d4 7047     		bx	lr
 724              	.L62:
 276:Core/Src/NOS_LIB_Driver/Src/WS2812B.c ****     case '5':
 725              		.loc 1 276 5 is_stmt 1 view .LVU226
 278:Core/Src/NOS_LIB_Driver/Src/WS2812B.c ****     break;
 726              		.loc 1 278 5 view .LVU227
 278:Core/Src/NOS_LIB_Driver/Src/WS2812B.c ****     break;
 727              		.loc 1 278 12 is_stmt 0 view .LVU228
 728 00d6 2B48     		ldr	r0, .L75+144
 729 00d8 7047     		bx	lr
 730              	.L61:
 279:Core/Src/NOS_LIB_Driver/Src/WS2812B.c ****     case '6':
 731              		.loc 1 279 5 is_stmt 1 view .LVU229
 281:Core/Src/NOS_LIB_Driver/Src/WS2812B.c ****     break;
 732              		.loc 1 281 5 view .LVU230
 281:Core/Src/NOS_LIB_Driver/Src/WS2812B.c ****     break;
 733              		.loc 1 281 12 is_stmt 0 view .LVU231
 734 00da 2B48     		ldr	r0, .L75+148
 735 00dc 7047     		bx	lr
 736              	.L60:
 282:Core/Src/NOS_LIB_Driver/Src/WS2812B.c ****     case '7':
 737              		.loc 1 282 5 is_stmt 1 view .LVU232
 284:Core/Src/NOS_LIB_Driver/Src/WS2812B.c ****     break;
 738              		.loc 1 284 5 view .LVU233
 284:Core/Src/NOS_LIB_Driver/Src/WS2812B.c ****     break;
 739              		.loc 1 284 12 is_stmt 0 view .LVU234
 740 00de 2B48     		ldr	r0, .L75+152
 741 00e0 7047     		bx	lr
 742              	.L59:
 285:Core/Src/NOS_LIB_Driver/Src/WS2812B.c ****     case '8':
 743              		.loc 1 285 5 is_stmt 1 view .LVU235
 287:Core/Src/NOS_LIB_Driver/Src/WS2812B.c ****     break;
 744              		.loc 1 287 5 view .LVU236
 287:Core/Src/NOS_LIB_Driver/Src/WS2812B.c ****     break;
 745              		.loc 1 287 12 is_stmt 0 view .LVU237
 746 00e2 2B48     		ldr	r0, .L75+156
 747 00e4 7047     		bx	lr
 748              	.L58:
 288:Core/Src/NOS_LIB_Driver/Src/WS2812B.c ****     case '9':
 749              		.loc 1 288 5 is_stmt 1 view .LVU238
 750              		.loc 1 290 5 view .LVU239
 751              		.loc 1 290 12 is_stmt 0 view .LVU240
 752 00e6 2B48     		ldr	r0, .L75+160
 753 00e8 7047     		bx	lr
ARM GAS  C:\Users\user\AppData\Local\Temp\ccdt2dNM.s 			page 22


 754              	.L30:
 291:Core/Src/NOS_LIB_Driver/Src/WS2812B.c ****     break;
 755              		.loc 1 291 5 is_stmt 1 view .LVU241
 292:Core/Src/NOS_LIB_Driver/Src/WS2812B.c **** /* Numbers */
 293:Core/Src/NOS_LIB_Driver/Src/WS2812B.c **** 
 294:Core/Src/NOS_LIB_Driver/Src/WS2812B.c ****     default:
 295:Core/Src/NOS_LIB_Driver/Src/WS2812B.c ****     return 0;
 756              		.loc 1 295 5 view .LVU242
 757              		.loc 1 295 12 is_stmt 0 view .LVU243
 758 00ea 0020     		movs	r0, #0
 759 00ec 7047     		bx	lr
 760              	.L74:
 162:Core/Src/NOS_LIB_Driver/Src/WS2812B.c ****     break;
 761              		.loc 1 162 12 view .LVU244
 762 00ee 2A48     		ldr	r0, .L75+164
 296:Core/Src/NOS_LIB_Driver/Src/WS2812B.c ****         break;
 763              		.loc 1 296 9 is_stmt 1 view .LVU245
 297:Core/Src/NOS_LIB_Driver/Src/WS2812B.c ****     }
 298:Core/Src/NOS_LIB_Driver/Src/WS2812B.c **** }
 764              		.loc 1 298 1 is_stmt 0 view .LVU246
 765 00f0 7047     		bx	lr
 766              	.L76:
 767 00f2 00BF     		.align	2
 768              	.L75:
 769 00f4 00000000 		.word	.LANCHOR41
 770 00f8 00000000 		.word	.LANCHOR1
 771 00fc 00000000 		.word	.LANCHOR2
 772 0100 00000000 		.word	.LANCHOR3
 773 0104 00000000 		.word	.LANCHOR4
 774 0108 00000000 		.word	.LANCHOR5
 775 010c 00000000 		.word	.LANCHOR6
 776 0110 00000000 		.word	.LANCHOR7
 777 0114 00000000 		.word	.LANCHOR8
 778 0118 00000000 		.word	.LANCHOR9
 779 011c 00000000 		.word	.LANCHOR10
 780 0120 00000000 		.word	.LANCHOR11
 781 0124 00000000 		.word	.LANCHOR12
 782 0128 00000000 		.word	.LANCHOR13
 783 012c 00000000 		.word	.LANCHOR14
 784 0130 00000000 		.word	.LANCHOR15
 785 0134 00000000 		.word	.LANCHOR16
 786 0138 00000000 		.word	.LANCHOR17
 787 013c 00000000 		.word	.LANCHOR18
 788 0140 00000000 		.word	.LANCHOR19
 789 0144 00000000 		.word	.LANCHOR20
 790 0148 00000000 		.word	.LANCHOR21
 791 014c 00000000 		.word	.LANCHOR22
 792 0150 00000000 		.word	.LANCHOR23
 793 0154 00000000 		.word	.LANCHOR24
 794 0158 00000000 		.word	.LANCHOR25
 795 015c 00000000 		.word	.LANCHOR26
 796 0160 00000000 		.word	.LANCHOR27
 797 0164 00000000 		.word	.LANCHOR28
 798 0168 00000000 		.word	.LANCHOR29
 799 016c 00000000 		.word	.LANCHOR30
 800 0170 00000000 		.word	.LANCHOR31
 801 0174 00000000 		.word	.LANCHOR32
ARM GAS  C:\Users\user\AppData\Local\Temp\ccdt2dNM.s 			page 23


 802 0178 00000000 		.word	.LANCHOR33
 803 017c 00000000 		.word	.LANCHOR34
 804 0180 00000000 		.word	.LANCHOR35
 805 0184 00000000 		.word	.LANCHOR36
 806 0188 00000000 		.word	.LANCHOR37
 807 018c 00000000 		.word	.LANCHOR38
 808 0190 00000000 		.word	.LANCHOR39
 809 0194 00000000 		.word	.LANCHOR40
 810 0198 00000000 		.word	.LANCHOR0
 811              		.cfi_endproc
 812              	.LFE8:
 814              		.section	.text.NOS_WS2812B_Matrix_SetSymvol,"ax",%progbits
 815              		.align	1
 816              		.global	NOS_WS2812B_Matrix_SetSymvol
 817              		.syntax unified
 818              		.thumb
 819              		.thumb_func
 820              		.fpu fpv4-sp-d16
 822              	NOS_WS2812B_Matrix_SetSymvol:
 823              	.LVL49:
 824              	.LFB4:
  95:Core/Src/NOS_LIB_Driver/Src/WS2812B.c ****     uint8_t* buff = Symvol_GetBitMap(sym);
 825              		.loc 1 95 1 is_stmt 1 view -0
 826              		.cfi_startproc
 827              		@ args = 0, pretend = 0, frame = 0
 828              		@ frame_needed = 0, uses_anonymous_args = 0
  95:Core/Src/NOS_LIB_Driver/Src/WS2812B.c ****     uint8_t* buff = Symvol_GetBitMap(sym);
 829              		.loc 1 95 1 is_stmt 0 view .LVU248
 830 0000 38B5     		push	{r3, r4, r5, lr}
 831              	.LCFI3:
 832              		.cfi_def_cfa_offset 16
 833              		.cfi_offset 3, -16
 834              		.cfi_offset 4, -12
 835              		.cfi_offset 5, -8
 836              		.cfi_offset 14, -4
 837 0002 0546     		mov	r5, r0
 838 0004 1446     		mov	r4, r2
  96:Core/Src/NOS_LIB_Driver/Src/WS2812B.c ****     for(int i = 0; i < 5; i++)
 839              		.loc 1 96 5 is_stmt 1 view .LVU249
  96:Core/Src/NOS_LIB_Driver/Src/WS2812B.c ****     for(int i = 0; i < 5; i++)
 840              		.loc 1 96 21 is_stmt 0 view .LVU250
 841 0006 0846     		mov	r0, r1
 842              	.LVL50:
  96:Core/Src/NOS_LIB_Driver/Src/WS2812B.c ****     for(int i = 0; i < 5; i++)
 843              		.loc 1 96 21 view .LVU251
 844 0008 FFF7FEFF 		bl	Symvol_GetBitMap
 845              	.LVL51:
  97:Core/Src/NOS_LIB_Driver/Src/WS2812B.c ****     {
 846              		.loc 1 97 5 is_stmt 1 view .LVU252
 847              	.LBB9:
  97:Core/Src/NOS_LIB_Driver/Src/WS2812B.c ****     {
 848              		.loc 1 97 9 view .LVU253
  97:Core/Src/NOS_LIB_Driver/Src/WS2812B.c ****     {
 849              		.loc 1 97 13 is_stmt 0 view .LVU254
 850 000c 0023     		movs	r3, #0
  97:Core/Src/NOS_LIB_Driver/Src/WS2812B.c ****     {
 851              		.loc 1 97 5 view .LVU255
ARM GAS  C:\Users\user\AppData\Local\Temp\ccdt2dNM.s 			page 24


 852 000e 06E0     		b	.L78
 853              	.LVL52:
 854              	.L79:
  99:Core/Src/NOS_LIB_Driver/Src/WS2812B.c ****     }
 855              		.loc 1 99 9 is_stmt 1 discriminator 3 view .LVU256
  99:Core/Src/NOS_LIB_Driver/Src/WS2812B.c ****     }
 856              		.loc 1 99 15 is_stmt 0 discriminator 3 view .LVU257
 857 0010 6969     		ldr	r1, [r5, #20]
  99:Core/Src/NOS_LIB_Driver/Src/WS2812B.c ****     }
 858              		.loc 1 99 24 discriminator 3 view .LVU258
 859 0012 04EB8402 		add	r2, r4, r4, lsl #2
 860 0016 1144     		add	r1, r1, r2
  99:Core/Src/NOS_LIB_Driver/Src/WS2812B.c ****     }
 861              		.loc 1 99 44 discriminator 3 view .LVU259
 862 0018 C25C     		ldrb	r2, [r0, r3]	@ zero_extendqisi2
  99:Core/Src/NOS_LIB_Driver/Src/WS2812B.c ****     }
 863              		.loc 1 99 38 discriminator 3 view .LVU260
 864 001a CA54     		strb	r2, [r1, r3]
  97:Core/Src/NOS_LIB_Driver/Src/WS2812B.c ****     {
 865              		.loc 1 97 27 is_stmt 1 discriminator 3 view .LVU261
  97:Core/Src/NOS_LIB_Driver/Src/WS2812B.c ****     {
 866              		.loc 1 97 28 is_stmt 0 discriminator 3 view .LVU262
 867 001c 0133     		adds	r3, r3, #1
 868              	.LVL53:
 869              	.L78:
  97:Core/Src/NOS_LIB_Driver/Src/WS2812B.c ****     {
 870              		.loc 1 97 20 is_stmt 1 discriminator 1 view .LVU263
  97:Core/Src/NOS_LIB_Driver/Src/WS2812B.c ****     {
 871              		.loc 1 97 5 is_stmt 0 discriminator 1 view .LVU264
 872 001e 042B     		cmp	r3, #4
 873 0020 F6DD     		ble	.L79
 874              	.LBE9:
 101:Core/Src/NOS_LIB_Driver/Src/WS2812B.c **** 
 875              		.loc 1 101 1 view .LVU265
 876 0022 38BD     		pop	{r3, r4, r5, pc}
 101:Core/Src/NOS_LIB_Driver/Src/WS2812B.c **** 
 877              		.loc 1 101 1 view .LVU266
 878              		.cfi_endproc
 879              	.LFE4:
 881              		.section	.text.NOS_WS2812B_Matrix_PrintStaticString,"ax",%progbits
 882              		.align	1
 883              		.global	NOS_WS2812B_Matrix_PrintStaticString
 884              		.syntax unified
 885              		.thumb
 886              		.thumb_func
 887              		.fpu fpv4-sp-d16
 889              	NOS_WS2812B_Matrix_PrintStaticString:
 890              	.LVL54:
 891              	.LFB5:
 104:Core/Src/NOS_LIB_Driver/Src/WS2812B.c ****     for(int i = startpos; i < startpos + lenght; i++)
 892              		.loc 1 104 1 is_stmt 1 view -0
 893              		.cfi_startproc
 894              		@ args = 0, pretend = 0, frame = 0
 895              		@ frame_needed = 0, uses_anonymous_args = 0
 104:Core/Src/NOS_LIB_Driver/Src/WS2812B.c ****     for(int i = startpos; i < startpos + lenght; i++)
 896              		.loc 1 104 1 is_stmt 0 view .LVU268
 897 0000 2DE9F041 		push	{r4, r5, r6, r7, r8, lr}
ARM GAS  C:\Users\user\AppData\Local\Temp\ccdt2dNM.s 			page 25


 898              	.LCFI4:
 899              		.cfi_def_cfa_offset 24
 900              		.cfi_offset 4, -24
 901              		.cfi_offset 5, -20
 902              		.cfi_offset 6, -16
 903              		.cfi_offset 7, -12
 904              		.cfi_offset 8, -8
 905              		.cfi_offset 14, -4
 906 0004 8046     		mov	r8, r0
 907 0006 0F46     		mov	r7, r1
 908 0008 1546     		mov	r5, r2
 909 000a 1E46     		mov	r6, r3
 105:Core/Src/NOS_LIB_Driver/Src/WS2812B.c ****     {
 910              		.loc 1 105 5 is_stmt 1 view .LVU269
 911              	.LBB10:
 105:Core/Src/NOS_LIB_Driver/Src/WS2812B.c ****     {
 912              		.loc 1 105 9 view .LVU270
 913              	.LVL55:
 105:Core/Src/NOS_LIB_Driver/Src/WS2812B.c ****     {
 914              		.loc 1 105 13 is_stmt 0 view .LVU271
 915 000c 1446     		mov	r4, r2
 105:Core/Src/NOS_LIB_Driver/Src/WS2812B.c ****     {
 916              		.loc 1 105 5 view .LVU272
 917 000e 08E0     		b	.L82
 918              	.LVL56:
 919              	.L83:
 107:Core/Src/NOS_LIB_Driver/Src/WS2812B.c ****     }
 920              		.loc 1 107 9 is_stmt 1 discriminator 3 view .LVU273
 107:Core/Src/NOS_LIB_Driver/Src/WS2812B.c ****     }
 921              		.loc 1 107 54 is_stmt 0 discriminator 3 view .LVU274
 922 0010 A4EB050C 		sub	ip, r4, r5
 107:Core/Src/NOS_LIB_Driver/Src/WS2812B.c ****     }
 923              		.loc 1 107 9 discriminator 3 view .LVU275
 924 0014 E2B2     		uxtb	r2, r4
 925 0016 17F80C10 		ldrb	r1, [r7, ip]	@ zero_extendqisi2
 926 001a 4046     		mov	r0, r8
 927 001c FFF7FEFF 		bl	NOS_WS2812B_Matrix_SetSymvol
 928              	.LVL57:
 105:Core/Src/NOS_LIB_Driver/Src/WS2812B.c ****     {
 929              		.loc 1 105 50 is_stmt 1 discriminator 3 view .LVU276
 105:Core/Src/NOS_LIB_Driver/Src/WS2812B.c ****     {
 930              		.loc 1 105 51 is_stmt 0 discriminator 3 view .LVU277
 931 0020 0134     		adds	r4, r4, #1
 932              	.LVL58:
 933              	.L82:
 105:Core/Src/NOS_LIB_Driver/Src/WS2812B.c ****     {
 934              		.loc 1 105 27 is_stmt 1 discriminator 1 view .LVU278
 105:Core/Src/NOS_LIB_Driver/Src/WS2812B.c ****     {
 935              		.loc 1 105 40 is_stmt 0 discriminator 1 view .LVU279
 936 0022 7219     		adds	r2, r6, r5
 105:Core/Src/NOS_LIB_Driver/Src/WS2812B.c ****     {
 937              		.loc 1 105 5 discriminator 1 view .LVU280
 938 0024 A242     		cmp	r2, r4
 939 0026 F3DC     		bgt	.L83
 105:Core/Src/NOS_LIB_Driver/Src/WS2812B.c ****     {
 940              		.loc 1 105 5 discriminator 1 view .LVU281
 941              	.LBE10:
ARM GAS  C:\Users\user\AppData\Local\Temp\ccdt2dNM.s 			page 26


 109:Core/Src/NOS_LIB_Driver/Src/WS2812B.c **** 
 942              		.loc 1 109 1 view .LVU282
 943 0028 BDE8F081 		pop	{r4, r5, r6, r7, r8, pc}
 109:Core/Src/NOS_LIB_Driver/Src/WS2812B.c **** 
 944              		.loc 1 109 1 view .LVU283
 945              		.cfi_endproc
 946              	.LFE5:
 948              		.global	__aeabi_i2d
 949              		.global	__aeabi_ddiv
 950              		.global	__aeabi_d2uiz
 951              		.global	__aeabi_dmul
 952              		.global	__aeabi_dsub
 953              		.global	__aeabi_d2iz
 954              		.section	.text.NOS_WS2812B_Matrix_PrintIntNumber,"ax",%progbits
 955              		.align	1
 956              		.global	NOS_WS2812B_Matrix_PrintIntNumber
 957              		.syntax unified
 958              		.thumb
 959              		.thumb_func
 960              		.fpu fpv4-sp-d16
 962              	NOS_WS2812B_Matrix_PrintIntNumber:
 963              	.LVL59:
 964              	.LFB6:
 112:Core/Src/NOS_LIB_Driver/Src/WS2812B.c **** 
 965              		.loc 1 112 1 is_stmt 1 view -0
 966              		.cfi_startproc
 967              		@ args = 0, pretend = 0, frame = 24
 968              		@ frame_needed = 0, uses_anonymous_args = 0
 112:Core/Src/NOS_LIB_Driver/Src/WS2812B.c **** 
 969              		.loc 1 112 1 is_stmt 0 view .LVU285
 970 0000 2DE9F04F 		push	{r4, r5, r6, r7, r8, r9, r10, fp, lr}
 971              	.LCFI5:
 972              		.cfi_def_cfa_offset 36
 973              		.cfi_offset 4, -36
 974              		.cfi_offset 5, -32
 975              		.cfi_offset 6, -28
 976              		.cfi_offset 7, -24
 977              		.cfi_offset 8, -20
 978              		.cfi_offset 9, -16
 979              		.cfi_offset 10, -12
 980              		.cfi_offset 11, -8
 981              		.cfi_offset 14, -4
 982 0004 2DED048B 		vpush.64	{d8, d9}
 983              	.LCFI6:
 984              		.cfi_def_cfa_offset 52
 985              		.cfi_offset 80, -52
 986              		.cfi_offset 81, -48
 987              		.cfi_offset 82, -44
 988              		.cfi_offset 83, -40
 989 0008 87B0     		sub	sp, sp, #28
 990              	.LCFI7:
 991              		.cfi_def_cfa_offset 80
 992 000a 0190     		str	r0, [sp, #4]
 993 000c 0846     		mov	r0, r1
 994              	.LVL60:
 112:Core/Src/NOS_LIB_Driver/Src/WS2812B.c **** 
 995              		.loc 1 112 1 view .LVU286
ARM GAS  C:\Users\user\AppData\Local\Temp\ccdt2dNM.s 			page 27


 996 000e 9346     		mov	fp, r2
 114:Core/Src/NOS_LIB_Driver/Src/WS2812B.c ****     int a = 0;
 997              		.loc 1 114 5 is_stmt 1 view .LVU287
 998              	.LVL61:
 115:Core/Src/NOS_LIB_Driver/Src/WS2812B.c ****     int power = 1;
 999              		.loc 1 115 5 view .LVU288
 116:Core/Src/NOS_LIB_Driver/Src/WS2812B.c ****     char buff[16];
 1000              		.loc 1 116 5 view .LVU289
 117:Core/Src/NOS_LIB_Driver/Src/WS2812B.c **** 
 1001              		.loc 1 117 5 view .LVU290
 119:Core/Src/NOS_LIB_Driver/Src/WS2812B.c ****     {
 1002              		.loc 1 119 5 view .LVU291
 116:Core/Src/NOS_LIB_Driver/Src/WS2812B.c ****     char buff[16];
 1003              		.loc 1 116 9 is_stmt 0 view .LVU292
 1004 0010 0124     		movs	r4, #1
 114:Core/Src/NOS_LIB_Driver/Src/WS2812B.c ****     int a = 0;
 1005              		.loc 1 114 9 view .LVU293
 1006 0012 0A23     		movs	r3, #10
 1007              	.LVL62:
 119:Core/Src/NOS_LIB_Driver/Src/WS2812B.c ****     {
 1008              		.loc 1 119 11 view .LVU294
 1009 0014 03E0     		b	.L86
 1010              	.LVL63:
 1011              	.L87:
 121:Core/Src/NOS_LIB_Driver/Src/WS2812B.c ****         probe = probe * 10;
 1012              		.loc 1 121 9 is_stmt 1 view .LVU295
 121:Core/Src/NOS_LIB_Driver/Src/WS2812B.c ****         probe = probe * 10;
 1013              		.loc 1 121 14 is_stmt 0 view .LVU296
 1014 0016 0134     		adds	r4, r4, #1
 1015              	.LVL64:
 122:Core/Src/NOS_LIB_Driver/Src/WS2812B.c ****     }
 1016              		.loc 1 122 9 is_stmt 1 view .LVU297
 122:Core/Src/NOS_LIB_Driver/Src/WS2812B.c ****     }
 1017              		.loc 1 122 15 is_stmt 0 view .LVU298
 1018 0018 03EB8303 		add	r3, r3, r3, lsl #2
 1019              	.LVL65:
 122:Core/Src/NOS_LIB_Driver/Src/WS2812B.c ****     }
 1020              		.loc 1 122 15 view .LVU299
 1021 001c 5B00     		lsls	r3, r3, #1
 1022              	.LVL66:
 1023              	.L86:
 119:Core/Src/NOS_LIB_Driver/Src/WS2812B.c ****     {
 1024              		.loc 1 119 11 is_stmt 1 view .LVU300
 1025 001e 8342     		cmp	r3, r0
 1026 0020 F9DB     		blt	.L87
 126:Core/Src/NOS_LIB_Driver/Src/WS2812B.c ****     {
 1027              		.loc 1 126 5 view .LVU301
 1028              	.LBB11:
 126:Core/Src/NOS_LIB_Driver/Src/WS2812B.c ****     {
 1029              		.loc 1 126 10 view .LVU302
 126:Core/Src/NOS_LIB_Driver/Src/WS2812B.c ****     {
 1030              		.loc 1 126 14 is_stmt 0 view .LVU303
 1031 0022 013C     		subs	r4, r4, #1
 1032              	.LVL67:
 126:Core/Src/NOS_LIB_Driver/Src/WS2812B.c ****     {
 1033              		.loc 1 126 14 view .LVU304
 1034              	.LBE11:
ARM GAS  C:\Users\user\AppData\Local\Temp\ccdt2dNM.s 			page 28


 115:Core/Src/NOS_LIB_Driver/Src/WS2812B.c ****     int power = 1;
 1035              		.loc 1 115 9 view .LVU305
 1036 0024 4FF0000A 		mov	r10, #0
 1037              	.LBB13:
 126:Core/Src/NOS_LIB_Driver/Src/WS2812B.c ****     {
 1038              		.loc 1 126 5 view .LVU306
 1039 0028 3DE0     		b	.L88
 1040              	.LVL68:
 1041              	.L89:
 1042              	.LBB12:
 128:Core/Src/NOS_LIB_Driver/Src/WS2812B.c ****         num = num - (buff[a] * pow(10,i));
 1043              		.loc 1 128 9 is_stmt 1 discriminator 3 view .LVU307
 128:Core/Src/NOS_LIB_Driver/Src/WS2812B.c ****         num = num - (buff[a] * pow(10,i));
 1044              		.loc 1 128 23 is_stmt 0 discriminator 3 view .LVU308
 1045 002a FFF7FEFF 		bl	__aeabi_i2d
 1046              	.LVL69:
 128:Core/Src/NOS_LIB_Driver/Src/WS2812B.c ****         num = num - (buff[a] * pow(10,i));
 1047              		.loc 1 128 23 discriminator 3 view .LVU309
 1048 002e 0646     		mov	r6, r0
 1049 0030 0F46     		mov	r7, r1
 128:Core/Src/NOS_LIB_Driver/Src/WS2812B.c ****         num = num - (buff[a] * pow(10,i));
 1050              		.loc 1 128 25 discriminator 3 view .LVU310
 1051 0032 2046     		mov	r0, r4
 1052 0034 FFF7FEFF 		bl	__aeabi_i2d
 1053              	.LVL70:
 1054 0038 41EC180B 		vmov	d8, r0, r1
 1055 003c 9FED2E9B 		vldr.64	d9, .L93
 1056 0040 41EC110B 		vmov	d1, r0, r1
 1057 0044 B0EE490A 		vmov.f32	s0, s18
 1058 0048 F0EE690A 		vmov.f32	s1, s19
 1059 004c FFF7FEFF 		bl	pow
 1060              	.LVL71:
 1061 0050 53EC102B 		vmov	r2, r3, d0
 128:Core/Src/NOS_LIB_Driver/Src/WS2812B.c ****         num = num - (buff[a] * pow(10,i));
 1062              		.loc 1 128 23 discriminator 3 view .LVU311
 1063 0054 3046     		mov	r0, r6
 1064 0056 3946     		mov	r1, r7
 1065 0058 FFF7FEFF 		bl	__aeabi_ddiv
 1066              	.LVL72:
 128:Core/Src/NOS_LIB_Driver/Src/WS2812B.c ****         num = num - (buff[a] * pow(10,i));
 1067              		.loc 1 128 17 discriminator 3 view .LVU312
 1068 005c FFF7FEFF 		bl	__aeabi_d2uiz
 1069              	.LVL73:
 1070 0060 C5B2     		uxtb	r5, r0
 1071 0062 06AB     		add	r3, sp, #24
 1072 0064 5344     		add	r3, r3, r10
 1073 0066 03F8105C 		strb	r5, [r3, #-16]
 129:Core/Src/NOS_LIB_Driver/Src/WS2812B.c ****         a++;
 1074              		.loc 1 129 9 is_stmt 1 discriminator 3 view .LVU313
 129:Core/Src/NOS_LIB_Driver/Src/WS2812B.c ****         a++;
 1075              		.loc 1 129 32 is_stmt 0 discriminator 3 view .LVU314
 1076 006a B0EE481A 		vmov.f32	s2, s16
 1077 006e F0EE681A 		vmov.f32	s3, s17
 1078 0072 B0EE490A 		vmov.f32	s0, s18
 1079 0076 F0EE690A 		vmov.f32	s1, s19
 1080 007a FFF7FEFF 		bl	pow
 1081              	.LVL74:
ARM GAS  C:\Users\user\AppData\Local\Temp\ccdt2dNM.s 			page 29


 1082 007e 59EC108B 		vmov	r8, r9, d0
 129:Core/Src/NOS_LIB_Driver/Src/WS2812B.c ****         a++;
 1083              		.loc 1 129 30 discriminator 3 view .LVU315
 1084 0082 2846     		mov	r0, r5
 1085 0084 FFF7FEFF 		bl	__aeabi_i2d
 1086              	.LVL75:
 1087 0088 4246     		mov	r2, r8
 1088 008a 4B46     		mov	r3, r9
 1089 008c FFF7FEFF 		bl	__aeabi_dmul
 1090              	.LVL76:
 1091 0090 0246     		mov	r2, r0
 1092 0092 0B46     		mov	r3, r1
 129:Core/Src/NOS_LIB_Driver/Src/WS2812B.c ****         a++;
 1093              		.loc 1 129 19 discriminator 3 view .LVU316
 1094 0094 3046     		mov	r0, r6
 1095 0096 3946     		mov	r1, r7
 1096 0098 FFF7FEFF 		bl	__aeabi_dsub
 1097              	.LVL77:
 129:Core/Src/NOS_LIB_Driver/Src/WS2812B.c ****         a++;
 1098              		.loc 1 129 13 discriminator 3 view .LVU317
 1099 009c FFF7FEFF 		bl	__aeabi_d2iz
 1100              	.LVL78:
 130:Core/Src/NOS_LIB_Driver/Src/WS2812B.c ****     }
 1101              		.loc 1 130 9 is_stmt 1 discriminator 3 view .LVU318
 130:Core/Src/NOS_LIB_Driver/Src/WS2812B.c ****     }
 1102              		.loc 1 130 10 is_stmt 0 discriminator 3 view .LVU319
 1103 00a0 0AF1010A 		add	r10, r10, #1
 1104              	.LVL79:
 130:Core/Src/NOS_LIB_Driver/Src/WS2812B.c ****     }
 1105              		.loc 1 130 10 discriminator 3 view .LVU320
 1106              	.LBE12:
 126:Core/Src/NOS_LIB_Driver/Src/WS2812B.c ****     {
 1107              		.loc 1 126 36 is_stmt 1 discriminator 3 view .LVU321
 126:Core/Src/NOS_LIB_Driver/Src/WS2812B.c ****     {
 1108              		.loc 1 126 37 is_stmt 0 discriminator 3 view .LVU322
 1109 00a4 013C     		subs	r4, r4, #1
 1110              	.LVL80:
 1111              	.L88:
 126:Core/Src/NOS_LIB_Driver/Src/WS2812B.c ****     {
 1112              		.loc 1 126 29 is_stmt 1 discriminator 1 view .LVU323
 126:Core/Src/NOS_LIB_Driver/Src/WS2812B.c ****     {
 1113              		.loc 1 126 5 is_stmt 0 discriminator 1 view .LVU324
 1114 00a6 002C     		cmp	r4, #0
 1115 00a8 BFDC     		bgt	.L89
 126:Core/Src/NOS_LIB_Driver/Src/WS2812B.c ****     {
 1116              		.loc 1 126 5 discriminator 1 view .LVU325
 1117              	.LBE13:
 133:Core/Src/NOS_LIB_Driver/Src/WS2812B.c **** 
 1118              		.loc 1 133 5 is_stmt 1 view .LVU326
 133:Core/Src/NOS_LIB_Driver/Src/WS2812B.c **** 
 1119              		.loc 1 133 19 is_stmt 0 view .LVU327
 1120 00aa 154A     		ldr	r2, .L93+8
 1121 00ac 82FB0032 		smull	r3, r2, r2, r0
 1122 00b0 C317     		asrs	r3, r0, #31
 1123 00b2 C3EBA203 		rsb	r3, r3, r2, asr #2
 1124 00b6 03EB8303 		add	r3, r3, r3, lsl #2
 1125 00ba A0EB4303 		sub	r3, r0, r3, lsl #1
ARM GAS  C:\Users\user\AppData\Local\Temp\ccdt2dNM.s 			page 30


 133:Core/Src/NOS_LIB_Driver/Src/WS2812B.c **** 
 1126              		.loc 1 133 13 view .LVU328
 1127 00be 06AA     		add	r2, sp, #24
 1128 00c0 5244     		add	r2, r2, r10
 1129 00c2 02F8103C 		strb	r3, [r2, #-16]
 135:Core/Src/NOS_LIB_Driver/Src/WS2812B.c ****     {
 1130              		.loc 1 135 5 is_stmt 1 view .LVU329
 1131              	.LBB14:
 135:Core/Src/NOS_LIB_Driver/Src/WS2812B.c ****     {
 1132              		.loc 1 135 9 view .LVU330
 1133              	.LVL81:
 135:Core/Src/NOS_LIB_Driver/Src/WS2812B.c ****     {
 1134              		.loc 1 135 13 is_stmt 0 view .LVU331
 1135 00c6 0024     		movs	r4, #0
 1136              	.LVL82:
 135:Core/Src/NOS_LIB_Driver/Src/WS2812B.c ****     {
 1137              		.loc 1 135 5 view .LVU332
 1138 00c8 0EE0     		b	.L90
 1139              	.LVL83:
 1140              	.L91:
 137:Core/Src/NOS_LIB_Driver/Src/WS2812B.c ****         NOS_WS2812B_Matrix_SetSymvol(matrix,buff[i],i + startpos);
 1141              		.loc 1 137 9 is_stmt 1 discriminator 3 view .LVU333
 137:Core/Src/NOS_LIB_Driver/Src/WS2812B.c ****         NOS_WS2812B_Matrix_SetSymvol(matrix,buff[i],i + startpos);
 1142              		.loc 1 137 17 is_stmt 0 discriminator 3 view .LVU334
 1143 00ca 06AB     		add	r3, sp, #24
 1144 00cc 2344     		add	r3, r3, r4
 1145 00ce 13F8101C 		ldrb	r1, [r3, #-16]	@ zero_extendqisi2
 1146 00d2 3031     		adds	r1, r1, #48
 1147 00d4 C9B2     		uxtb	r1, r1
 1148 00d6 03F8101C 		strb	r1, [r3, #-16]
 138:Core/Src/NOS_LIB_Driver/Src/WS2812B.c ****     }
 1149              		.loc 1 138 9 is_stmt 1 discriminator 3 view .LVU335
 1150 00da 0BEB0402 		add	r2, fp, r4
 1151 00de D2B2     		uxtb	r2, r2
 1152 00e0 0198     		ldr	r0, [sp, #4]
 1153 00e2 FFF7FEFF 		bl	NOS_WS2812B_Matrix_SetSymvol
 1154              	.LVL84:
 135:Core/Src/NOS_LIB_Driver/Src/WS2812B.c ****     {
 1155              		.loc 1 135 31 discriminator 3 view .LVU336
 135:Core/Src/NOS_LIB_Driver/Src/WS2812B.c ****     {
 1156              		.loc 1 135 32 is_stmt 0 discriminator 3 view .LVU337
 1157 00e6 0134     		adds	r4, r4, #1
 1158              	.LVL85:
 1159              	.L90:
 135:Core/Src/NOS_LIB_Driver/Src/WS2812B.c ****     {
 1160              		.loc 1 135 20 is_stmt 1 discriminator 1 view .LVU338
 135:Core/Src/NOS_LIB_Driver/Src/WS2812B.c ****     {
 1161              		.loc 1 135 5 is_stmt 0 discriminator 1 view .LVU339
 1162 00e8 A245     		cmp	r10, r4
 1163 00ea EEDA     		bge	.L91
 1164              	.LBE14:
 140:Core/Src/NOS_LIB_Driver/Src/WS2812B.c **** 
 1165              		.loc 1 140 1 view .LVU340
 1166 00ec 07B0     		add	sp, sp, #28
 1167              	.LCFI8:
 1168              		.cfi_def_cfa_offset 52
 1169              		@ sp needed
ARM GAS  C:\Users\user\AppData\Local\Temp\ccdt2dNM.s 			page 31


 1170 00ee BDEC048B 		vldm	sp!, {d8-d9}
 1171              	.LCFI9:
 1172              		.cfi_restore 82
 1173              		.cfi_restore 83
 1174              		.cfi_restore 80
 1175              		.cfi_restore 81
 1176              		.cfi_def_cfa_offset 36
 1177 00f2 BDE8F08F 		pop	{r4, r5, r6, r7, r8, r9, r10, fp, pc}
 1178              	.LVL86:
 1179              	.L94:
 140:Core/Src/NOS_LIB_Driver/Src/WS2812B.c **** 
 1180              		.loc 1 140 1 view .LVU341
 1181 00f6 00BF     		.align	3
 1182              	.L93:
 1183 00f8 00000000 		.word	0
 1184 00fc 00002440 		.word	1076101120
 1185 0100 67666666 		.word	1717986919
 1186              		.cfi_endproc
 1187              	.LFE6:
 1189              		.section	.rodata.NOS_WS2812B_Matrix_PrintFloatNumber.str1.4,"aMS",%progbits,1
 1190              		.align	2
 1191              	.LC0:
 1192 0000 2E00     		.ascii	".\000"
 1193              		.section	.text.NOS_WS2812B_Matrix_PrintFloatNumber,"ax",%progbits
 1194              		.align	1
 1195              		.global	NOS_WS2812B_Matrix_PrintFloatNumber
 1196              		.syntax unified
 1197              		.thumb
 1198              		.thumb_func
 1199              		.fpu fpv4-sp-d16
 1201              	NOS_WS2812B_Matrix_PrintFloatNumber:
 1202              	.LVL87:
 1203              	.LFB7:
 143:Core/Src/NOS_LIB_Driver/Src/WS2812B.c ****     int before = num;
 1204              		.loc 1 143 1 is_stmt 1 view -0
 1205              		.cfi_startproc
 1206              		@ args = 0, pretend = 0, frame = 0
 1207              		@ frame_needed = 0, uses_anonymous_args = 0
 143:Core/Src/NOS_LIB_Driver/Src/WS2812B.c ****     int before = num;
 1208              		.loc 1 143 1 is_stmt 0 view .LVU343
 1209 0000 38B5     		push	{r3, r4, r5, lr}
 1210              	.LCFI10:
 1211              		.cfi_def_cfa_offset 16
 1212              		.cfi_offset 3, -16
 1213              		.cfi_offset 4, -12
 1214              		.cfi_offset 5, -8
 1215              		.cfi_offset 14, -4
 1216 0002 2DED028B 		vpush.64	{d8}
 1217              	.LCFI11:
 1218              		.cfi_def_cfa_offset 24
 1219              		.cfi_offset 80, -24
 1220              		.cfi_offset 81, -20
 1221 0006 0546     		mov	r5, r0
 1222 0008 0C46     		mov	r4, r1
 144:Core/Src/NOS_LIB_Driver/Src/WS2812B.c ****     float after = num - (float)before;
 1223              		.loc 1 144 5 is_stmt 1 view .LVU344
 144:Core/Src/NOS_LIB_Driver/Src/WS2812B.c ****     float after = num - (float)before;
ARM GAS  C:\Users\user\AppData\Local\Temp\ccdt2dNM.s 			page 32


 1224              		.loc 1 144 9 is_stmt 0 view .LVU345
 1225 000a FDEEC07A 		vcvt.s32.f32	s15, s0
 1226              	.LVL88:
 145:Core/Src/NOS_LIB_Driver/Src/WS2812B.c ****     int af = after * 100;
 1227              		.loc 1 145 5 is_stmt 1 view .LVU346
 145:Core/Src/NOS_LIB_Driver/Src/WS2812B.c ****     int af = after * 100;
 1228              		.loc 1 145 25 is_stmt 0 view .LVU347
 1229 000e B8EEE78A 		vcvt.f32.s32	s16, s15
 145:Core/Src/NOS_LIB_Driver/Src/WS2812B.c ****     int af = after * 100;
 1230              		.loc 1 145 11 view .LVU348
 1231 0012 30EE488A 		vsub.f32	s16, s0, s16
 1232              	.LVL89:
 146:Core/Src/NOS_LIB_Driver/Src/WS2812B.c **** 
 1233              		.loc 1 146 5 is_stmt 1 view .LVU349
 146:Core/Src/NOS_LIB_Driver/Src/WS2812B.c **** 
 1234              		.loc 1 146 20 is_stmt 0 view .LVU350
 1235 0016 9FED0F0A 		vldr.32	s0, .L97
 1236              	.LVL90:
 146:Core/Src/NOS_LIB_Driver/Src/WS2812B.c **** 
 1237              		.loc 1 146 20 view .LVU351
 1238 001a 28EE008A 		vmul.f32	s16, s16, s0
 1239              	.LVL91:
 146:Core/Src/NOS_LIB_Driver/Src/WS2812B.c **** 
 1240              		.loc 1 146 9 view .LVU352
 1241 001e BDEEC88A 		vcvt.s32.f32	s16, s16
 1242              	.LVL92:
 148:Core/Src/NOS_LIB_Driver/Src/WS2812B.c ****     NOS_WS2812B_Matrix_PrintStaticString(matrix,".",startpos + 2,1);
 1243              		.loc 1 148 5 is_stmt 1 view .LVU353
 1244 0022 0223     		movs	r3, #2
 1245              	.LVL93:
 148:Core/Src/NOS_LIB_Driver/Src/WS2812B.c ****     NOS_WS2812B_Matrix_PrintStaticString(matrix,".",startpos + 2,1);
 1246              		.loc 1 148 5 is_stmt 0 view .LVU354
 1247 0024 0A46     		mov	r2, r1
 1248              	.LVL94:
 148:Core/Src/NOS_LIB_Driver/Src/WS2812B.c ****     NOS_WS2812B_Matrix_PrintStaticString(matrix,".",startpos + 2,1);
 1249              		.loc 1 148 5 view .LVU355
 1250 0026 17EE901A 		vmov	r1, s15	@ int
 1251              	.LVL95:
 148:Core/Src/NOS_LIB_Driver/Src/WS2812B.c ****     NOS_WS2812B_Matrix_PrintStaticString(matrix,".",startpos + 2,1);
 1252              		.loc 1 148 5 view .LVU356
 1253 002a FFF7FEFF 		bl	NOS_WS2812B_Matrix_PrintIntNumber
 1254              	.LVL96:
 149:Core/Src/NOS_LIB_Driver/Src/WS2812B.c ****     NOS_WS2812B_Matrix_PrintIntNumber(matrix,af,startpos+ 3,2);
 1255              		.loc 1 149 5 is_stmt 1 view .LVU357
 1256 002e A21C     		adds	r2, r4, #2
 1257 0030 0123     		movs	r3, #1
 1258 0032 D2B2     		uxtb	r2, r2
 1259 0034 0849     		ldr	r1, .L97+4
 1260 0036 2846     		mov	r0, r5
 1261 0038 FFF7FEFF 		bl	NOS_WS2812B_Matrix_PrintStaticString
 1262              	.LVL97:
 150:Core/Src/NOS_LIB_Driver/Src/WS2812B.c **** }
 1263              		.loc 1 150 5 view .LVU358
 1264 003c E21C     		adds	r2, r4, #3
 1265 003e 0223     		movs	r3, #2
 1266 0040 D2B2     		uxtb	r2, r2
 1267 0042 18EE101A 		vmov	r1, s16	@ int
ARM GAS  C:\Users\user\AppData\Local\Temp\ccdt2dNM.s 			page 33


 1268 0046 2846     		mov	r0, r5
 1269 0048 FFF7FEFF 		bl	NOS_WS2812B_Matrix_PrintIntNumber
 1270              	.LVL98:
 151:Core/Src/NOS_LIB_Driver/Src/WS2812B.c **** 
 1271              		.loc 1 151 1 is_stmt 0 view .LVU359
 1272 004c BDEC028B 		vldm	sp!, {d8}
 1273              	.LCFI12:
 1274              		.cfi_restore 80
 1275              		.cfi_restore 81
 1276              		.cfi_def_cfa_offset 16
 1277              	.LVL99:
 151:Core/Src/NOS_LIB_Driver/Src/WS2812B.c **** 
 1278              		.loc 1 151 1 view .LVU360
 1279 0050 38BD     		pop	{r3, r4, r5, pc}
 1280              	.LVL100:
 1281              	.L98:
 151:Core/Src/NOS_LIB_Driver/Src/WS2812B.c **** 
 1282              		.loc 1 151 1 view .LVU361
 1283 0052 00BF     		.align	2
 1284              	.L97:
 1285 0054 0000C842 		.word	1120403456
 1286 0058 00000000 		.word	.LC0
 1287              		.cfi_endproc
 1288              	.LFE7:
 1290              		.global	Num_9
 1291              		.global	Num_8
 1292              		.global	Num_7
 1293              		.global	Num_6
 1294              		.global	Num_5
 1295              		.global	Num_4
 1296              		.global	Num_3
 1297              		.global	Num_2
 1298              		.global	Num_1
 1299              		.global	Num_0
 1300              		.global	Celcium
 1301              		.global	Multiply
 1302              		.global	Minus
 1303              		.global	Plus
 1304              		.global	Slash
 1305              		.global	Dot
 1306              		.global	Space
 1307              		.global	Eng_Z
 1308              		.global	Eng_Y
 1309              		.global	Eng_X
 1310              		.global	Eng_W
 1311              		.global	Eng_V
 1312              		.global	Eng_U
 1313              		.global	Eng_T
 1314              		.global	Eng_S
 1315              		.global	Eng_R
 1316              		.global	Eng_Q
 1317              		.global	Eng_P
 1318              		.global	Eng_O
 1319              		.global	Eng_N
 1320              		.global	Eng_M
 1321              		.global	Eng_L
 1322              		.global	Eng_K
ARM GAS  C:\Users\user\AppData\Local\Temp\ccdt2dNM.s 			page 34


 1323              		.global	Eng_J
 1324              		.global	Eng_I
 1325              		.global	Eng_H
 1326              		.global	Eng_G
 1327              		.global	Eng_F
 1328              		.global	Eng_E
 1329              		.global	Eng_D
 1330              		.global	Eng_C
 1331              		.global	Eng_B
 1332              		.global	Eng_A
 1333              		.section	.bss.Space,"aw",%nobits
 1334              		.align	2
 1335              		.set	.LANCHOR25,. + 0
 1338              	Space:
 1339 0000 00000000 		.space	5
 1339      00
 1340              		.section	.data.Celcium,"aw"
 1341              		.align	2
 1342              		.set	.LANCHOR29,. + 0
 1345              	Celcium:
 1346 0000 0000040A 		.ascii	"\000\000\004\012\004"
 1346      04
 1347              		.section	.data.Dot,"aw"
 1348              		.align	2
 1349              		.set	.LANCHOR30,. + 0
 1352              	Dot:
 1353 0000 00008000 		.ascii	"\000\000\200\000\000"
 1353      00
 1354              		.section	.data.Eng_A,"aw"
 1355              		.align	2
 1356              		.set	.LANCHOR41,. + 0
 1359              	Eng_A:
 1360 0000 FC121212 		.ascii	"\374\022\022\022\374"
 1360      FC
 1361              		.section	.data.Eng_B,"aw"
 1362              		.align	2
 1363              		.set	.LANCHOR0,. + 0
 1366              	Eng_B:
 1367 0000 FE929292 		.ascii	"\376\222\222\222l"
 1367      6C
 1368              		.section	.data.Eng_C,"aw"
 1369              		.align	2
 1370              		.set	.LANCHOR1,. + 0
 1373              	Eng_C:
 1374 0000 7C828282 		.ascii	"|\202\202\202D"
 1374      44
 1375              		.section	.data.Eng_D,"aw"
 1376              		.align	2
 1377              		.set	.LANCHOR2,. + 0
 1380              	Eng_D:
 1381 0000 FE828282 		.ascii	"\376\202\202\202|"
 1381      7C
 1382              		.section	.data.Eng_E,"aw"
 1383              		.align	2
 1384              		.set	.LANCHOR3,. + 0
 1387              	Eng_E:
 1388 0000 FE929292 		.ascii	"\376\222\222\222\202"
ARM GAS  C:\Users\user\AppData\Local\Temp\ccdt2dNM.s 			page 35


 1388      82
 1389              		.section	.data.Eng_F,"aw"
 1390              		.align	2
 1391              		.set	.LANCHOR4,. + 0
 1394              	Eng_F:
 1395 0000 FE121212 		.ascii	"\376\022\022\022\002"
 1395      02
 1396              		.section	.data.Eng_G,"aw"
 1397              		.align	2
 1398              		.set	.LANCHOR5,. + 0
 1401              	Eng_G:
 1402 0000 7C829292 		.ascii	"|\202\222\222t"
 1402      74
 1403              		.section	.data.Eng_H,"aw"
 1404              		.align	2
 1405              		.set	.LANCHOR6,. + 0
 1408              	Eng_H:
 1409 0000 FE101010 		.ascii	"\376\020\020\020\376"
 1409      FE
 1410              		.section	.data.Eng_I,"aw"
 1411              		.align	2
 1412              		.set	.LANCHOR7,. + 0
 1415              	Eng_I:
 1416 0000 0082FE82 		.ascii	"\000\202\376\202\000"
 1416      00
 1417              		.section	.data.Eng_J,"aw"
 1418              		.align	2
 1419              		.set	.LANCHOR8,. + 0
 1422              	Eng_J:
 1423 0000 40808080 		.ascii	"@\200\200\200~"
 1423      7E
 1424              		.section	.data.Eng_K,"aw"
 1425              		.align	2
 1426              		.set	.LANCHOR9,. + 0
 1429              	Eng_K:
 1430 0000 FE102844 		.ascii	"\376\020(D\202"
 1430      82
 1431              		.section	.data.Eng_L,"aw"
 1432              		.align	2
 1433              		.set	.LANCHOR10,. + 0
 1436              	Eng_L:
 1437 0000 FE808080 		.ascii	"\376\200\200\200\200"
 1437      80
 1438              		.section	.data.Eng_M,"aw"
 1439              		.align	2
 1440              		.set	.LANCHOR11,. + 0
 1443              	Eng_M:
 1444 0000 FE040804 		.ascii	"\376\004\010\004\376"
 1444      FE
 1445              		.section	.data.Eng_N,"aw"
 1446              		.align	2
 1447              		.set	.LANCHOR12,. + 0
 1450              	Eng_N:
 1451 0000 FE081020 		.ascii	"\376\010\020 \376"
 1451      FE
 1452              		.section	.data.Eng_O,"aw"
 1453              		.align	2
ARM GAS  C:\Users\user\AppData\Local\Temp\ccdt2dNM.s 			page 36


 1454              		.set	.LANCHOR13,. + 0
 1457              	Eng_O:
 1458 0000 7C828282 		.ascii	"|\202\202\202|"
 1458      7C
 1459              		.section	.data.Eng_P,"aw"
 1460              		.align	2
 1461              		.set	.LANCHOR14,. + 0
 1464              	Eng_P:
 1465 0000 FE121212 		.ascii	"\376\022\022\022\014"
 1465      0C
 1466              		.section	.data.Eng_Q,"aw"
 1467              		.align	2
 1468              		.set	.LANCHOR15,. + 0
 1471              	Eng_Q:
 1472 0000 7C82A242 		.ascii	"|\202\242B\274"
 1472      BC
 1473              		.section	.data.Eng_R,"aw"
 1474              		.align	2
 1475              		.set	.LANCHOR16,. + 0
 1478              	Eng_R:
 1479 0000 FE123252 		.ascii	"\376\0222R\214"
 1479      8C
 1480              		.section	.data.Eng_S,"aw"
 1481              		.align	2
 1482              		.set	.LANCHOR17,. + 0
 1485              	Eng_S:
 1486 0000 4C929292 		.ascii	"L\222\222\222d"
 1486      64
 1487              		.section	.data.Eng_T,"aw"
 1488              		.align	2
 1489              		.set	.LANCHOR18,. + 0
 1492              	Eng_T:
 1493 0000 0202FE02 		.ascii	"\002\002\376\002\002"
 1493      02
 1494              		.section	.data.Eng_U,"aw"
 1495              		.align	2
 1496              		.set	.LANCHOR19,. + 0
 1499              	Eng_U:
 1500 0000 7E808080 		.ascii	"~\200\200\200~"
 1500      7E
 1501              		.section	.data.Eng_V,"aw"
 1502              		.align	2
 1503              		.set	.LANCHOR20,. + 0
 1506              	Eng_V:
 1507 0000 3E408040 		.ascii	">@\200@>"
 1507      3E
 1508              		.section	.data.Eng_W,"aw"
 1509              		.align	2
 1510              		.set	.LANCHOR21,. + 0
 1513              	Eng_W:
 1514 0000 7E807880 		.ascii	"~\200x\200~"
 1514      7E
 1515              		.section	.data.Eng_X,"aw"
 1516              		.align	2
 1517              		.set	.LANCHOR22,. + 0
 1520              	Eng_X:
 1521 0000 C6281028 		.ascii	"\306(\020(\306"
ARM GAS  C:\Users\user\AppData\Local\Temp\ccdt2dNM.s 			page 37


 1521      C6
 1522              		.section	.data.Eng_Y,"aw"
 1523              		.align	2
 1524              		.set	.LANCHOR23,. + 0
 1527              	Eng_Y:
 1528 0000 0204F804 		.ascii	"\002\004\370\004\002"
 1528      02
 1529              		.section	.data.Eng_Z,"aw"
 1530              		.align	2
 1531              		.set	.LANCHOR24,. + 0
 1534              	Eng_Z:
 1535 0000 C2A2928A 		.ascii	"\302\242\222\212\206"
 1535      86
 1536              		.section	.data.Minus,"aw"
 1537              		.align	2
 1538              		.set	.LANCHOR27,. + 0
 1541              	Minus:
 1542 0000 10101010 		.ascii	"\020\020\020\020\020"
 1542      10
 1543              		.section	.data.Multiply,"aw"
 1544              		.align	2
 1547              	Multiply:
 1548 0000 44281028 		.ascii	"D(\020(D"
 1548      44
 1549              		.section	.data.Num_0,"aw"
 1550              		.align	2
 1551              		.set	.LANCHOR31,. + 0
 1554              	Num_0:
 1555 0000 7CA2928A 		.ascii	"|\242\222\212|"
 1555      7C
 1556              		.section	.data.Num_1,"aw"
 1557              		.align	2
 1558              		.set	.LANCHOR32,. + 0
 1561              	Num_1:
 1562 0000 8884FE80 		.ascii	"\210\204\376\200\200"
 1562      80
 1563              		.section	.data.Num_2,"aw"
 1564              		.align	2
 1565              		.set	.LANCHOR33,. + 0
 1568              	Num_2:
 1569 0000 C4A29292 		.ascii	"\304\242\222\222\214"
 1569      8C
 1570              		.section	.data.Num_3,"aw"
 1571              		.align	2
 1572              		.set	.LANCHOR34,. + 0
 1575              	Num_3:
 1576 0000 44929292 		.ascii	"D\222\222\222l"
 1576      6C
 1577              		.section	.data.Num_4,"aw"
 1578              		.align	2
 1579              		.set	.LANCHOR35,. + 0
 1582              	Num_4:
 1583 0000 0E101010 		.ascii	"\016\020\020\020\376"
 1583      FE
 1584              		.section	.data.Num_5,"aw"
 1585              		.align	2
 1586              		.set	.LANCHOR36,. + 0
ARM GAS  C:\Users\user\AppData\Local\Temp\ccdt2dNM.s 			page 38


 1589              	Num_5:
 1590 0000 8E929292 		.ascii	"\216\222\222\222b"
 1590      62
 1591              		.section	.data.Num_6,"aw"
 1592              		.align	2
 1593              		.set	.LANCHOR37,. + 0
 1596              	Num_6:
 1597 0000 7C929292 		.ascii	"|\222\222\222d"
 1597      64
 1598              		.section	.data.Num_7,"aw"
 1599              		.align	2
 1600              		.set	.LANCHOR38,. + 0
 1603              	Num_7:
 1604 0000 0202F20A 		.ascii	"\002\002\362\012\006"
 1604      06
 1605              		.section	.data.Num_8,"aw"
 1606              		.align	2
 1607              		.set	.LANCHOR39,. + 0
 1610              	Num_8:
 1611 0000 6C929292 		.ascii	"l\222\222\222l"
 1611      6C
 1612              		.section	.data.Num_9,"aw"
 1613              		.align	2
 1614              		.set	.LANCHOR40,. + 0
 1617              	Num_9:
 1618 0000 4C929292 		.ascii	"L\222\222\222|"
 1618      7C
 1619              		.section	.data.Plus,"aw"
 1620              		.align	2
 1621              		.set	.LANCHOR26,. + 0
 1624              	Plus:
 1625 0000 10107C10 		.ascii	"\020\020|\020\020"
 1625      10
 1626              		.section	.data.Slash,"aw"
 1627              		.align	2
 1628              		.set	.LANCHOR28,. + 0
 1631              	Slash:
 1632 0000 40201008 		.ascii	"@ \020\010\004"
 1632      04
 1633              		.text
 1634              	.Letext0:
 1635              		.file 2 "c:\\users\\user\\appdata\\roaming\\code\\user\\globalstorage\\bmd.stm32-for-vscode\\@xpac
 1636              		.file 3 "c:\\users\\user\\appdata\\roaming\\code\\user\\globalstorage\\bmd.stm32-for-vscode\\@xpac
 1637              		.file 4 "Core/Src/NOS_LIB_Driver/Inc/NOS_Typedefs.h"
 1638              		.file 5 "Core/Src/NOS_LIB_Driver/Inc/CharLib(7x5).h"
 1639              		.file 6 "<built-in>"
 1640              		.file 7 "Core/Src/NOS_LIB_Driver/Inc/NOS_Math.h"
ARM GAS  C:\Users\user\AppData\Local\Temp\ccdt2dNM.s 			page 39


DEFINED SYMBOLS
                            *ABS*:0000000000000000 WS2812B.c
C:\Users\user\AppData\Local\Temp\ccdt2dNM.s:18     .text.NOS_WS2812B_Matrix_Init:0000000000000000 $t
C:\Users\user\AppData\Local\Temp\ccdt2dNM.s:26     .text.NOS_WS2812B_Matrix_Init:0000000000000000 NOS_WS2812B_Matrix_Init
C:\Users\user\AppData\Local\Temp\ccdt2dNM.s:47     .text.NOS_WS2812B_Matrix_SetPixel:0000000000000000 $t
C:\Users\user\AppData\Local\Temp\ccdt2dNM.s:54     .text.NOS_WS2812B_Matrix_SetPixel:0000000000000000 NOS_WS2812B_Matrix_SetPixel
C:\Users\user\AppData\Local\Temp\ccdt2dNM.s:105    .text.GetPixelPos:0000000000000000 $t
C:\Users\user\AppData\Local\Temp\ccdt2dNM.s:112    .text.GetPixelPos:0000000000000000 GetPixelPos
C:\Users\user\AppData\Local\Temp\ccdt2dNM.s:145    .text.NOS_WS2812B_Matrix_Update:0000000000000000 $t
C:\Users\user\AppData\Local\Temp\ccdt2dNM.s:152    .text.NOS_WS2812B_Matrix_Update:0000000000000000 NOS_WS2812B_Matrix_Update
C:\Users\user\AppData\Local\Temp\ccdt2dNM.s:422    .text.NOS_WS2812B_Matrix_Update:0000000000000108 $d
C:\Users\user\AppData\Local\Temp\ccdt2dNM.s:427    .text.Symvol_GetBitMap:0000000000000000 $t
C:\Users\user\AppData\Local\Temp\ccdt2dNM.s:434    .text.Symvol_GetBitMap:0000000000000000 Symvol_GetBitMap
C:\Users\user\AppData\Local\Temp\ccdt2dNM.s:450    .text.Symvol_GetBitMap:000000000000000a $d
C:\Users\user\AppData\Local\Temp\ccdt2dNM.s:769    .text.Symvol_GetBitMap:00000000000000f4 $d
C:\Users\user\AppData\Local\Temp\ccdt2dNM.s:815    .text.NOS_WS2812B_Matrix_SetSymvol:0000000000000000 $t
C:\Users\user\AppData\Local\Temp\ccdt2dNM.s:822    .text.NOS_WS2812B_Matrix_SetSymvol:0000000000000000 NOS_WS2812B_Matrix_SetSymvol
C:\Users\user\AppData\Local\Temp\ccdt2dNM.s:882    .text.NOS_WS2812B_Matrix_PrintStaticString:0000000000000000 $t
C:\Users\user\AppData\Local\Temp\ccdt2dNM.s:889    .text.NOS_WS2812B_Matrix_PrintStaticString:0000000000000000 NOS_WS2812B_Matrix_PrintStaticString
C:\Users\user\AppData\Local\Temp\ccdt2dNM.s:955    .text.NOS_WS2812B_Matrix_PrintIntNumber:0000000000000000 $t
C:\Users\user\AppData\Local\Temp\ccdt2dNM.s:962    .text.NOS_WS2812B_Matrix_PrintIntNumber:0000000000000000 NOS_WS2812B_Matrix_PrintIntNumber
C:\Users\user\AppData\Local\Temp\ccdt2dNM.s:1183   .text.NOS_WS2812B_Matrix_PrintIntNumber:00000000000000f8 $d
C:\Users\user\AppData\Local\Temp\ccdt2dNM.s:1190   .rodata.NOS_WS2812B_Matrix_PrintFloatNumber.str1.4:0000000000000000 $d
C:\Users\user\AppData\Local\Temp\ccdt2dNM.s:1194   .text.NOS_WS2812B_Matrix_PrintFloatNumber:0000000000000000 $t
C:\Users\user\AppData\Local\Temp\ccdt2dNM.s:1201   .text.NOS_WS2812B_Matrix_PrintFloatNumber:0000000000000000 NOS_WS2812B_Matrix_PrintFloatNumber
C:\Users\user\AppData\Local\Temp\ccdt2dNM.s:1285   .text.NOS_WS2812B_Matrix_PrintFloatNumber:0000000000000054 $d
C:\Users\user\AppData\Local\Temp\ccdt2dNM.s:1617   .data.Num_9:0000000000000000 Num_9
C:\Users\user\AppData\Local\Temp\ccdt2dNM.s:1610   .data.Num_8:0000000000000000 Num_8
C:\Users\user\AppData\Local\Temp\ccdt2dNM.s:1603   .data.Num_7:0000000000000000 Num_7
C:\Users\user\AppData\Local\Temp\ccdt2dNM.s:1596   .data.Num_6:0000000000000000 Num_6
C:\Users\user\AppData\Local\Temp\ccdt2dNM.s:1589   .data.Num_5:0000000000000000 Num_5
C:\Users\user\AppData\Local\Temp\ccdt2dNM.s:1582   .data.Num_4:0000000000000000 Num_4
C:\Users\user\AppData\Local\Temp\ccdt2dNM.s:1575   .data.Num_3:0000000000000000 Num_3
C:\Users\user\AppData\Local\Temp\ccdt2dNM.s:1568   .data.Num_2:0000000000000000 Num_2
C:\Users\user\AppData\Local\Temp\ccdt2dNM.s:1561   .data.Num_1:0000000000000000 Num_1
C:\Users\user\AppData\Local\Temp\ccdt2dNM.s:1554   .data.Num_0:0000000000000000 Num_0
C:\Users\user\AppData\Local\Temp\ccdt2dNM.s:1345   .data.Celcium:0000000000000000 Celcium
C:\Users\user\AppData\Local\Temp\ccdt2dNM.s:1547   .data.Multiply:0000000000000000 Multiply
C:\Users\user\AppData\Local\Temp\ccdt2dNM.s:1541   .data.Minus:0000000000000000 Minus
C:\Users\user\AppData\Local\Temp\ccdt2dNM.s:1624   .data.Plus:0000000000000000 Plus
C:\Users\user\AppData\Local\Temp\ccdt2dNM.s:1631   .data.Slash:0000000000000000 Slash
C:\Users\user\AppData\Local\Temp\ccdt2dNM.s:1352   .data.Dot:0000000000000000 Dot
C:\Users\user\AppData\Local\Temp\ccdt2dNM.s:1338   .bss.Space:0000000000000000 Space
C:\Users\user\AppData\Local\Temp\ccdt2dNM.s:1534   .data.Eng_Z:0000000000000000 Eng_Z
C:\Users\user\AppData\Local\Temp\ccdt2dNM.s:1527   .data.Eng_Y:0000000000000000 Eng_Y
C:\Users\user\AppData\Local\Temp\ccdt2dNM.s:1520   .data.Eng_X:0000000000000000 Eng_X
C:\Users\user\AppData\Local\Temp\ccdt2dNM.s:1513   .data.Eng_W:0000000000000000 Eng_W
C:\Users\user\AppData\Local\Temp\ccdt2dNM.s:1506   .data.Eng_V:0000000000000000 Eng_V
C:\Users\user\AppData\Local\Temp\ccdt2dNM.s:1499   .data.Eng_U:0000000000000000 Eng_U
C:\Users\user\AppData\Local\Temp\ccdt2dNM.s:1492   .data.Eng_T:0000000000000000 Eng_T
C:\Users\user\AppData\Local\Temp\ccdt2dNM.s:1485   .data.Eng_S:0000000000000000 Eng_S
C:\Users\user\AppData\Local\Temp\ccdt2dNM.s:1478   .data.Eng_R:0000000000000000 Eng_R
C:\Users\user\AppData\Local\Temp\ccdt2dNM.s:1471   .data.Eng_Q:0000000000000000 Eng_Q
C:\Users\user\AppData\Local\Temp\ccdt2dNM.s:1464   .data.Eng_P:0000000000000000 Eng_P
C:\Users\user\AppData\Local\Temp\ccdt2dNM.s:1457   .data.Eng_O:0000000000000000 Eng_O
C:\Users\user\AppData\Local\Temp\ccdt2dNM.s:1450   .data.Eng_N:0000000000000000 Eng_N
C:\Users\user\AppData\Local\Temp\ccdt2dNM.s:1443   .data.Eng_M:0000000000000000 Eng_M
ARM GAS  C:\Users\user\AppData\Local\Temp\ccdt2dNM.s 			page 40


C:\Users\user\AppData\Local\Temp\ccdt2dNM.s:1436   .data.Eng_L:0000000000000000 Eng_L
C:\Users\user\AppData\Local\Temp\ccdt2dNM.s:1429   .data.Eng_K:0000000000000000 Eng_K
C:\Users\user\AppData\Local\Temp\ccdt2dNM.s:1422   .data.Eng_J:0000000000000000 Eng_J
C:\Users\user\AppData\Local\Temp\ccdt2dNM.s:1415   .data.Eng_I:0000000000000000 Eng_I
C:\Users\user\AppData\Local\Temp\ccdt2dNM.s:1408   .data.Eng_H:0000000000000000 Eng_H
C:\Users\user\AppData\Local\Temp\ccdt2dNM.s:1401   .data.Eng_G:0000000000000000 Eng_G
C:\Users\user\AppData\Local\Temp\ccdt2dNM.s:1394   .data.Eng_F:0000000000000000 Eng_F
C:\Users\user\AppData\Local\Temp\ccdt2dNM.s:1387   .data.Eng_E:0000000000000000 Eng_E
C:\Users\user\AppData\Local\Temp\ccdt2dNM.s:1380   .data.Eng_D:0000000000000000 Eng_D
C:\Users\user\AppData\Local\Temp\ccdt2dNM.s:1373   .data.Eng_C:0000000000000000 Eng_C
C:\Users\user\AppData\Local\Temp\ccdt2dNM.s:1366   .data.Eng_B:0000000000000000 Eng_B
C:\Users\user\AppData\Local\Temp\ccdt2dNM.s:1359   .data.Eng_A:0000000000000000 Eng_A
C:\Users\user\AppData\Local\Temp\ccdt2dNM.s:1334   .bss.Space:0000000000000000 $d
C:\Users\user\AppData\Local\Temp\ccdt2dNM.s:1341   .data.Celcium:0000000000000000 $d
C:\Users\user\AppData\Local\Temp\ccdt2dNM.s:1348   .data.Dot:0000000000000000 $d
C:\Users\user\AppData\Local\Temp\ccdt2dNM.s:1355   .data.Eng_A:0000000000000000 $d
C:\Users\user\AppData\Local\Temp\ccdt2dNM.s:1362   .data.Eng_B:0000000000000000 $d
C:\Users\user\AppData\Local\Temp\ccdt2dNM.s:1369   .data.Eng_C:0000000000000000 $d
C:\Users\user\AppData\Local\Temp\ccdt2dNM.s:1376   .data.Eng_D:0000000000000000 $d
C:\Users\user\AppData\Local\Temp\ccdt2dNM.s:1383   .data.Eng_E:0000000000000000 $d
C:\Users\user\AppData\Local\Temp\ccdt2dNM.s:1390   .data.Eng_F:0000000000000000 $d
C:\Users\user\AppData\Local\Temp\ccdt2dNM.s:1397   .data.Eng_G:0000000000000000 $d
C:\Users\user\AppData\Local\Temp\ccdt2dNM.s:1404   .data.Eng_H:0000000000000000 $d
C:\Users\user\AppData\Local\Temp\ccdt2dNM.s:1411   .data.Eng_I:0000000000000000 $d
C:\Users\user\AppData\Local\Temp\ccdt2dNM.s:1418   .data.Eng_J:0000000000000000 $d
C:\Users\user\AppData\Local\Temp\ccdt2dNM.s:1425   .data.Eng_K:0000000000000000 $d
C:\Users\user\AppData\Local\Temp\ccdt2dNM.s:1432   .data.Eng_L:0000000000000000 $d
C:\Users\user\AppData\Local\Temp\ccdt2dNM.s:1439   .data.Eng_M:0000000000000000 $d
C:\Users\user\AppData\Local\Temp\ccdt2dNM.s:1446   .data.Eng_N:0000000000000000 $d
C:\Users\user\AppData\Local\Temp\ccdt2dNM.s:1453   .data.Eng_O:0000000000000000 $d
C:\Users\user\AppData\Local\Temp\ccdt2dNM.s:1460   .data.Eng_P:0000000000000000 $d
C:\Users\user\AppData\Local\Temp\ccdt2dNM.s:1467   .data.Eng_Q:0000000000000000 $d
C:\Users\user\AppData\Local\Temp\ccdt2dNM.s:1474   .data.Eng_R:0000000000000000 $d
C:\Users\user\AppData\Local\Temp\ccdt2dNM.s:1481   .data.Eng_S:0000000000000000 $d
C:\Users\user\AppData\Local\Temp\ccdt2dNM.s:1488   .data.Eng_T:0000000000000000 $d
C:\Users\user\AppData\Local\Temp\ccdt2dNM.s:1495   .data.Eng_U:0000000000000000 $d
C:\Users\user\AppData\Local\Temp\ccdt2dNM.s:1502   .data.Eng_V:0000000000000000 $d
C:\Users\user\AppData\Local\Temp\ccdt2dNM.s:1509   .data.Eng_W:0000000000000000 $d
C:\Users\user\AppData\Local\Temp\ccdt2dNM.s:1516   .data.Eng_X:0000000000000000 $d
C:\Users\user\AppData\Local\Temp\ccdt2dNM.s:1523   .data.Eng_Y:0000000000000000 $d
C:\Users\user\AppData\Local\Temp\ccdt2dNM.s:1530   .data.Eng_Z:0000000000000000 $d
C:\Users\user\AppData\Local\Temp\ccdt2dNM.s:1537   .data.Minus:0000000000000000 $d
C:\Users\user\AppData\Local\Temp\ccdt2dNM.s:1544   .data.Multiply:0000000000000000 $d
C:\Users\user\AppData\Local\Temp\ccdt2dNM.s:1550   .data.Num_0:0000000000000000 $d
C:\Users\user\AppData\Local\Temp\ccdt2dNM.s:1557   .data.Num_1:0000000000000000 $d
C:\Users\user\AppData\Local\Temp\ccdt2dNM.s:1564   .data.Num_2:0000000000000000 $d
C:\Users\user\AppData\Local\Temp\ccdt2dNM.s:1571   .data.Num_3:0000000000000000 $d
C:\Users\user\AppData\Local\Temp\ccdt2dNM.s:1578   .data.Num_4:0000000000000000 $d
C:\Users\user\AppData\Local\Temp\ccdt2dNM.s:1585   .data.Num_5:0000000000000000 $d
C:\Users\user\AppData\Local\Temp\ccdt2dNM.s:1592   .data.Num_6:0000000000000000 $d
C:\Users\user\AppData\Local\Temp\ccdt2dNM.s:1599   .data.Num_7:0000000000000000 $d
C:\Users\user\AppData\Local\Temp\ccdt2dNM.s:1606   .data.Num_8:0000000000000000 $d
C:\Users\user\AppData\Local\Temp\ccdt2dNM.s:1613   .data.Num_9:0000000000000000 $d
C:\Users\user\AppData\Local\Temp\ccdt2dNM.s:1620   .data.Plus:0000000000000000 $d
C:\Users\user\AppData\Local\Temp\ccdt2dNM.s:1627   .data.Slash:0000000000000000 $d
C:\Users\user\AppData\Local\Temp\ccdt2dNM.s:509    .text.Symvol_GetBitMap:0000000000000045 $d
C:\Users\user\AppData\Local\Temp\ccdt2dNM.s:509    .text.Symvol_GetBitMap:0000000000000046 $t
ARM GAS  C:\Users\user\AppData\Local\Temp\ccdt2dNM.s 			page 41



UNDEFINED SYMBOLS
NOS_Math_NormalizeValue
__aeabi_i2d
__aeabi_ddiv
__aeabi_d2uiz
__aeabi_dmul
__aeabi_dsub
__aeabi_d2iz
pow
