ARM GAS  C:\Users\user\AppData\Local\Temp\ccD2C8ei.s 			page 1


   1              		.cpu cortex-m4
   2              		.eabi_attribute 27, 1
   3              		.eabi_attribute 28, 1
   4              		.eabi_attribute 20, 1
   5              		.eabi_attribute 21, 1
   6              		.eabi_attribute 23, 3
   7              		.eabi_attribute 24, 1
   8              		.eabi_attribute 25, 1
   9              		.eabi_attribute 26, 1
  10              		.eabi_attribute 30, 1
  11              		.eabi_attribute 34, 1
  12              		.eabi_attribute 18, 4
  13              		.file	"WS2812B.c"
  14              		.text
  15              	.Ltext0:
  16              		.cfi_sections	.debug_frame
  17              		.section	.text.NOS_WS2812B_Matrix_BaseInit,"ax",%progbits
  18              		.align	1
  19              		.global	NOS_WS2812B_Matrix_BaseInit
  20              		.arch armv7e-m
  21              		.syntax unified
  22              		.thumb
  23              		.thumb_func
  24              		.fpu fpv4-sp-d16
  26              	NOS_WS2812B_Matrix_BaseInit:
  27              	.LVL0:
  28              	.LFB130:
  29              		.file 1 "Core/Src/NOS_LIB_Driver/Src/WS2812B.c"
   1:Core/Src/NOS_LIB_Driver/Src/WS2812B.c **** #include "WS2812B.h"
   2:Core/Src/NOS_LIB_Driver/Src/WS2812B.c **** #include "CharLib(7x5).h"
   3:Core/Src/NOS_LIB_Driver/Src/WS2812B.c **** #include <stdbool.h>
   4:Core/Src/NOS_LIB_Driver/Src/WS2812B.c **** #include "NOS_Math.h"
   5:Core/Src/NOS_LIB_Driver/Src/WS2812B.c **** 
   6:Core/Src/NOS_LIB_Driver/Src/WS2812B.c **** void NOS_WS2812B_Matrix_BaseInit(WS2812B_Matrix* matrix,uint8_t* buff,uint16_t ledsCount)
   7:Core/Src/NOS_LIB_Driver/Src/WS2812B.c **** {
  30              		.loc 1 7 1 view -0
  31              		.cfi_startproc
  32              		@ args = 0, pretend = 0, frame = 0
  33              		@ frame_needed = 0, uses_anonymous_args = 0
  34              		@ link register save eliminated.
   8:Core/Src/NOS_LIB_Driver/Src/WS2812B.c ****      matrix->buffer = buff;
  35              		.loc 1 8 6 view .LVU1
  36              		.loc 1 8 21 is_stmt 0 view .LVU2
  37 0000 0160     		str	r1, [r0]
   9:Core/Src/NOS_LIB_Driver/Src/WS2812B.c ****      matrix->ledsCount.data = ledsCount;
  38              		.loc 1 9 6 is_stmt 1 view .LVU3
  39              		.loc 1 9 29 is_stmt 0 view .LVU4
  40 0002 C280     		strh	r2, [r0, #6]	@ movhi
  10:Core/Src/NOS_LIB_Driver/Src/WS2812B.c **** }
  41              		.loc 1 10 1 view .LVU5
  42 0004 7047     		bx	lr
  43              		.cfi_endproc
  44              	.LFE130:
  46              		.section	.text.NOS_WS2812B_Matrix_FullInit,"ax",%progbits
  47              		.align	1
  48              		.global	NOS_WS2812B_Matrix_FullInit
  49              		.syntax unified
ARM GAS  C:\Users\user\AppData\Local\Temp\ccD2C8ei.s 			page 2


  50              		.thumb
  51              		.thumb_func
  52              		.fpu fpv4-sp-d16
  54              	NOS_WS2812B_Matrix_FullInit:
  55              	.LVL1:
  56              	.LFB131:
  11:Core/Src/NOS_LIB_Driver/Src/WS2812B.c **** 
  12:Core/Src/NOS_LIB_Driver/Src/WS2812B.c **** void NOS_WS2812B_Matrix_FullInit(WS2812B_Matrix* matrix,uint8_t* buff,MatrixSize* size,PixelColor* 
  13:Core/Src/NOS_LIB_Driver/Src/WS2812B.c **** {
  57              		.loc 1 13 1 is_stmt 1 view -0
  58              		.cfi_startproc
  59              		@ args = 12, pretend = 0, frame = 0
  60              		@ frame_needed = 0, uses_anonymous_args = 0
  61              		@ link register save eliminated.
  14:Core/Src/NOS_LIB_Driver/Src/WS2812B.c ****     matrix->buffer = buff;
  62              		.loc 1 14 5 view .LVU7
  63              		.loc 1 14 20 is_stmt 0 view .LVU8
  64 0000 0160     		str	r1, [r0]
  15:Core/Src/NOS_LIB_Driver/Src/WS2812B.c ****     matrix->symvols = symvols;
  65              		.loc 1 15 5 is_stmt 1 view .LVU9
  66              		.loc 1 15 21 is_stmt 0 view .LVU10
  67 0002 0199     		ldr	r1, [sp, #4]
  68              	.LVL2:
  69              		.loc 1 15 21 view .LVU11
  70 0004 4161     		str	r1, [r0, #20]
  16:Core/Src/NOS_LIB_Driver/Src/WS2812B.c ****     matrix->textColor = text;
  71              		.loc 1 16 5 is_stmt 1 view .LVU12
  72              		.loc 1 16 23 is_stmt 0 view .LVU13
  73 0006 C360     		str	r3, [r0, #12]
  17:Core/Src/NOS_LIB_Driver/Src/WS2812B.c ****     matrix->foneColor = fone;
  74              		.loc 1 17 5 is_stmt 1 view .LVU14
  75              		.loc 1 17 23 is_stmt 0 view .LVU15
  76 0008 009B     		ldr	r3, [sp]
  77              	.LVL3:
  78              		.loc 1 17 23 view .LVU16
  79 000a 0361     		str	r3, [r0, #16]
  18:Core/Src/NOS_LIB_Driver/Src/WS2812B.c ****     matrix->size = size;
  80              		.loc 1 18 5 is_stmt 1 view .LVU17
  81              		.loc 1 18 18 is_stmt 0 view .LVU18
  82 000c 8260     		str	r2, [r0, #8]
  19:Core/Src/NOS_LIB_Driver/Src/WS2812B.c ****     matrix->bright = bright;
  83              		.loc 1 19 5 is_stmt 1 view .LVU19
  84              		.loc 1 19 20 is_stmt 0 view .LVU20
  85 000e 9DF80830 		ldrb	r3, [sp, #8]	@ zero_extendqisi2
  86 0012 0371     		strb	r3, [r0, #4]
  20:Core/Src/NOS_LIB_Driver/Src/WS2812B.c **** }
  87              		.loc 1 20 1 view .LVU21
  88 0014 7047     		bx	lr
  89              		.cfi_endproc
  90              	.LFE131:
  92              		.section	.text.NOS_WS2812B_Matrix_SetPixel,"ax",%progbits
  93              		.align	1
  94              		.global	NOS_WS2812B_Matrix_SetPixel
  95              		.syntax unified
  96              		.thumb
  97              		.thumb_func
  98              		.fpu fpv4-sp-d16
ARM GAS  C:\Users\user\AppData\Local\Temp\ccD2C8ei.s 			page 3


 100              	NOS_WS2812B_Matrix_SetPixel:
 101              	.LVL4:
 102              	.LFB132:
  21:Core/Src/NOS_LIB_Driver/Src/WS2812B.c **** 
  22:Core/Src/NOS_LIB_Driver/Src/WS2812B.c **** void NOS_WS2812B_Matrix_SetPixel(WS2812B_Matrix* matrix,PixelColor* color,uint16_t pixelPos)
  23:Core/Src/NOS_LIB_Driver/Src/WS2812B.c **** {
 103              		.loc 1 23 1 is_stmt 1 view -0
 104              		.cfi_startproc
 105              		@ args = 0, pretend = 0, frame = 0
 106              		@ frame_needed = 0, uses_anonymous_args = 0
 107              		@ link register save eliminated.
 108              		.loc 1 23 1 is_stmt 0 view .LVU23
 109 0000 30B4     		push	{r4, r5}
 110              	.LCFI0:
 111              		.cfi_def_cfa_offset 8
 112              		.cfi_offset 4, -8
 113              		.cfi_offset 5, -4
  24:Core/Src/NOS_LIB_Driver/Src/WS2812B.c ****     float curr = 0;
 114              		.loc 1 24 5 is_stmt 1 view .LVU24
 115              	.LVL5:
  25:Core/Src/NOS_LIB_Driver/Src/WS2812B.c ****     curr = (color->R / 100) * matrix->bright;
 116              		.loc 1 25 5 view .LVU25
 117              		.loc 1 25 18 is_stmt 0 view .LVU26
 118 0002 91F800C0 		ldrb	ip, [r1]	@ zero_extendqisi2
 119              		.loc 1 25 22 view .LVU27
 120 0006 1F4C     		ldr	r4, .L5
 121 0008 A4FB0C3C 		umull	r3, ip, r4, ip
 122 000c 4FEA5C1C 		lsr	ip, ip, #5
 123              		.loc 1 25 37 view .LVU28
 124 0010 0379     		ldrb	r3, [r0, #4]	@ zero_extendqisi2
 125              		.loc 1 25 29 view .LVU29
 126 0012 03FB0CFC 		mul	ip, r3, ip
 127              		.loc 1 25 10 view .LVU30
 128 0016 07EE90CA 		vmov	s15, ip	@ int
 129 001a F8EEE77A 		vcvt.f32.s32	s15, s15
 130              	.LVL6:
  26:Core/Src/NOS_LIB_Driver/Src/WS2812B.c ****     matrix->buffer[pixelPos * 3] = (uint8_t)curr;
 131              		.loc 1 26 5 is_stmt 1 view .LVU31
 132              		.loc 1 26 11 is_stmt 0 view .LVU32
 133 001e 0368     		ldr	r3, [r0]
 134              		.loc 1 26 29 view .LVU33
 135 0020 02EB4202 		add	r2, r2, r2, lsl #1
 136              	.LVL7:
 137              		.loc 1 26 36 view .LVU34
 138 0024 FCEEE77A 		vcvt.u32.f32	s15, s15
 139              	.LVL8:
 140              		.loc 1 26 36 view .LVU35
 141 0028 17EE90CA 		vmov	ip, s15	@ int
 142              	.LVL9:
 143              		.loc 1 26 34 view .LVU36
 144 002c 03F802C0 		strb	ip, [r3, r2]
 145              	.LVL10:
  27:Core/Src/NOS_LIB_Driver/Src/WS2812B.c ****     curr = (color->G / 100) * matrix->bright;
 146              		.loc 1 27 5 is_stmt 1 view .LVU37
 147              		.loc 1 27 18 is_stmt 0 view .LVU38
 148 0030 91F801C0 		ldrb	ip, [r1, #1]	@ zero_extendqisi2
 149              		.loc 1 27 22 view .LVU39
ARM GAS  C:\Users\user\AppData\Local\Temp\ccD2C8ei.s 			page 4


 150 0034 A4FB0C3C 		umull	r3, ip, r4, ip
 151 0038 4FEA5C1C 		lsr	ip, ip, #5
 152              		.loc 1 27 37 view .LVU40
 153 003c 0379     		ldrb	r3, [r0, #4]	@ zero_extendqisi2
 154              		.loc 1 27 29 view .LVU41
 155 003e 03FB0CFC 		mul	ip, r3, ip
 156              		.loc 1 27 10 view .LVU42
 157 0042 07EE90CA 		vmov	s15, ip	@ int
 158 0046 F8EEE77A 		vcvt.f32.s32	s15, s15
 159              	.LVL11:
  28:Core/Src/NOS_LIB_Driver/Src/WS2812B.c ****     matrix->buffer[pixelPos * 3 + 1] = (uint8_t)curr;
 160              		.loc 1 28 5 is_stmt 1 view .LVU43
 161              		.loc 1 28 19 is_stmt 0 view .LVU44
 162 004a 531C     		adds	r3, r2, #1
 163              		.loc 1 28 40 view .LVU45
 164 004c FCEEE77A 		vcvt.u32.f32	s15, s15
 165              	.LVL12:
 166              		.loc 1 28 40 view .LVU46
 167 0050 17EE90CA 		vmov	ip, s15	@ int
 168              	.LVL13:
 169              		.loc 1 28 38 view .LVU47
 170 0054 0568     		ldr	r5, [r0]
 171 0056 05F803C0 		strb	ip, [r5, r3]
 172              	.LVL14:
  29:Core/Src/NOS_LIB_Driver/Src/WS2812B.c ****     curr = (color->B / 100) * matrix->bright;
 173              		.loc 1 29 5 is_stmt 1 view .LVU48
 174              		.loc 1 29 18 is_stmt 0 view .LVU49
 175 005a 8B78     		ldrb	r3, [r1, #2]	@ zero_extendqisi2
 176              		.loc 1 29 22 view .LVU50
 177 005c A4FB0313 		umull	r1, r3, r4, r3
 178              	.LVL15:
 179              		.loc 1 29 22 view .LVU51
 180 0060 5B09     		lsrs	r3, r3, #5
 181              		.loc 1 29 37 view .LVU52
 182 0062 0179     		ldrb	r1, [r0, #4]	@ zero_extendqisi2
 183              		.loc 1 29 29 view .LVU53
 184 0064 01FB03F3 		mul	r3, r1, r3
 185              		.loc 1 29 10 view .LVU54
 186 0068 07EE903A 		vmov	s15, r3	@ int
 187 006c F8EEE77A 		vcvt.f32.s32	s15, s15
 188              	.LVL16:
  30:Core/Src/NOS_LIB_Driver/Src/WS2812B.c ****     matrix->buffer[pixelPos * 3 + 2] = (uint8_t)curr;
 189              		.loc 1 30 5 is_stmt 1 view .LVU55
 190              		.loc 1 30 11 is_stmt 0 view .LVU56
 191 0070 0168     		ldr	r1, [r0]
 192              		.loc 1 30 19 view .LVU57
 193 0072 0232     		adds	r2, r2, #2
 194              		.loc 1 30 40 view .LVU58
 195 0074 FCEEE77A 		vcvt.u32.f32	s15, s15
 196              	.LVL17:
 197              		.loc 1 30 40 view .LVU59
 198 0078 17EE903A 		vmov	r3, s15	@ int
 199              	.LVL18:
 200              		.loc 1 30 38 view .LVU60
 201 007c 8B54     		strb	r3, [r1, r2]
 202              	.LVL19:
  31:Core/Src/NOS_LIB_Driver/Src/WS2812B.c **** }
ARM GAS  C:\Users\user\AppData\Local\Temp\ccD2C8ei.s 			page 5


 203              		.loc 1 31 1 view .LVU61
 204 007e 30BC     		pop	{r4, r5}
 205              	.LCFI1:
 206              		.cfi_restore 5
 207              		.cfi_restore 4
 208              		.cfi_def_cfa_offset 0
 209 0080 7047     		bx	lr
 210              	.L6:
 211 0082 00BF     		.align	2
 212              	.L5:
 213 0084 1F85EB51 		.word	1374389535
 214              		.cfi_endproc
 215              	.LFE132:
 217              		.section	.text.GetPixelPos,"ax",%progbits
 218              		.align	1
 219              		.global	GetPixelPos
 220              		.syntax unified
 221              		.thumb
 222              		.thumb_func
 223              		.fpu fpv4-sp-d16
 225              	GetPixelPos:
 226              	.LVL20:
 227              	.LFB133:
  32:Core/Src/NOS_LIB_Driver/Src/WS2812B.c **** 
  33:Core/Src/NOS_LIB_Driver/Src/WS2812B.c **** uint16_t GetPixelPos(uint8_t x, uint8_t y)
  34:Core/Src/NOS_LIB_Driver/Src/WS2812B.c **** {
 228              		.loc 1 34 1 is_stmt 1 view -0
 229              		.cfi_startproc
 230              		@ args = 0, pretend = 0, frame = 0
 231              		@ frame_needed = 0, uses_anonymous_args = 0
 232              		@ link register save eliminated.
  35:Core/Src/NOS_LIB_Driver/Src/WS2812B.c ****     if (x % 2 == 0)
 233              		.loc 1 35 5 view .LVU63
 234              		.loc 1 35 8 is_stmt 0 view .LVU64
 235 0000 10F0010F 		tst	r0, #1
 236 0004 02D1     		bne	.L8
  36:Core/Src/NOS_LIB_Driver/Src/WS2812B.c ****     {
  37:Core/Src/NOS_LIB_Driver/Src/WS2812B.c ****         return (x * 8) + y;
 237              		.loc 1 37 9 is_stmt 1 view .LVU65
 238              		.loc 1 37 24 is_stmt 0 view .LVU66
 239 0006 01EBC000 		add	r0, r1, r0, lsl #3
 240              	.LVL21:
 241              		.loc 1 37 24 view .LVU67
 242 000a 7047     		bx	lr
 243              	.LVL22:
 244              	.L8:
  38:Core/Src/NOS_LIB_Driver/Src/WS2812B.c ****     }
  39:Core/Src/NOS_LIB_Driver/Src/WS2812B.c ****     else
  40:Core/Src/NOS_LIB_Driver/Src/WS2812B.c ****     {
  41:Core/Src/NOS_LIB_Driver/Src/WS2812B.c ****         return(x * 8) + (8 - y);
 245              		.loc 1 41 9 is_stmt 1 view .LVU68
 246              		.loc 1 41 23 is_stmt 0 view .LVU69
 247 000c C1EBC000 		rsb	r0, r1, r0, lsl #3
 248              	.LVL23:
 249              		.loc 1 41 23 view .LVU70
 250 0010 0830     		adds	r0, r0, #8
 251 0012 80B2     		uxth	r0, r0
ARM GAS  C:\Users\user\AppData\Local\Temp\ccD2C8ei.s 			page 6


  42:Core/Src/NOS_LIB_Driver/Src/WS2812B.c ****     }
  43:Core/Src/NOS_LIB_Driver/Src/WS2812B.c **** }
 252              		.loc 1 43 1 view .LVU71
 253 0014 7047     		bx	lr
 254              		.cfi_endproc
 255              	.LFE133:
 257              		.section	.text.NOS_WS2812B_Matrix_Update,"ax",%progbits
 258              		.align	1
 259              		.global	NOS_WS2812B_Matrix_Update
 260              		.syntax unified
 261              		.thumb
 262              		.thumb_func
 263              		.fpu fpv4-sp-d16
 265              	NOS_WS2812B_Matrix_Update:
 266              	.LVL24:
 267              	.LFB134:
  44:Core/Src/NOS_LIB_Driver/Src/WS2812B.c **** 
  45:Core/Src/NOS_LIB_Driver/Src/WS2812B.c **** void NOS_WS2812B_Matrix_Update(WS2812B_Matrix* matrix,uint16_t offset)
  46:Core/Src/NOS_LIB_Driver/Src/WS2812B.c **** {
 268              		.loc 1 46 1 is_stmt 1 view -0
 269              		.cfi_startproc
 270              		@ args = 0, pretend = 0, frame = 8
 271              		@ frame_needed = 0, uses_anonymous_args = 0
 272              		.loc 1 46 1 is_stmt 0 view .LVU73
 273 0000 2DE9F04F 		push	{r4, r5, r6, r7, r8, r9, r10, fp, lr}
 274              	.LCFI2:
 275              		.cfi_def_cfa_offset 36
 276              		.cfi_offset 4, -36
 277              		.cfi_offset 5, -32
 278              		.cfi_offset 6, -28
 279              		.cfi_offset 7, -24
 280              		.cfi_offset 8, -20
 281              		.cfi_offset 9, -16
 282              		.cfi_offset 10, -12
 283              		.cfi_offset 11, -8
 284              		.cfi_offset 14, -4
 285 0004 83B0     		sub	sp, sp, #12
 286              	.LCFI3:
 287              		.cfi_def_cfa_offset 48
 288 0006 0446     		mov	r4, r0
 289 0008 0E46     		mov	r6, r1
  47:Core/Src/NOS_LIB_Driver/Src/WS2812B.c ****      uint16_t currColumn = offset;
 290              		.loc 1 47 6 is_stmt 1 view .LVU74
 291              	.LVL25:
  48:Core/Src/NOS_LIB_Driver/Src/WS2812B.c ****      uint8_t currByte = 0;
 292              		.loc 1 48 6 view .LVU75
  49:Core/Src/NOS_LIB_Driver/Src/WS2812B.c ****      bool bit = false;
 293              		.loc 1 49 6 view .LVU76
  50:Core/Src/NOS_LIB_Driver/Src/WS2812B.c ****      uint8_t symvolCount = matrix->size->col / 6;
 294              		.loc 1 50 6 view .LVU77
 295              		.loc 1 50 34 is_stmt 0 view .LVU78
 296 000a 8368     		ldr	r3, [r0, #8]
 297              		.loc 1 50 40 view .LVU79
 298 000c 93F80080 		ldrb	r8, [r3]	@ zero_extendqisi2
 299              		.loc 1 50 14 view .LVU80
 300 0010 4B4B     		ldr	r3, .L31
 301 0012 A3FB0823 		umull	r2, r3, r3, r8
ARM GAS  C:\Users\user\AppData\Local\Temp\ccD2C8ei.s 			page 7


 302 0016 9B08     		lsrs	r3, r3, #2
 303 0018 0193     		str	r3, [sp, #4]
 304              	.LVL26:
  51:Core/Src/NOS_LIB_Driver/Src/WS2812B.c ****      uint8_t colls = matrix->size->col;
 305              		.loc 1 51 6 is_stmt 1 view .LVU81
  52:Core/Src/NOS_LIB_Driver/Src/WS2812B.c ****      //kastil
  53:Core/Src/NOS_LIB_Driver/Src/WS2812B.c ****      if(symvolCount > 15)
 306              		.loc 1 53 6 view .LVU82
 307              		.loc 1 53 8 is_stmt 0 view .LVU83
 308 001a B8F15F0F 		cmp	r8, #95
 309 001e 02D9     		bls	.L11
  54:Core/Src/NOS_LIB_Driver/Src/WS2812B.c ****      {
  55:Core/Src/NOS_LIB_Driver/Src/WS2812B.c ****         symvolCount--;
 310              		.loc 1 55 9 is_stmt 1 view .LVU84
 311              		.loc 1 55 20 is_stmt 0 view .LVU85
 312 0020 013B     		subs	r3, r3, #1
 313              	.LVL27:
 314              		.loc 1 55 20 view .LVU86
 315 0022 DBB2     		uxtb	r3, r3
 316 0024 0193     		str	r3, [sp, #4]
 317              	.LVL28:
 318              	.L11:
  56:Core/Src/NOS_LIB_Driver/Src/WS2812B.c ****      }
  57:Core/Src/NOS_LIB_Driver/Src/WS2812B.c ****      int currX = 0;
 319              		.loc 1 57 6 is_stmt 1 view .LVU87
  58:Core/Src/NOS_LIB_Driver/Src/WS2812B.c **** 
  59:Core/Src/NOS_LIB_Driver/Src/WS2812B.c ****      for(int currSymvol = 0; currSymvol < symvolCount; currSymvol++)
 320              		.loc 1 59 6 view .LVU88
 321              	.LBB2:
 322              		.loc 1 59 10 view .LVU89
 323              		.loc 1 59 14 is_stmt 0 view .LVU90
 324 0026 0023     		movs	r3, #0
 325 0028 0093     		str	r3, [sp]
 326              		.loc 1 59 6 view .LVU91
 327 002a 7EE0     		b	.L12
 328              	.LVL29:
 329              	.L15:
 330              	.LBB3:
 331              	.LBB4:
  60:Core/Src/NOS_LIB_Driver/Src/WS2812B.c ****      {
  61:Core/Src/NOS_LIB_Driver/Src/WS2812B.c ****         for(int Column = 0; Column < 5 ; Column++)
  62:Core/Src/NOS_LIB_Driver/Src/WS2812B.c ****         {
  63:Core/Src/NOS_LIB_Driver/Src/WS2812B.c ****             currByte = matrix->symvols[currSymvol].data[Column];
  64:Core/Src/NOS_LIB_Driver/Src/WS2812B.c **** 
  65:Core/Src/NOS_LIB_Driver/Src/WS2812B.c ****                    if(currColumn == 17)
  66:Core/Src/NOS_LIB_Driver/Src/WS2812B.c ****                    {
  67:Core/Src/NOS_LIB_Driver/Src/WS2812B.c ****                        bit = false;
  68:Core/Src/NOS_LIB_Driver/Src/WS2812B.c ****                    }
  69:Core/Src/NOS_LIB_Driver/Src/WS2812B.c **** 
  70:Core/Src/NOS_LIB_Driver/Src/WS2812B.c ****             if(currColumn % 2 == 0)
  71:Core/Src/NOS_LIB_Driver/Src/WS2812B.c ****             {
  72:Core/Src/NOS_LIB_Driver/Src/WS2812B.c ****                currX = 0;
  73:Core/Src/NOS_LIB_Driver/Src/WS2812B.c ****                for(int currBit = 0; currBit < 8; currBit++)
  74:Core/Src/NOS_LIB_Driver/Src/WS2812B.c ****                {
  75:Core/Src/NOS_LIB_Driver/Src/WS2812B.c ****                    bit = ((1 << currBit) & currByte);
  76:Core/Src/NOS_LIB_Driver/Src/WS2812B.c ****                    if(bit)
  77:Core/Src/NOS_LIB_Driver/Src/WS2812B.c ****                    {
ARM GAS  C:\Users\user\AppData\Local\Temp\ccD2C8ei.s 			page 8


  78:Core/Src/NOS_LIB_Driver/Src/WS2812B.c ****                        NOS_WS2812B_Matrix_SetPixel(matrix,matrix->textColor,GetPixelPos(NOS_Math_No
  79:Core/Src/NOS_LIB_Driver/Src/WS2812B.c ****                    }
  80:Core/Src/NOS_LIB_Driver/Src/WS2812B.c ****                    else
  81:Core/Src/NOS_LIB_Driver/Src/WS2812B.c ****                    {
  82:Core/Src/NOS_LIB_Driver/Src/WS2812B.c ****                        NOS_WS2812B_Matrix_SetPixel(matrix,matrix->foneColor,GetPixelPos(NOS_Math_No
 332              		.loc 1 82 24 is_stmt 1 view .LVU92
 333 002c D4F810B0 		ldr	fp, [r4, #16]
 334              		.loc 1 82 89 is_stmt 0 view .LVU93
 335 0030 4146     		mov	r1, r8
 336 0032 3046     		mov	r0, r6
 337 0034 FFF7FEFF 		bl	NOS_Math_NormalizeValue
 338              	.LVL30:
 339              		.loc 1 82 24 view .LVU94
 340 0038 F9B2     		uxtb	r1, r7
 341 003a C0B2     		uxtb	r0, r0
 342 003c FFF7FEFF 		bl	GetPixelPos
 343              	.LVL31:
 344 0040 0246     		mov	r2, r0
 345 0042 5946     		mov	r1, fp
 346 0044 2046     		mov	r0, r4
 347 0046 FFF7FEFF 		bl	NOS_WS2812B_Matrix_SetPixel
 348              	.LVL32:
 349              	.L16:
  83:Core/Src/NOS_LIB_Driver/Src/WS2812B.c ****                    }
  84:Core/Src/NOS_LIB_Driver/Src/WS2812B.c ****                    currX++;
 350              		.loc 1 84 20 is_stmt 1 discriminator 2 view .LVU95
 351              		.loc 1 84 25 is_stmt 0 discriminator 2 view .LVU96
 352 004a 0137     		adds	r7, r7, #1
 353              	.LVL33:
  73:Core/Src/NOS_LIB_Driver/Src/WS2812B.c ****                {
 354              		.loc 1 73 50 is_stmt 1 discriminator 2 view .LVU97
  73:Core/Src/NOS_LIB_Driver/Src/WS2812B.c ****                {
 355              		.loc 1 73 57 is_stmt 0 discriminator 2 view .LVU98
 356 004c 0135     		adds	r5, r5, #1
 357              	.LVL34:
 358              	.L13:
  73:Core/Src/NOS_LIB_Driver/Src/WS2812B.c ****                {
 359              		.loc 1 73 37 is_stmt 1 discriminator 1 view .LVU99
  73:Core/Src/NOS_LIB_Driver/Src/WS2812B.c ****                {
 360              		.loc 1 73 16 is_stmt 0 discriminator 1 view .LVU100
 361 004e 072D     		cmp	r5, #7
 362 0050 3FDC     		bgt	.L18
  75:Core/Src/NOS_LIB_Driver/Src/WS2812B.c ****                    if(bit)
 363              		.loc 1 75 20 is_stmt 1 view .LVU101
  75:Core/Src/NOS_LIB_Driver/Src/WS2812B.c ****                    if(bit)
 364              		.loc 1 75 30 is_stmt 0 view .LVU102
 365 0052 0123     		movs	r3, #1
 366 0054 AB40     		lsls	r3, r3, r5
 367              	.LVL35:
  76:Core/Src/NOS_LIB_Driver/Src/WS2812B.c ****                    {
 368              		.loc 1 76 20 is_stmt 1 view .LVU103
  76:Core/Src/NOS_LIB_Driver/Src/WS2812B.c ****                    {
 369              		.loc 1 76 22 is_stmt 0 view .LVU104
 370 0056 19EA030F 		tst	r9, r3
 371 005a E7D0     		beq	.L15
  78:Core/Src/NOS_LIB_Driver/Src/WS2812B.c ****                    }
 372              		.loc 1 78 24 is_stmt 1 view .LVU105
ARM GAS  C:\Users\user\AppData\Local\Temp\ccD2C8ei.s 			page 9


 373 005c D4F80CB0 		ldr	fp, [r4, #12]
  78:Core/Src/NOS_LIB_Driver/Src/WS2812B.c ****                    }
 374              		.loc 1 78 89 is_stmt 0 view .LVU106
 375 0060 4146     		mov	r1, r8
 376 0062 3046     		mov	r0, r6
 377 0064 FFF7FEFF 		bl	NOS_Math_NormalizeValue
 378              	.LVL36:
  78:Core/Src/NOS_LIB_Driver/Src/WS2812B.c ****                    }
 379              		.loc 1 78 24 view .LVU107
 380 0068 F9B2     		uxtb	r1, r7
 381 006a C0B2     		uxtb	r0, r0
 382 006c FFF7FEFF 		bl	GetPixelPos
 383              	.LVL37:
 384 0070 0246     		mov	r2, r0
 385 0072 5946     		mov	r1, fp
 386 0074 2046     		mov	r0, r4
 387 0076 FFF7FEFF 		bl	NOS_WS2812B_Matrix_SetPixel
 388              	.LVL38:
 389 007a E6E7     		b	.L16
 390              	.LVL39:
 391              	.L26:
  73:Core/Src/NOS_LIB_Driver/Src/WS2812B.c ****                {
 392              		.loc 1 73 24 view .LVU108
 393 007c 0025     		movs	r5, #0
 394              	.LBE4:
  72:Core/Src/NOS_LIB_Driver/Src/WS2812B.c ****                for(int currBit = 0; currBit < 8; currBit++)
 395              		.loc 1 72 22 view .LVU109
 396 007e 2F46     		mov	r7, r5
 397 0080 E5E7     		b	.L13
 398              	.LVL40:
 399              	.L19:
 400              	.LBB5:
  85:Core/Src/NOS_LIB_Driver/Src/WS2812B.c ****                 }
  86:Core/Src/NOS_LIB_Driver/Src/WS2812B.c ****             }
  87:Core/Src/NOS_LIB_Driver/Src/WS2812B.c ****             else
  88:Core/Src/NOS_LIB_Driver/Src/WS2812B.c ****             {
  89:Core/Src/NOS_LIB_Driver/Src/WS2812B.c ****                currX = 1;
  90:Core/Src/NOS_LIB_Driver/Src/WS2812B.c ****                for(int currBit = 0; currBit < 8; currBit++)
  91:Core/Src/NOS_LIB_Driver/Src/WS2812B.c ****                {
  92:Core/Src/NOS_LIB_Driver/Src/WS2812B.c ****                    bit = ((1 << currBit) & currByte);
  93:Core/Src/NOS_LIB_Driver/Src/WS2812B.c **** 
  94:Core/Src/NOS_LIB_Driver/Src/WS2812B.c ****                    if(bit)
  95:Core/Src/NOS_LIB_Driver/Src/WS2812B.c ****                    {
  96:Core/Src/NOS_LIB_Driver/Src/WS2812B.c ****                        NOS_WS2812B_Matrix_SetPixel(matrix,matrix->textColor,GetPixelPos(NOS_Math_No
  97:Core/Src/NOS_LIB_Driver/Src/WS2812B.c ****                    }
  98:Core/Src/NOS_LIB_Driver/Src/WS2812B.c ****                    else
  99:Core/Src/NOS_LIB_Driver/Src/WS2812B.c ****                    {
 100:Core/Src/NOS_LIB_Driver/Src/WS2812B.c ****                        NOS_WS2812B_Matrix_SetPixel(matrix,matrix->foneColor,GetPixelPos(NOS_Math_No
 401              		.loc 1 100 24 is_stmt 1 view .LVU110
 402 0082 D4F810B0 		ldr	fp, [r4, #16]
 403              		.loc 1 100 89 is_stmt 0 view .LVU111
 404 0086 4146     		mov	r1, r8
 405 0088 3046     		mov	r0, r6
 406 008a FFF7FEFF 		bl	NOS_Math_NormalizeValue
 407              	.LVL41:
 408              		.loc 1 100 24 view .LVU112
 409 008e F9B2     		uxtb	r1, r7
ARM GAS  C:\Users\user\AppData\Local\Temp\ccD2C8ei.s 			page 10


 410 0090 C0B2     		uxtb	r0, r0
 411 0092 FFF7FEFF 		bl	GetPixelPos
 412              	.LVL42:
 413 0096 0246     		mov	r2, r0
 414 0098 5946     		mov	r1, fp
 415 009a 2046     		mov	r0, r4
 416 009c FFF7FEFF 		bl	NOS_WS2812B_Matrix_SetPixel
 417              	.LVL43:
 418              	.L20:
 101:Core/Src/NOS_LIB_Driver/Src/WS2812B.c ****                    }
 102:Core/Src/NOS_LIB_Driver/Src/WS2812B.c ****                    currX++;
 419              		.loc 1 102 20 is_stmt 1 discriminator 2 view .LVU113
 420              		.loc 1 102 25 is_stmt 0 discriminator 2 view .LVU114
 421 00a0 0137     		adds	r7, r7, #1
 422              	.LVL44:
  90:Core/Src/NOS_LIB_Driver/Src/WS2812B.c ****                {
 423              		.loc 1 90 50 is_stmt 1 discriminator 2 view .LVU115
  90:Core/Src/NOS_LIB_Driver/Src/WS2812B.c ****                {
 424              		.loc 1 90 57 is_stmt 0 discriminator 2 view .LVU116
 425 00a2 0135     		adds	r5, r5, #1
 426              	.LVL45:
 427              	.L14:
  90:Core/Src/NOS_LIB_Driver/Src/WS2812B.c ****                {
 428              		.loc 1 90 37 is_stmt 1 discriminator 1 view .LVU117
  90:Core/Src/NOS_LIB_Driver/Src/WS2812B.c ****                {
 429              		.loc 1 90 16 is_stmt 0 discriminator 1 view .LVU118
 430 00a4 072D     		cmp	r5, #7
 431 00a6 14DC     		bgt	.L18
  92:Core/Src/NOS_LIB_Driver/Src/WS2812B.c **** 
 432              		.loc 1 92 20 is_stmt 1 view .LVU119
  92:Core/Src/NOS_LIB_Driver/Src/WS2812B.c **** 
 433              		.loc 1 92 30 is_stmt 0 view .LVU120
 434 00a8 0123     		movs	r3, #1
 435 00aa AB40     		lsls	r3, r3, r5
 436              	.LVL46:
  94:Core/Src/NOS_LIB_Driver/Src/WS2812B.c ****                    {
 437              		.loc 1 94 20 is_stmt 1 view .LVU121
  94:Core/Src/NOS_LIB_Driver/Src/WS2812B.c ****                    {
 438              		.loc 1 94 22 is_stmt 0 view .LVU122
 439 00ac 19EA030F 		tst	r9, r3
 440 00b0 E7D0     		beq	.L19
  96:Core/Src/NOS_LIB_Driver/Src/WS2812B.c ****                    }
 441              		.loc 1 96 24 is_stmt 1 view .LVU123
 442 00b2 D4F80CB0 		ldr	fp, [r4, #12]
  96:Core/Src/NOS_LIB_Driver/Src/WS2812B.c ****                    }
 443              		.loc 1 96 89 is_stmt 0 view .LVU124
 444 00b6 4146     		mov	r1, r8
 445 00b8 3046     		mov	r0, r6
 446 00ba FFF7FEFF 		bl	NOS_Math_NormalizeValue
 447              	.LVL47:
  96:Core/Src/NOS_LIB_Driver/Src/WS2812B.c ****                    }
 448              		.loc 1 96 24 view .LVU125
 449 00be F9B2     		uxtb	r1, r7
 450 00c0 C0B2     		uxtb	r0, r0
 451 00c2 FFF7FEFF 		bl	GetPixelPos
 452              	.LVL48:
 453 00c6 0246     		mov	r2, r0
ARM GAS  C:\Users\user\AppData\Local\Temp\ccD2C8ei.s 			page 11


 454 00c8 5946     		mov	r1, fp
 455 00ca 2046     		mov	r0, r4
 456 00cc FFF7FEFF 		bl	NOS_WS2812B_Matrix_SetPixel
 457              	.LVL49:
 458 00d0 E6E7     		b	.L20
 459              	.LVL50:
 460              	.L18:
  96:Core/Src/NOS_LIB_Driver/Src/WS2812B.c ****                    }
 461              		.loc 1 96 24 view .LVU126
 462              	.LBE5:
 103:Core/Src/NOS_LIB_Driver/Src/WS2812B.c ****                 }
 104:Core/Src/NOS_LIB_Driver/Src/WS2812B.c **** 
 105:Core/Src/NOS_LIB_Driver/Src/WS2812B.c ****             }
 106:Core/Src/NOS_LIB_Driver/Src/WS2812B.c ****             currColumn++;
 463              		.loc 1 106 13 is_stmt 1 discriminator 2 view .LVU127
 464              		.loc 1 106 23 is_stmt 0 discriminator 2 view .LVU128
 465 00d2 0136     		adds	r6, r6, #1
 466              	.LVL51:
 467              		.loc 1 106 23 discriminator 2 view .LVU129
 468 00d4 B6B2     		uxth	r6, r6
 469              	.LVL52:
  61:Core/Src/NOS_LIB_Driver/Src/WS2812B.c ****         {
 470              		.loc 1 61 42 is_stmt 1 discriminator 2 view .LVU130
  61:Core/Src/NOS_LIB_Driver/Src/WS2812B.c ****         {
 471              		.loc 1 61 48 is_stmt 0 discriminator 2 view .LVU131
 472 00d6 0AF1010A 		add	r10, r10, #1
 473              	.LVL53:
 474              	.L25:
  61:Core/Src/NOS_LIB_Driver/Src/WS2812B.c ****         {
 475              		.loc 1 61 29 is_stmt 1 discriminator 1 view .LVU132
  61:Core/Src/NOS_LIB_Driver/Src/WS2812B.c ****         {
 476              		.loc 1 61 9 is_stmt 0 discriminator 1 view .LVU133
 477 00da BAF1040F 		cmp	r10, #4
 478 00de 0CDC     		bgt	.L29
  63:Core/Src/NOS_LIB_Driver/Src/WS2812B.c **** 
 479              		.loc 1 63 13 is_stmt 1 view .LVU134
  63:Core/Src/NOS_LIB_Driver/Src/WS2812B.c **** 
 480              		.loc 1 63 30 is_stmt 0 view .LVU135
 481 00e0 6369     		ldr	r3, [r4, #20]
  63:Core/Src/NOS_LIB_Driver/Src/WS2812B.c **** 
 482              		.loc 1 63 39 view .LVU136
 483 00e2 009A     		ldr	r2, [sp]
 484 00e4 02EB8202 		add	r2, r2, r2, lsl #2
 485 00e8 1344     		add	r3, r3, r2
  63:Core/Src/NOS_LIB_Driver/Src/WS2812B.c **** 
 486              		.loc 1 63 22 view .LVU137
 487 00ea 13F80A90 		ldrb	r9, [r3, r10]	@ zero_extendqisi2
 488              	.LVL54:
  65:Core/Src/NOS_LIB_Driver/Src/WS2812B.c ****                    {
 489              		.loc 1 65 20 is_stmt 1 view .LVU138
  70:Core/Src/NOS_LIB_Driver/Src/WS2812B.c ****             {
 490              		.loc 1 70 13 view .LVU139
  70:Core/Src/NOS_LIB_Driver/Src/WS2812B.c ****             {
 491              		.loc 1 70 15 is_stmt 0 view .LVU140
 492 00ee 16F0010F 		tst	r6, #1
 493 00f2 C3D0     		beq	.L26
 494              	.LBB6:
ARM GAS  C:\Users\user\AppData\Local\Temp\ccD2C8ei.s 			page 12


  90:Core/Src/NOS_LIB_Driver/Src/WS2812B.c ****                {
 495              		.loc 1 90 24 view .LVU141
 496 00f4 0025     		movs	r5, #0
 497              	.LBE6:
  89:Core/Src/NOS_LIB_Driver/Src/WS2812B.c ****                for(int currBit = 0; currBit < 8; currBit++)
 498              		.loc 1 89 22 view .LVU142
 499 00f6 0127     		movs	r7, #1
 500 00f8 D4E7     		b	.L14
 501              	.LVL55:
 502              	.L29:
  89:Core/Src/NOS_LIB_Driver/Src/WS2812B.c ****                for(int currBit = 0; currBit < 8; currBit++)
 503              		.loc 1 89 22 view .LVU143
 504              	.LBE3:
 505              	.LBB7:
 107:Core/Src/NOS_LIB_Driver/Src/WS2812B.c ****         }
 108:Core/Src/NOS_LIB_Driver/Src/WS2812B.c **** 
 109:Core/Src/NOS_LIB_Driver/Src/WS2812B.c ****         for(int i = 1; i < 9; i++)
 506              		.loc 1 109 17 view .LVU144
 507 00fa 0125     		movs	r5, #1
 508 00fc 0EE0     		b	.L23
 509              	.LVL56:
 510              	.L24:
 110:Core/Src/NOS_LIB_Driver/Src/WS2812B.c ****         {
 111:Core/Src/NOS_LIB_Driver/Src/WS2812B.c ****             NOS_WS2812B_Matrix_SetPixel(matrix,matrix->foneColor,GetPixelPos(NOS_Math_NormalizeValu
 511              		.loc 1 111 13 is_stmt 1 discriminator 3 view .LVU145
 512 00fe 2769     		ldr	r7, [r4, #16]
 513              		.loc 1 111 78 is_stmt 0 discriminator 3 view .LVU146
 514 0100 4146     		mov	r1, r8
 515 0102 3046     		mov	r0, r6
 516 0104 FFF7FEFF 		bl	NOS_Math_NormalizeValue
 517              	.LVL57:
 518              		.loc 1 111 13 discriminator 3 view .LVU147
 519 0108 E9B2     		uxtb	r1, r5
 520 010a C0B2     		uxtb	r0, r0
 521 010c FFF7FEFF 		bl	GetPixelPos
 522              	.LVL58:
 523 0110 0246     		mov	r2, r0
 524 0112 3946     		mov	r1, r7
 525 0114 2046     		mov	r0, r4
 526 0116 FFF7FEFF 		bl	NOS_WS2812B_Matrix_SetPixel
 527              	.LVL59:
 109:Core/Src/NOS_LIB_Driver/Src/WS2812B.c ****         {
 528              		.loc 1 109 31 is_stmt 1 discriminator 3 view .LVU148
 109:Core/Src/NOS_LIB_Driver/Src/WS2812B.c ****         {
 529              		.loc 1 109 32 is_stmt 0 discriminator 3 view .LVU149
 530 011a 0135     		adds	r5, r5, #1
 531              	.LVL60:
 532              	.L23:
 109:Core/Src/NOS_LIB_Driver/Src/WS2812B.c ****         {
 533              		.loc 1 109 24 is_stmt 1 discriminator 1 view .LVU150
 109:Core/Src/NOS_LIB_Driver/Src/WS2812B.c ****         {
 534              		.loc 1 109 9 is_stmt 0 discriminator 1 view .LVU151
 535 011c 082D     		cmp	r5, #8
 536 011e EEDD     		ble	.L24
 537              	.LBE7:
 112:Core/Src/NOS_LIB_Driver/Src/WS2812B.c ****         }
 113:Core/Src/NOS_LIB_Driver/Src/WS2812B.c ****         currColumn++;
ARM GAS  C:\Users\user\AppData\Local\Temp\ccD2C8ei.s 			page 13


 538              		.loc 1 113 9 is_stmt 1 discriminator 2 view .LVU152
 539              		.loc 1 113 19 is_stmt 0 discriminator 2 view .LVU153
 540 0120 0136     		adds	r6, r6, #1
 541              	.LVL61:
 542              		.loc 1 113 19 discriminator 2 view .LVU154
 543 0122 B6B2     		uxth	r6, r6
 544              	.LVL62:
  59:Core/Src/NOS_LIB_Driver/Src/WS2812B.c ****      {
 545              		.loc 1 59 56 is_stmt 1 discriminator 2 view .LVU155
  59:Core/Src/NOS_LIB_Driver/Src/WS2812B.c ****      {
 546              		.loc 1 59 66 is_stmt 0 discriminator 2 view .LVU156
 547 0124 009B     		ldr	r3, [sp]
 548 0126 0133     		adds	r3, r3, #1
 549 0128 0093     		str	r3, [sp]
 550              	.LVL63:
 551              	.L12:
  59:Core/Src/NOS_LIB_Driver/Src/WS2812B.c ****      {
 552              		.loc 1 59 30 is_stmt 1 discriminator 1 view .LVU157
  59:Core/Src/NOS_LIB_Driver/Src/WS2812B.c ****      {
 553              		.loc 1 59 6 is_stmt 0 discriminator 1 view .LVU158
 554 012a 019B     		ldr	r3, [sp, #4]
 555 012c 009A     		ldr	r2, [sp]
 556 012e 9342     		cmp	r3, r2
 557 0130 02DD     		ble	.L30
 558              	.LBB8:
  61:Core/Src/NOS_LIB_Driver/Src/WS2812B.c ****         {
 559              		.loc 1 61 17 view .LVU159
 560 0132 4FF0000A 		mov	r10, #0
 561 0136 D0E7     		b	.L25
 562              	.L30:
 563              	.LBE8:
 564              	.LBE2:
 114:Core/Src/NOS_LIB_Driver/Src/WS2812B.c ****      }
 115:Core/Src/NOS_LIB_Driver/Src/WS2812B.c **** }
 565              		.loc 1 115 1 view .LVU160
 566 0138 03B0     		add	sp, sp, #12
 567              	.LCFI4:
 568              		.cfi_def_cfa_offset 36
 569              	.LVL64:
 570              		.loc 1 115 1 view .LVU161
 571              		@ sp needed
 572 013a BDE8F08F 		pop	{r4, r5, r6, r7, r8, r9, r10, fp, pc}
 573              	.LVL65:
 574              	.L32:
 575              		.loc 1 115 1 view .LVU162
 576 013e 00BF     		.align	2
 577              	.L31:
 578 0140 ABAAAAAA 		.word	-1431655765
 579              		.cfi_endproc
 580              	.LFE134:
 582              		.section	.text.NOS_WS2812B_SetPixelColor,"ax",%progbits
 583              		.align	1
 584              		.global	NOS_WS2812B_SetPixelColor
 585              		.syntax unified
 586              		.thumb
 587              		.thumb_func
 588              		.fpu fpv4-sp-d16
ARM GAS  C:\Users\user\AppData\Local\Temp\ccD2C8ei.s 			page 14


 590              	NOS_WS2812B_SetPixelColor:
 591              	.LVL66:
 592              	.LFB140:
 116:Core/Src/NOS_LIB_Driver/Src/WS2812B.c **** 
 117:Core/Src/NOS_LIB_Driver/Src/WS2812B.c **** void NOS_WS2812B_Matrix_SetSymvol(WS2812B_Matrix* matrix,char sym,uint8_t pos)
 118:Core/Src/NOS_LIB_Driver/Src/WS2812B.c **** {
 119:Core/Src/NOS_LIB_Driver/Src/WS2812B.c ****     uint8_t* buff = Symvol_GetBitMap(sym);
 120:Core/Src/NOS_LIB_Driver/Src/WS2812B.c ****     for(int i = 0; i < 5; i++)
 121:Core/Src/NOS_LIB_Driver/Src/WS2812B.c ****     {
 122:Core/Src/NOS_LIB_Driver/Src/WS2812B.c ****         matrix->symvols[pos].data[i] = buff[i];
 123:Core/Src/NOS_LIB_Driver/Src/WS2812B.c ****     }
 124:Core/Src/NOS_LIB_Driver/Src/WS2812B.c **** }
 125:Core/Src/NOS_LIB_Driver/Src/WS2812B.c **** 
 126:Core/Src/NOS_LIB_Driver/Src/WS2812B.c **** void NOS_WS2812B_Matrix_PrintStaticString(WS2812B_Matrix* matrix,char string[],uint8_t startpos,uin
 127:Core/Src/NOS_LIB_Driver/Src/WS2812B.c **** {
 128:Core/Src/NOS_LIB_Driver/Src/WS2812B.c ****     for(int i = startpos; i < startpos + lenght; i++)
 129:Core/Src/NOS_LIB_Driver/Src/WS2812B.c ****     {
 130:Core/Src/NOS_LIB_Driver/Src/WS2812B.c ****         NOS_WS2812B_Matrix_SetSymvol(matrix,string[i - startpos],i);
 131:Core/Src/NOS_LIB_Driver/Src/WS2812B.c ****     }
 132:Core/Src/NOS_LIB_Driver/Src/WS2812B.c **** }
 133:Core/Src/NOS_LIB_Driver/Src/WS2812B.c **** 
 134:Core/Src/NOS_LIB_Driver/Src/WS2812B.c **** void NOS_WS2812B_Matrix_PrintIntNumber(WS2812B_Matrix* matrix,uint32_t num,uint8_t startpos,uint8_t
 135:Core/Src/NOS_LIB_Driver/Src/WS2812B.c **** {
 136:Core/Src/NOS_LIB_Driver/Src/WS2812B.c ****     
 137:Core/Src/NOS_LIB_Driver/Src/WS2812B.c ****     int probe = 10;
 138:Core/Src/NOS_LIB_Driver/Src/WS2812B.c ****     int a = 0;
 139:Core/Src/NOS_LIB_Driver/Src/WS2812B.c ****     int power = NOS_Math_GetNumberPower(num);
 140:Core/Src/NOS_LIB_Driver/Src/WS2812B.c ****     char buff[16];
 141:Core/Src/NOS_LIB_Driver/Src/WS2812B.c **** 
 142:Core/Src/NOS_LIB_Driver/Src/WS2812B.c **** 
 143:Core/Src/NOS_LIB_Driver/Src/WS2812B.c ****     for (int i = power - 1; i > 0; i--)
 144:Core/Src/NOS_LIB_Driver/Src/WS2812B.c ****     {
 145:Core/Src/NOS_LIB_Driver/Src/WS2812B.c ****         buff[a] = num / pow(10,i);
 146:Core/Src/NOS_LIB_Driver/Src/WS2812B.c ****         num = num - (buff[a] * pow(10,i));
 147:Core/Src/NOS_LIB_Driver/Src/WS2812B.c ****         a++;
 148:Core/Src/NOS_LIB_Driver/Src/WS2812B.c ****     }
 149:Core/Src/NOS_LIB_Driver/Src/WS2812B.c **** 
 150:Core/Src/NOS_LIB_Driver/Src/WS2812B.c ****     buff[a] = num % 10;
 151:Core/Src/NOS_LIB_Driver/Src/WS2812B.c **** 
 152:Core/Src/NOS_LIB_Driver/Src/WS2812B.c ****     for(int i = 0; i < a + 1; i++)
 153:Core/Src/NOS_LIB_Driver/Src/WS2812B.c ****     {
 154:Core/Src/NOS_LIB_Driver/Src/WS2812B.c ****         buff[i] += 48;
 155:Core/Src/NOS_LIB_Driver/Src/WS2812B.c ****         NOS_WS2812B_Matrix_SetSymvol(matrix,buff[i],i + startpos);
 156:Core/Src/NOS_LIB_Driver/Src/WS2812B.c ****     }
 157:Core/Src/NOS_LIB_Driver/Src/WS2812B.c **** }
 158:Core/Src/NOS_LIB_Driver/Src/WS2812B.c **** 
 159:Core/Src/NOS_LIB_Driver/Src/WS2812B.c **** void NOS_WS2812B_Matrix_PrintFloatNumber(WS2812B_Matrix* matrix,float num,uint8_t startpos)
 160:Core/Src/NOS_LIB_Driver/Src/WS2812B.c **** {
 161:Core/Src/NOS_LIB_Driver/Src/WS2812B.c ****     if(num > 0.0f)
 162:Core/Src/NOS_LIB_Driver/Src/WS2812B.c ****     {
 163:Core/Src/NOS_LIB_Driver/Src/WS2812B.c ****     int before = num;
 164:Core/Src/NOS_LIB_Driver/Src/WS2812B.c ****     float after = num - (float)before;
 165:Core/Src/NOS_LIB_Driver/Src/WS2812B.c ****     int af = after * 100;
 166:Core/Src/NOS_LIB_Driver/Src/WS2812B.c ****     int pow = NOS_Math_GetNumberPower(before);
 167:Core/Src/NOS_LIB_Driver/Src/WS2812B.c ****     NOS_WS2812B_Matrix_PrintIntNumber(matrix,before,startpos,pow);
 168:Core/Src/NOS_LIB_Driver/Src/WS2812B.c ****     NOS_WS2812B_Matrix_PrintStaticString(matrix,".",startpos + pow,1);
 169:Core/Src/NOS_LIB_Driver/Src/WS2812B.c ****     NOS_WS2812B_Matrix_PrintIntNumber(matrix,af,startpos + pow + 1,2);
ARM GAS  C:\Users\user\AppData\Local\Temp\ccD2C8ei.s 			page 15


 170:Core/Src/NOS_LIB_Driver/Src/WS2812B.c ****     }
 171:Core/Src/NOS_LIB_Driver/Src/WS2812B.c **** }
 172:Core/Src/NOS_LIB_Driver/Src/WS2812B.c **** 
 173:Core/Src/NOS_LIB_Driver/Src/WS2812B.c **** void NOS_WS2812B_Matrix_PrintRealTime(WS2812B_Matrix* matrix,RealTime rt)
 174:Core/Src/NOS_LIB_Driver/Src/WS2812B.c **** {
 175:Core/Src/NOS_LIB_Driver/Src/WS2812B.c ****     int startpos = 0;
 176:Core/Src/NOS_LIB_Driver/Src/WS2812B.c ****     if(rt.format == Hour24)
 177:Core/Src/NOS_LIB_Driver/Src/WS2812B.c ****     {
 178:Core/Src/NOS_LIB_Driver/Src/WS2812B.c ****         startpos = 1;
 179:Core/Src/NOS_LIB_Driver/Src/WS2812B.c ****     }
 180:Core/Src/NOS_LIB_Driver/Src/WS2812B.c **** 
 181:Core/Src/NOS_LIB_Driver/Src/WS2812B.c ****     if(rt.format == Hour12)
 182:Core/Src/NOS_LIB_Driver/Src/WS2812B.c ****     {
 183:Core/Src/NOS_LIB_Driver/Src/WS2812B.c ****         if(rt.hour > 12)
 184:Core/Src/NOS_LIB_Driver/Src/WS2812B.c ****         {   
 185:Core/Src/NOS_LIB_Driver/Src/WS2812B.c ****             NOS_WS2812B_Matrix_SetSymvol(matrix,(char)(rt.hour - 12) / 10 + 48,startpos);
 186:Core/Src/NOS_LIB_Driver/Src/WS2812B.c ****             NOS_WS2812B_Matrix_SetSymvol(matrix,(char)(rt.hour - 12) % 10 + 48,startpos + 1);
 187:Core/Src/NOS_LIB_Driver/Src/WS2812B.c ****             NOS_WS2812B_Matrix_SetSymvol(matrix,'P',startpos + 8);
 188:Core/Src/NOS_LIB_Driver/Src/WS2812B.c ****             NOS_WS2812B_Matrix_SetSymvol(matrix,'M',startpos + 9);
 189:Core/Src/NOS_LIB_Driver/Src/WS2812B.c ****         }
 190:Core/Src/NOS_LIB_Driver/Src/WS2812B.c ****         else
 191:Core/Src/NOS_LIB_Driver/Src/WS2812B.c ****         {
 192:Core/Src/NOS_LIB_Driver/Src/WS2812B.c ****             NOS_WS2812B_Matrix_SetSymvol(matrix,(char)(rt.hour) / 10 + 48,startpos);
 193:Core/Src/NOS_LIB_Driver/Src/WS2812B.c ****             NOS_WS2812B_Matrix_SetSymvol(matrix,(char)(rt.hour) % 10 + 48,startpos + 1);
 194:Core/Src/NOS_LIB_Driver/Src/WS2812B.c ****             NOS_WS2812B_Matrix_SetSymvol(matrix,'A',startpos + 8);
 195:Core/Src/NOS_LIB_Driver/Src/WS2812B.c ****             NOS_WS2812B_Matrix_SetSymvol(matrix,'M',startpos + 9);
 196:Core/Src/NOS_LIB_Driver/Src/WS2812B.c ****         }
 197:Core/Src/NOS_LIB_Driver/Src/WS2812B.c ****     }
 198:Core/Src/NOS_LIB_Driver/Src/WS2812B.c ****     else
 199:Core/Src/NOS_LIB_Driver/Src/WS2812B.c ****     {
 200:Core/Src/NOS_LIB_Driver/Src/WS2812B.c ****             NOS_WS2812B_Matrix_SetSymvol(matrix,(char)(rt.hour) / 10 + 48,startpos);
 201:Core/Src/NOS_LIB_Driver/Src/WS2812B.c ****             NOS_WS2812B_Matrix_SetSymvol(matrix,(char)(rt.hour) % 10 + 48,startpos + 1);
 202:Core/Src/NOS_LIB_Driver/Src/WS2812B.c ****             NOS_WS2812B_Matrix_SetSymvol(matrix,' ',startpos + 8);
 203:Core/Src/NOS_LIB_Driver/Src/WS2812B.c ****     }
 204:Core/Src/NOS_LIB_Driver/Src/WS2812B.c **** 
 205:Core/Src/NOS_LIB_Driver/Src/WS2812B.c ****     NOS_WS2812B_Matrix_SetSymvol(matrix,(char)(rt.min/10) + 48,startpos + 3);
 206:Core/Src/NOS_LIB_Driver/Src/WS2812B.c ****     NOS_WS2812B_Matrix_SetSymvol(matrix,(char)(rt.min%10) + 48,startpos + 4);
 207:Core/Src/NOS_LIB_Driver/Src/WS2812B.c **** 
 208:Core/Src/NOS_LIB_Driver/Src/WS2812B.c ****     NOS_WS2812B_Matrix_SetSymvol(matrix,(char)rt.sec/10 + 48,startpos + 6);
 209:Core/Src/NOS_LIB_Driver/Src/WS2812B.c ****     NOS_WS2812B_Matrix_SetSymvol(matrix,(char)rt.sec%10 + 48,startpos + 7);
 210:Core/Src/NOS_LIB_Driver/Src/WS2812B.c **** 
 211:Core/Src/NOS_LIB_Driver/Src/WS2812B.c ****     if(rt.sec % 2 == 0)
 212:Core/Src/NOS_LIB_Driver/Src/WS2812B.c ****     {
 213:Core/Src/NOS_LIB_Driver/Src/WS2812B.c ****         NOS_WS2812B_Matrix_SetSymvol(matrix,':',startpos + 2);
 214:Core/Src/NOS_LIB_Driver/Src/WS2812B.c ****         NOS_WS2812B_Matrix_SetSymvol(matrix,':',startpos + 5);
 215:Core/Src/NOS_LIB_Driver/Src/WS2812B.c ****     }
 216:Core/Src/NOS_LIB_Driver/Src/WS2812B.c ****     else
 217:Core/Src/NOS_LIB_Driver/Src/WS2812B.c ****     {
 218:Core/Src/NOS_LIB_Driver/Src/WS2812B.c ****         NOS_WS2812B_Matrix_SetSymvol(matrix,' ',startpos + 2);
 219:Core/Src/NOS_LIB_Driver/Src/WS2812B.c ****         NOS_WS2812B_Matrix_SetSymvol(matrix,' ',startpos + 5);
 220:Core/Src/NOS_LIB_Driver/Src/WS2812B.c ****     }
 221:Core/Src/NOS_LIB_Driver/Src/WS2812B.c **** }
 222:Core/Src/NOS_LIB_Driver/Src/WS2812B.c **** 
 223:Core/Src/NOS_LIB_Driver/Src/WS2812B.c **** void NOS_WS2812B_SetPixelColor(PixelColor* color,uint8_t R,uint8_t G,uint8_t B)
 224:Core/Src/NOS_LIB_Driver/Src/WS2812B.c **** {
 593              		.loc 1 224 1 is_stmt 1 view -0
 594              		.cfi_startproc
ARM GAS  C:\Users\user\AppData\Local\Temp\ccD2C8ei.s 			page 16


 595              		@ args = 0, pretend = 0, frame = 0
 596              		@ frame_needed = 0, uses_anonymous_args = 0
 597              		@ link register save eliminated.
 225:Core/Src/NOS_LIB_Driver/Src/WS2812B.c ****     color->R = R;
 598              		.loc 1 225 5 view .LVU164
 599              		.loc 1 225 14 is_stmt 0 view .LVU165
 600 0000 0170     		strb	r1, [r0]
 226:Core/Src/NOS_LIB_Driver/Src/WS2812B.c ****     color->G = G;
 601              		.loc 1 226 5 is_stmt 1 view .LVU166
 602              		.loc 1 226 14 is_stmt 0 view .LVU167
 603 0002 4270     		strb	r2, [r0, #1]
 227:Core/Src/NOS_LIB_Driver/Src/WS2812B.c ****     color->B = B;
 604              		.loc 1 227 5 is_stmt 1 view .LVU168
 605              		.loc 1 227 14 is_stmt 0 view .LVU169
 606 0004 8370     		strb	r3, [r0, #2]
 228:Core/Src/NOS_LIB_Driver/Src/WS2812B.c **** }
 607              		.loc 1 228 1 view .LVU170
 608 0006 7047     		bx	lr
 609              		.cfi_endproc
 610              	.LFE140:
 612              		.section	.text.NOS_WS2812B_EffectRainbow,"ax",%progbits
 613              		.align	1
 614              		.global	NOS_WS2812B_EffectRainbow
 615              		.syntax unified
 616              		.thumb
 617              		.thumb_func
 618              		.fpu fpv4-sp-d16
 620              	NOS_WS2812B_EffectRainbow:
 621              	.LVL67:
 622              	.LFB141:
 229:Core/Src/NOS_LIB_Driver/Src/WS2812B.c **** 
 230:Core/Src/NOS_LIB_Driver/Src/WS2812B.c **** void NOS_WS2812B_EffectRainbow(WS2812B_Matrix*matrix,uint32_t counter)
 231:Core/Src/NOS_LIB_Driver/Src/WS2812B.c **** {
 623              		.loc 1 231 1 is_stmt 1 view -0
 624              		.cfi_startproc
 625              		@ args = 0, pretend = 0, frame = 0
 626              		@ frame_needed = 0, uses_anonymous_args = 0
 627              		.loc 1 231 1 is_stmt 0 view .LVU172
 628 0000 38B5     		push	{r3, r4, r5, lr}
 629              	.LCFI5:
 630              		.cfi_def_cfa_offset 16
 631              		.cfi_offset 3, -16
 632              		.cfi_offset 4, -12
 633              		.cfi_offset 5, -8
 634              		.cfi_offset 14, -4
 635 0002 0546     		mov	r5, r0
 232:Core/Src/NOS_LIB_Driver/Src/WS2812B.c **** 
 233:Core/Src/NOS_LIB_Driver/Src/WS2812B.c ****     if(counter > 0 && counter < matrix->bright)
 636              		.loc 1 233 5 is_stmt 1 view .LVU173
 637              		.loc 1 233 7 is_stmt 0 view .LVU174
 638 0004 0C46     		mov	r4, r1
 639 0006 11B1     		cbz	r1, .L35
 640              		.loc 1 233 39 discriminator 1 view .LVU175
 641 0008 0379     		ldrb	r3, [r0, #4]	@ zero_extendqisi2
 642              		.loc 1 233 20 discriminator 1 view .LVU176
 643 000a 8B42     		cmp	r3, r1
 644 000c 3DD8     		bhi	.L44
ARM GAS  C:\Users\user\AppData\Local\Temp\ccD2C8ei.s 			page 17


 645              	.LVL68:
 646              	.L35:
 234:Core/Src/NOS_LIB_Driver/Src/WS2812B.c ****     {
 235:Core/Src/NOS_LIB_Driver/Src/WS2812B.c ****         NOS_WS2812B_SetPixelColor(matrix->textColor,0,counter,matrix->bright);
 236:Core/Src/NOS_LIB_Driver/Src/WS2812B.c ****     }
 237:Core/Src/NOS_LIB_Driver/Src/WS2812B.c **** 
 238:Core/Src/NOS_LIB_Driver/Src/WS2812B.c ****     if(counter > matrix->bright && counter < matrix->bright * 2)
 647              		.loc 1 238 5 is_stmt 1 view .LVU177
 648              		.loc 1 238 24 is_stmt 0 view .LVU178
 649 000e 2A79     		ldrb	r2, [r5, #4]	@ zero_extendqisi2
 650              		.loc 1 238 7 view .LVU179
 651 0010 A242     		cmp	r2, r4
 652 0012 02D2     		bcs	.L36
 653              		.loc 1 238 33 discriminator 1 view .LVU180
 654 0014 B4EB420F 		cmp	r4, r2, lsl #1
 655 0018 3DD3     		bcc	.L45
 656              	.L36:
 239:Core/Src/NOS_LIB_Driver/Src/WS2812B.c ****     {
 240:Core/Src/NOS_LIB_Driver/Src/WS2812B.c ****         counter = counter - matrix->bright;
 241:Core/Src/NOS_LIB_Driver/Src/WS2812B.c ****         NOS_WS2812B_SetPixelColor(matrix->textColor,0,matrix->bright,matrix->bright - counter);
 242:Core/Src/NOS_LIB_Driver/Src/WS2812B.c ****     }
 243:Core/Src/NOS_LIB_Driver/Src/WS2812B.c **** 
 244:Core/Src/NOS_LIB_Driver/Src/WS2812B.c ****     if(counter > matrix->bright * 2 && counter < matrix->bright * 3)
 657              		.loc 1 244 5 is_stmt 1 view .LVU181
 658              		.loc 1 244 24 is_stmt 0 view .LVU182
 659 001a 2A79     		ldrb	r2, [r5, #4]	@ zero_extendqisi2
 660              		.loc 1 244 33 view .LVU183
 661 001c 5300     		lsls	r3, r2, #1
 662              		.loc 1 244 7 view .LVU184
 663 001e B4EB420F 		cmp	r4, r2, lsl #1
 664 0022 03D9     		bls	.L37
 665              		.loc 1 244 65 discriminator 1 view .LVU185
 666 0024 02EB4201 		add	r1, r2, r2, lsl #1
 667              		.loc 1 244 37 discriminator 1 view .LVU186
 668 0028 A142     		cmp	r1, r4
 669 002a 3CD8     		bhi	.L46
 670              	.L37:
 245:Core/Src/NOS_LIB_Driver/Src/WS2812B.c ****     {
 246:Core/Src/NOS_LIB_Driver/Src/WS2812B.c ****         counter = counter - matrix->bright * 2;
 247:Core/Src/NOS_LIB_Driver/Src/WS2812B.c ****         NOS_WS2812B_SetPixelColor(matrix->textColor,counter,matrix->bright,0);
 248:Core/Src/NOS_LIB_Driver/Src/WS2812B.c ****     }
 249:Core/Src/NOS_LIB_Driver/Src/WS2812B.c **** 
 250:Core/Src/NOS_LIB_Driver/Src/WS2812B.c ****     if(counter > matrix->bright * 3 && counter < matrix->bright * 4)
 671              		.loc 1 250 5 is_stmt 1 view .LVU187
 672              		.loc 1 250 24 is_stmt 0 view .LVU188
 673 002c 2979     		ldrb	r1, [r5, #4]	@ zero_extendqisi2
 674              		.loc 1 250 33 view .LVU189
 675 002e 01EB4103 		add	r3, r1, r1, lsl #1
 676              		.loc 1 250 7 view .LVU190
 677 0032 A342     		cmp	r3, r4
 678 0034 02D2     		bcs	.L38
 679              		.loc 1 250 37 discriminator 1 view .LVU191
 680 0036 B4EB810F 		cmp	r4, r1, lsl #2
 681 003a 3BD3     		bcc	.L47
 682              	.L38:
 251:Core/Src/NOS_LIB_Driver/Src/WS2812B.c ****     {
 252:Core/Src/NOS_LIB_Driver/Src/WS2812B.c ****         counter = counter - matrix->bright * 3;
ARM GAS  C:\Users\user\AppData\Local\Temp\ccD2C8ei.s 			page 18


 253:Core/Src/NOS_LIB_Driver/Src/WS2812B.c ****         NOS_WS2812B_SetPixelColor(matrix->textColor,matrix->bright,matrix->bright - counter,0);
 254:Core/Src/NOS_LIB_Driver/Src/WS2812B.c ****     }
 255:Core/Src/NOS_LIB_Driver/Src/WS2812B.c **** 
 256:Core/Src/NOS_LIB_Driver/Src/WS2812B.c ****     if(counter > matrix->bright * 4 && counter < matrix->bright * 5)
 683              		.loc 1 256 5 is_stmt 1 view .LVU192
 684              		.loc 1 256 24 is_stmt 0 view .LVU193
 685 003c 2979     		ldrb	r1, [r5, #4]	@ zero_extendqisi2
 686              		.loc 1 256 33 view .LVU194
 687 003e 8B00     		lsls	r3, r1, #2
 688              		.loc 1 256 7 view .LVU195
 689 0040 B4EB810F 		cmp	r4, r1, lsl #2
 690 0044 03D9     		bls	.L39
 691              		.loc 1 256 65 discriminator 1 view .LVU196
 692 0046 01EB8102 		add	r2, r1, r1, lsl #2
 693              		.loc 1 256 37 discriminator 1 view .LVU197
 694 004a A242     		cmp	r2, r4
 695 004c 3AD8     		bhi	.L48
 696              	.L39:
 257:Core/Src/NOS_LIB_Driver/Src/WS2812B.c ****     {
 258:Core/Src/NOS_LIB_Driver/Src/WS2812B.c ****         counter = counter - matrix->bright * 4;
 259:Core/Src/NOS_LIB_Driver/Src/WS2812B.c ****         NOS_WS2812B_SetPixelColor(matrix->textColor,matrix->bright,counter,0);
 260:Core/Src/NOS_LIB_Driver/Src/WS2812B.c ****     }
 261:Core/Src/NOS_LIB_Driver/Src/WS2812B.c **** 
 262:Core/Src/NOS_LIB_Driver/Src/WS2812B.c ****     if(counter > matrix->bright * 5 && counter < matrix->bright * 6)
 697              		.loc 1 262 5 is_stmt 1 view .LVU198
 698              		.loc 1 262 24 is_stmt 0 view .LVU199
 699 004e 2A79     		ldrb	r2, [r5, #4]	@ zero_extendqisi2
 700              		.loc 1 262 33 view .LVU200
 701 0050 02EB8203 		add	r3, r2, r2, lsl #2
 702              		.loc 1 262 7 view .LVU201
 703 0054 A342     		cmp	r3, r4
 704 0056 04D2     		bcs	.L40
 705              		.loc 1 262 65 discriminator 1 view .LVU202
 706 0058 02EB4201 		add	r1, r2, r2, lsl #1
 707              		.loc 1 262 37 discriminator 1 view .LVU203
 708 005c B4EB410F 		cmp	r4, r1, lsl #1
 709 0060 37D3     		bcc	.L49
 710              	.L40:
 263:Core/Src/NOS_LIB_Driver/Src/WS2812B.c ****     {
 264:Core/Src/NOS_LIB_Driver/Src/WS2812B.c ****         counter = counter - matrix->bright * 5;
 265:Core/Src/NOS_LIB_Driver/Src/WS2812B.c ****         NOS_WS2812B_SetPixelColor(matrix->textColor,matrix->bright - counter,matrix->bright,0);
 266:Core/Src/NOS_LIB_Driver/Src/WS2812B.c ****     }
 267:Core/Src/NOS_LIB_Driver/Src/WS2812B.c **** 
 268:Core/Src/NOS_LIB_Driver/Src/WS2812B.c ****     if(counter > matrix->bright * 6 && counter < matrix->bright * 7)
 711              		.loc 1 268 5 is_stmt 1 view .LVU204
 712              		.loc 1 268 24 is_stmt 0 view .LVU205
 713 0062 2A79     		ldrb	r2, [r5, #4]	@ zero_extendqisi2
 714              		.loc 1 268 33 view .LVU206
 715 0064 02EB4203 		add	r3, r2, r2, lsl #1
 716 0068 5900     		lsls	r1, r3, #1
 717              		.loc 1 268 7 view .LVU207
 718 006a B4EB430F 		cmp	r4, r3, lsl #1
 719 006e 03D9     		bls	.L41
 720              		.loc 1 268 65 discriminator 1 view .LVU208
 721 0070 C2EBC203 		rsb	r3, r2, r2, lsl #3
 722              		.loc 1 268 37 discriminator 1 view .LVU209
 723 0074 A342     		cmp	r3, r4
ARM GAS  C:\Users\user\AppData\Local\Temp\ccD2C8ei.s 			page 19


 724 0076 34D8     		bhi	.L50
 725              	.L41:
 269:Core/Src/NOS_LIB_Driver/Src/WS2812B.c ****     {        
 270:Core/Src/NOS_LIB_Driver/Src/WS2812B.c ****         counter = counter - matrix->bright * 6;
 271:Core/Src/NOS_LIB_Driver/Src/WS2812B.c ****         NOS_WS2812B_SetPixelColor(matrix->textColor,0,matrix->bright,counter);
 272:Core/Src/NOS_LIB_Driver/Src/WS2812B.c ****     }
 273:Core/Src/NOS_LIB_Driver/Src/WS2812B.c **** 
 274:Core/Src/NOS_LIB_Driver/Src/WS2812B.c ****     if(counter > matrix->bright * 7 && counter < matrix->bright * 8)
 726              		.loc 1 274 5 is_stmt 1 view .LVU210
 727              		.loc 1 274 24 is_stmt 0 view .LVU211
 728 0078 2B79     		ldrb	r3, [r5, #4]	@ zero_extendqisi2
 729              		.loc 1 274 33 view .LVU212
 730 007a C3EBC302 		rsb	r2, r3, r3, lsl #3
 731              		.loc 1 274 7 view .LVU213
 732 007e A242     		cmp	r2, r4
 733 0080 02D2     		bcs	.L34
 734              		.loc 1 274 37 discriminator 1 view .LVU214
 735 0082 B4EBC30F 		cmp	r4, r3, lsl #3
 736 0086 33D3     		bcc	.L51
 737              	.LVL69:
 738              	.L34:
 275:Core/Src/NOS_LIB_Driver/Src/WS2812B.c ****     {        
 276:Core/Src/NOS_LIB_Driver/Src/WS2812B.c ****         counter = counter - matrix->bright * 7;
 277:Core/Src/NOS_LIB_Driver/Src/WS2812B.c ****         NOS_WS2812B_SetPixelColor(matrix->textColor,0,matrix->bright - counter,matrix->bright);
 278:Core/Src/NOS_LIB_Driver/Src/WS2812B.c ****     }
 279:Core/Src/NOS_LIB_Driver/Src/WS2812B.c **** }
 739              		.loc 1 279 1 view .LVU215
 740 0088 38BD     		pop	{r3, r4, r5, pc}
 741              	.LVL70:
 742              	.L44:
 235:Core/Src/NOS_LIB_Driver/Src/WS2812B.c ****     }
 743              		.loc 1 235 9 is_stmt 1 view .LVU216
 744 008a CAB2     		uxtb	r2, r1
 745 008c 0021     		movs	r1, #0
 746              	.LVL71:
 235:Core/Src/NOS_LIB_Driver/Src/WS2812B.c ****     }
 747              		.loc 1 235 9 is_stmt 0 view .LVU217
 748 008e C068     		ldr	r0, [r0, #12]
 749              	.LVL72:
 235:Core/Src/NOS_LIB_Driver/Src/WS2812B.c ****     }
 750              		.loc 1 235 9 view .LVU218
 751 0090 FFF7FEFF 		bl	NOS_WS2812B_SetPixelColor
 752              	.LVL73:
 753 0094 BBE7     		b	.L35
 754              	.L45:
 240:Core/Src/NOS_LIB_Driver/Src/WS2812B.c ****         NOS_WS2812B_SetPixelColor(matrix->textColor,0,matrix->bright,matrix->bright - counter);
 755              		.loc 1 240 9 is_stmt 1 view .LVU219
 240:Core/Src/NOS_LIB_Driver/Src/WS2812B.c ****         NOS_WS2812B_SetPixelColor(matrix->textColor,0,matrix->bright,matrix->bright - counter);
 756              		.loc 1 240 17 is_stmt 0 view .LVU220
 757 0096 A41A     		subs	r4, r4, r2
 758              	.LVL74:
 241:Core/Src/NOS_LIB_Driver/Src/WS2812B.c ****     }
 759              		.loc 1 241 9 is_stmt 1 view .LVU221
 760 0098 131B     		subs	r3, r2, r4
 761 009a DBB2     		uxtb	r3, r3
 762 009c 0021     		movs	r1, #0
 763 009e E868     		ldr	r0, [r5, #12]
ARM GAS  C:\Users\user\AppData\Local\Temp\ccD2C8ei.s 			page 20


 764 00a0 FFF7FEFF 		bl	NOS_WS2812B_SetPixelColor
 765              	.LVL75:
 766 00a4 B9E7     		b	.L36
 767              	.L46:
 246:Core/Src/NOS_LIB_Driver/Src/WS2812B.c ****         NOS_WS2812B_SetPixelColor(matrix->textColor,counter,matrix->bright,0);
 768              		.loc 1 246 9 view .LVU222
 246:Core/Src/NOS_LIB_Driver/Src/WS2812B.c ****         NOS_WS2812B_SetPixelColor(matrix->textColor,counter,matrix->bright,0);
 769              		.loc 1 246 17 is_stmt 0 view .LVU223
 770 00a6 E41A     		subs	r4, r4, r3
 771              	.LVL76:
 247:Core/Src/NOS_LIB_Driver/Src/WS2812B.c ****     }
 772              		.loc 1 247 9 is_stmt 1 view .LVU224
 773 00a8 0023     		movs	r3, #0
 774 00aa E1B2     		uxtb	r1, r4
 775 00ac E868     		ldr	r0, [r5, #12]
 776 00ae FFF7FEFF 		bl	NOS_WS2812B_SetPixelColor
 777              	.LVL77:
 778 00b2 BBE7     		b	.L37
 779              	.L47:
 252:Core/Src/NOS_LIB_Driver/Src/WS2812B.c ****         NOS_WS2812B_SetPixelColor(matrix->textColor,matrix->bright,matrix->bright - counter,0);
 780              		.loc 1 252 9 view .LVU225
 252:Core/Src/NOS_LIB_Driver/Src/WS2812B.c ****         NOS_WS2812B_SetPixelColor(matrix->textColor,matrix->bright,matrix->bright - counter,0);
 781              		.loc 1 252 17 is_stmt 0 view .LVU226
 782 00b4 E41A     		subs	r4, r4, r3
 783              	.LVL78:
 253:Core/Src/NOS_LIB_Driver/Src/WS2812B.c ****     }
 784              		.loc 1 253 9 is_stmt 1 view .LVU227
 785 00b6 0A1B     		subs	r2, r1, r4
 786 00b8 0023     		movs	r3, #0
 787 00ba D2B2     		uxtb	r2, r2
 788 00bc E868     		ldr	r0, [r5, #12]
 789 00be FFF7FEFF 		bl	NOS_WS2812B_SetPixelColor
 790              	.LVL79:
 791 00c2 BBE7     		b	.L38
 792              	.L48:
 258:Core/Src/NOS_LIB_Driver/Src/WS2812B.c ****         NOS_WS2812B_SetPixelColor(matrix->textColor,matrix->bright,counter,0);
 793              		.loc 1 258 9 view .LVU228
 258:Core/Src/NOS_LIB_Driver/Src/WS2812B.c ****         NOS_WS2812B_SetPixelColor(matrix->textColor,matrix->bright,counter,0);
 794              		.loc 1 258 17 is_stmt 0 view .LVU229
 795 00c4 E41A     		subs	r4, r4, r3
 796              	.LVL80:
 259:Core/Src/NOS_LIB_Driver/Src/WS2812B.c ****     }
 797              		.loc 1 259 9 is_stmt 1 view .LVU230
 798 00c6 0023     		movs	r3, #0
 799 00c8 E2B2     		uxtb	r2, r4
 800 00ca E868     		ldr	r0, [r5, #12]
 801 00cc FFF7FEFF 		bl	NOS_WS2812B_SetPixelColor
 802              	.LVL81:
 803 00d0 BDE7     		b	.L39
 804              	.L49:
 264:Core/Src/NOS_LIB_Driver/Src/WS2812B.c ****         NOS_WS2812B_SetPixelColor(matrix->textColor,matrix->bright - counter,matrix->bright,0);
 805              		.loc 1 264 9 view .LVU231
 264:Core/Src/NOS_LIB_Driver/Src/WS2812B.c ****         NOS_WS2812B_SetPixelColor(matrix->textColor,matrix->bright - counter,matrix->bright,0);
 806              		.loc 1 264 17 is_stmt 0 view .LVU232
 807 00d2 E41A     		subs	r4, r4, r3
 808              	.LVL82:
 265:Core/Src/NOS_LIB_Driver/Src/WS2812B.c ****     }
ARM GAS  C:\Users\user\AppData\Local\Temp\ccD2C8ei.s 			page 21


 809              		.loc 1 265 9 is_stmt 1 view .LVU233
 810 00d4 111B     		subs	r1, r2, r4
 811 00d6 0023     		movs	r3, #0
 812 00d8 C9B2     		uxtb	r1, r1
 813 00da E868     		ldr	r0, [r5, #12]
 814 00dc FFF7FEFF 		bl	NOS_WS2812B_SetPixelColor
 815              	.LVL83:
 816 00e0 BFE7     		b	.L40
 817              	.L50:
 270:Core/Src/NOS_LIB_Driver/Src/WS2812B.c ****         NOS_WS2812B_SetPixelColor(matrix->textColor,0,matrix->bright,counter);
 818              		.loc 1 270 9 view .LVU234
 270:Core/Src/NOS_LIB_Driver/Src/WS2812B.c ****         NOS_WS2812B_SetPixelColor(matrix->textColor,0,matrix->bright,counter);
 819              		.loc 1 270 17 is_stmt 0 view .LVU235
 820 00e2 641A     		subs	r4, r4, r1
 821              	.LVL84:
 271:Core/Src/NOS_LIB_Driver/Src/WS2812B.c ****     }
 822              		.loc 1 271 9 is_stmt 1 view .LVU236
 823 00e4 E3B2     		uxtb	r3, r4
 824 00e6 0021     		movs	r1, #0
 825 00e8 E868     		ldr	r0, [r5, #12]
 826 00ea FFF7FEFF 		bl	NOS_WS2812B_SetPixelColor
 827              	.LVL85:
 828 00ee C3E7     		b	.L41
 829              	.L51:
 276:Core/Src/NOS_LIB_Driver/Src/WS2812B.c ****         NOS_WS2812B_SetPixelColor(matrix->textColor,0,matrix->bright - counter,matrix->bright);
 830              		.loc 1 276 9 view .LVU237
 276:Core/Src/NOS_LIB_Driver/Src/WS2812B.c ****         NOS_WS2812B_SetPixelColor(matrix->textColor,0,matrix->bright - counter,matrix->bright);
 831              		.loc 1 276 17 is_stmt 0 view .LVU238
 832 00f0 A21A     		subs	r2, r4, r2
 833              	.LVL86:
 277:Core/Src/NOS_LIB_Driver/Src/WS2812B.c ****     }
 834              		.loc 1 277 9 is_stmt 1 view .LVU239
 835 00f2 9A1A     		subs	r2, r3, r2
 836              	.LVL87:
 277:Core/Src/NOS_LIB_Driver/Src/WS2812B.c ****     }
 837              		.loc 1 277 9 is_stmt 0 view .LVU240
 838 00f4 D2B2     		uxtb	r2, r2
 839 00f6 0021     		movs	r1, #0
 840 00f8 E868     		ldr	r0, [r5, #12]
 841 00fa FFF7FEFF 		bl	NOS_WS2812B_SetPixelColor
 842              	.LVL88:
 843              		.loc 1 279 1 view .LVU241
 844 00fe C3E7     		b	.L34
 845              		.cfi_endproc
 846              	.LFE141:
 848              		.section	.text.NOS_WS2812B_EffectEngineHandler,"ax",%progbits
 849              		.align	1
 850              		.global	NOS_WS2812B_EffectEngineHandler
 851              		.syntax unified
 852              		.thumb
 853              		.thumb_func
 854              		.fpu fpv4-sp-d16
 856              	NOS_WS2812B_EffectEngineHandler:
 857              	.LVL89:
 858              	.LFB144:
 280:Core/Src/NOS_LIB_Driver/Src/WS2812B.c **** 
 281:Core/Src/NOS_LIB_Driver/Src/WS2812B.c **** void NOS_WS2812B_Matrix_PrintTemperature(WS2812B_Matrix* matrix,int16_t temperature)
ARM GAS  C:\Users\user\AppData\Local\Temp\ccD2C8ei.s 			page 22


 282:Core/Src/NOS_LIB_Driver/Src/WS2812B.c **** {
 283:Core/Src/NOS_LIB_Driver/Src/WS2812B.c ****     if(temperature > 0)
 284:Core/Src/NOS_LIB_Driver/Src/WS2812B.c ****     {
 285:Core/Src/NOS_LIB_Driver/Src/WS2812B.c ****        NOS_WS2812B_Matrix_SetSymvol(matrix,'+',0);
 286:Core/Src/NOS_LIB_Driver/Src/WS2812B.c ****     }
 287:Core/Src/NOS_LIB_Driver/Src/WS2812B.c ****     else
 288:Core/Src/NOS_LIB_Driver/Src/WS2812B.c ****     {
 289:Core/Src/NOS_LIB_Driver/Src/WS2812B.c ****        NOS_WS2812B_Matrix_SetSymvol(matrix,'-',0);       
 290:Core/Src/NOS_LIB_Driver/Src/WS2812B.c ****     }
 291:Core/Src/NOS_LIB_Driver/Src/WS2812B.c **** 
 292:Core/Src/NOS_LIB_Driver/Src/WS2812B.c ****        NOS_WS2812B_Matrix_SetSymvol(matrix,'*',3);
 293:Core/Src/NOS_LIB_Driver/Src/WS2812B.c ****        NOS_WS2812B_Matrix_SetSymvol(matrix,'C',4);
 294:Core/Src/NOS_LIB_Driver/Src/WS2812B.c **** 
 295:Core/Src/NOS_LIB_Driver/Src/WS2812B.c ****     uint8_t counter = 0;
 296:Core/Src/NOS_LIB_Driver/Src/WS2812B.c ****     if(temperature < 0)
 297:Core/Src/NOS_LIB_Driver/Src/WS2812B.c ****     {
 298:Core/Src/NOS_LIB_Driver/Src/WS2812B.c ****     while(temperature < 0)
 299:Core/Src/NOS_LIB_Driver/Src/WS2812B.c ****     {
 300:Core/Src/NOS_LIB_Driver/Src/WS2812B.c ****        temperature++;
 301:Core/Src/NOS_LIB_Driver/Src/WS2812B.c ****        counter++;
 302:Core/Src/NOS_LIB_Driver/Src/WS2812B.c ****     }
 303:Core/Src/NOS_LIB_Driver/Src/WS2812B.c ****     }
 304:Core/Src/NOS_LIB_Driver/Src/WS2812B.c ****     else
 305:Core/Src/NOS_LIB_Driver/Src/WS2812B.c ****     {
 306:Core/Src/NOS_LIB_Driver/Src/WS2812B.c ****         counter = (uint32_t)temperature;
 307:Core/Src/NOS_LIB_Driver/Src/WS2812B.c ****     }
 308:Core/Src/NOS_LIB_Driver/Src/WS2812B.c ****     NOS_WS2812B_Matrix_PrintIntNumber(matrix,(uint32_t)counter,1,2);
 309:Core/Src/NOS_LIB_Driver/Src/WS2812B.c **** }
 310:Core/Src/NOS_LIB_Driver/Src/WS2812B.c **** 
 311:Core/Src/NOS_LIB_Driver/Src/WS2812B.c **** void NOS_WS2812B_Matrix_PrintDetectorValue(WS2812B_Matrix* matrix,URE_Detector* detector,Language l
 312:Core/Src/NOS_LIB_Driver/Src/WS2812B.c **** {
 313:Core/Src/NOS_LIB_Driver/Src/WS2812B.c ****        if(detector->value.data < 10.0f)
 314:Core/Src/NOS_LIB_Driver/Src/WS2812B.c ****        {
 315:Core/Src/NOS_LIB_Driver/Src/WS2812B.c ****           NOS_WS2812B_Matrix_SetSymvol(matrix,' ',1);
 316:Core/Src/NOS_LIB_Driver/Src/WS2812B.c ****           NOS_WS2812B_Matrix_PrintFloatNumber(matrix,detector->value.data,2);
 317:Core/Src/NOS_LIB_Driver/Src/WS2812B.c ****        }
 318:Core/Src/NOS_LIB_Driver/Src/WS2812B.c ****        else
 319:Core/Src/NOS_LIB_Driver/Src/WS2812B.c ****        {
 320:Core/Src/NOS_LIB_Driver/Src/WS2812B.c ****           NOS_WS2812B_Matrix_PrintFloatNumber(matrix,detector->value.data,1);
 321:Core/Src/NOS_LIB_Driver/Src/WS2812B.c ****        }
 322:Core/Src/NOS_LIB_Driver/Src/WS2812B.c **** 
 323:Core/Src/NOS_LIB_Driver/Src/WS2812B.c ****        switch (language)
 324:Core/Src/NOS_LIB_Driver/Src/WS2812B.c ****        {
 325:Core/Src/NOS_LIB_Driver/Src/WS2812B.c ****        case English:
 326:Core/Src/NOS_LIB_Driver/Src/WS2812B.c ****           NOS_WS2812B_Matrix_PrintStaticString(matrix,"uSv/Hour",7,8);
 327:Core/Src/NOS_LIB_Driver/Src/WS2812B.c ****           break;
 328:Core/Src/NOS_LIB_Driver/Src/WS2812B.c ****         case Ukrainian:
 329:Core/Src/NOS_LIB_Driver/Src/WS2812B.c ****           NOS_WS2812B_Matrix_PrintStaticString(matrix,"mk3B/god",7,8);
 330:Core/Src/NOS_LIB_Driver/Src/WS2812B.c ****           break;
 331:Core/Src/NOS_LIB_Driver/Src/WS2812B.c ****         case Russian:
 332:Core/Src/NOS_LIB_Driver/Src/WS2812B.c ****           NOS_WS2812B_Matrix_PrintStaticString(matrix,"mk3B/yac",7,8);
 333:Core/Src/NOS_LIB_Driver/Src/WS2812B.c ****           break;
 334:Core/Src/NOS_LIB_Driver/Src/WS2812B.c ****        default:
 335:Core/Src/NOS_LIB_Driver/Src/WS2812B.c ****          break;
 336:Core/Src/NOS_LIB_Driver/Src/WS2812B.c ****        }
 337:Core/Src/NOS_LIB_Driver/Src/WS2812B.c **** 
 338:Core/Src/NOS_LIB_Driver/Src/WS2812B.c ****        if(detector->value.data >= detector->first_danger.data && detector->value.data < detector->s
ARM GAS  C:\Users\user\AppData\Local\Temp\ccD2C8ei.s 			page 23


 339:Core/Src/NOS_LIB_Driver/Src/WS2812B.c ****        {
 340:Core/Src/NOS_LIB_Driver/Src/WS2812B.c ****          matrix->textColor = yellow;
 341:Core/Src/NOS_LIB_Driver/Src/WS2812B.c ****        }
 342:Core/Src/NOS_LIB_Driver/Src/WS2812B.c ****        else if (detector->value.data >= detector->second_danger.data)
 343:Core/Src/NOS_LIB_Driver/Src/WS2812B.c ****        {
 344:Core/Src/NOS_LIB_Driver/Src/WS2812B.c ****          matrix->textColor = red;
 345:Core/Src/NOS_LIB_Driver/Src/WS2812B.c ****        }
 346:Core/Src/NOS_LIB_Driver/Src/WS2812B.c ****        else
 347:Core/Src/NOS_LIB_Driver/Src/WS2812B.c ****        {
 348:Core/Src/NOS_LIB_Driver/Src/WS2812B.c ****          matrix->textColor = green;
 349:Core/Src/NOS_LIB_Driver/Src/WS2812B.c ****        }
 350:Core/Src/NOS_LIB_Driver/Src/WS2812B.c **** }
 351:Core/Src/NOS_LIB_Driver/Src/WS2812B.c **** 
 352:Core/Src/NOS_LIB_Driver/Src/WS2812B.c **** void NOS_WS2812B_EffectEngineHandler(WS2812B_EffectEngine* engine)
 353:Core/Src/NOS_LIB_Driver/Src/WS2812B.c **** {
 859              		.loc 1 353 1 is_stmt 1 view -0
 860              		.cfi_startproc
 861              		@ args = 0, pretend = 0, frame = 0
 862              		@ frame_needed = 0, uses_anonymous_args = 0
 863              		@ link register save eliminated.
 354:Core/Src/NOS_LIB_Driver/Src/WS2812B.c **** 
 355:Core/Src/NOS_LIB_Driver/Src/WS2812B.c ****     engine->counter++;
 864              		.loc 1 355 5 view .LVU243
 865              		.loc 1 355 11 is_stmt 0 view .LVU244
 866 0000 8368     		ldr	r3, [r0, #8]
 867              		.loc 1 355 20 view .LVU245
 868 0002 0133     		adds	r3, r3, #1
 869 0004 8360     		str	r3, [r0, #8]
 356:Core/Src/NOS_LIB_Driver/Src/WS2812B.c **** }
 870              		.loc 1 356 1 view .LVU246
 871 0006 7047     		bx	lr
 872              		.cfi_endproc
 873              	.LFE144:
 875              		.section	.text.Symvol_GetBitMap,"ax",%progbits
 876              		.align	1
 877              		.global	Symvol_GetBitMap
 878              		.syntax unified
 879              		.thumb
 880              		.thumb_func
 881              		.fpu fpv4-sp-d16
 883              	Symvol_GetBitMap:
 884              	.LVL90:
 885              	.LFB145:
 357:Core/Src/NOS_LIB_Driver/Src/WS2812B.c **** 
 358:Core/Src/NOS_LIB_Driver/Src/WS2812B.c **** uint8_t* Symvol_GetBitMap(char sym)
 359:Core/Src/NOS_LIB_Driver/Src/WS2812B.c **** {
 886              		.loc 1 359 1 is_stmt 1 view -0
 887              		.cfi_startproc
 888              		@ args = 0, pretend = 0, frame = 0
 889              		@ frame_needed = 0, uses_anonymous_args = 0
 890              		@ link register save eliminated.
 360:Core/Src/NOS_LIB_Driver/Src/WS2812B.c ****     switch (sym)
 891              		.loc 1 360 5 view .LVU248
 892 0000 2038     		subs	r0, r0, #32
 893              	.LVL91:
 894              		.loc 1 360 5 is_stmt 0 view .LVU249
 895 0002 5928     		cmp	r0, #89
ARM GAS  C:\Users\user\AppData\Local\Temp\ccD2C8ei.s 			page 24


 896 0004 00F2C680 		bhi	.L54
 897 0008 DFE810F0 		tbh	[pc, r0, lsl #1]
 898              	.L56:
 899 000c A200     		.2byte	(.L109-.L56)/2
 900 000e C400     		.2byte	(.L54-.L56)/2
 901 0010 C400     		.2byte	(.L54-.L56)/2
 902 0012 C400     		.2byte	(.L54-.L56)/2
 903 0014 C400     		.2byte	(.L54-.L56)/2
 904 0016 C400     		.2byte	(.L54-.L56)/2
 905 0018 C400     		.2byte	(.L54-.L56)/2
 906 001a C400     		.2byte	(.L54-.L56)/2
 907 001c C400     		.2byte	(.L54-.L56)/2
 908 001e C400     		.2byte	(.L54-.L56)/2
 909 0020 AA00     		.2byte	(.L108-.L56)/2
 910 0022 A400     		.2byte	(.L107-.L56)/2
 911 0024 C400     		.2byte	(.L54-.L56)/2
 912 0026 A600     		.2byte	(.L106-.L56)/2
 913 0028 AC00     		.2byte	(.L105-.L56)/2
 914 002a A800     		.2byte	(.L104-.L56)/2
 915 002c B000     		.2byte	(.L103-.L56)/2
 916 002e B200     		.2byte	(.L102-.L56)/2
 917 0030 B400     		.2byte	(.L101-.L56)/2
 918 0032 B600     		.2byte	(.L100-.L56)/2
 919 0034 B800     		.2byte	(.L99-.L56)/2
 920 0036 BA00     		.2byte	(.L98-.L56)/2
 921 0038 BC00     		.2byte	(.L97-.L56)/2
 922 003a BE00     		.2byte	(.L96-.L56)/2
 923 003c C000     		.2byte	(.L95-.L56)/2
 924 003e C200     		.2byte	(.L94-.L56)/2
 925 0040 AE00     		.2byte	(.L93-.L56)/2
 926 0042 C400     		.2byte	(.L54-.L56)/2
 927 0044 C400     		.2byte	(.L54-.L56)/2
 928 0046 C400     		.2byte	(.L54-.L56)/2
 929 0048 C400     		.2byte	(.L54-.L56)/2
 930 004a C400     		.2byte	(.L54-.L56)/2
 931 004c C400     		.2byte	(.L54-.L56)/2
 932 004e 5A00     		.2byte	(.L92-.L56)/2
 933 0050 C600     		.2byte	(.L110-.L56)/2
 934 0052 5C00     		.2byte	(.L90-.L56)/2
 935 0054 5E00     		.2byte	(.L89-.L56)/2
 936 0056 6000     		.2byte	(.L88-.L56)/2
 937 0058 6200     		.2byte	(.L87-.L56)/2
 938 005a 6400     		.2byte	(.L86-.L56)/2
 939 005c 6600     		.2byte	(.L85-.L56)/2
 940 005e 6800     		.2byte	(.L84-.L56)/2
 941 0060 6A00     		.2byte	(.L83-.L56)/2
 942 0062 6C00     		.2byte	(.L82-.L56)/2
 943 0064 6E00     		.2byte	(.L81-.L56)/2
 944 0066 7000     		.2byte	(.L80-.L56)/2
 945 0068 7200     		.2byte	(.L79-.L56)/2
 946 006a 7400     		.2byte	(.L78-.L56)/2
 947 006c 7600     		.2byte	(.L77-.L56)/2
 948 006e 7800     		.2byte	(.L76-.L56)/2
 949 0070 7A00     		.2byte	(.L75-.L56)/2
 950 0072 7C00     		.2byte	(.L74-.L56)/2
 951 0074 7E00     		.2byte	(.L73-.L56)/2
 952 0076 8000     		.2byte	(.L72-.L56)/2
ARM GAS  C:\Users\user\AppData\Local\Temp\ccD2C8ei.s 			page 25


 953 0078 8200     		.2byte	(.L71-.L56)/2
 954 007a 8400     		.2byte	(.L70-.L56)/2
 955 007c 8600     		.2byte	(.L69-.L56)/2
 956 007e 8800     		.2byte	(.L68-.L56)/2
 957 0080 8A00     		.2byte	(.L67-.L56)/2
 958 0082 C400     		.2byte	(.L54-.L56)/2
 959 0084 C400     		.2byte	(.L54-.L56)/2
 960 0086 C400     		.2byte	(.L54-.L56)/2
 961 0088 C400     		.2byte	(.L54-.L56)/2
 962 008a C400     		.2byte	(.L54-.L56)/2
 963 008c C400     		.2byte	(.L54-.L56)/2
 964 008e 9000     		.2byte	(.L66-.L56)/2
 965 0090 C400     		.2byte	(.L54-.L56)/2
 966 0092 9200     		.2byte	(.L65-.L56)/2
 967 0094 9A00     		.2byte	(.L64-.L56)/2
 968 0096 C400     		.2byte	(.L54-.L56)/2
 969 0098 C400     		.2byte	(.L54-.L56)/2
 970 009a 9E00     		.2byte	(.L63-.L56)/2
 971 009c C400     		.2byte	(.L54-.L56)/2
 972 009e C400     		.2byte	(.L54-.L56)/2
 973 00a0 C400     		.2byte	(.L54-.L56)/2
 974 00a2 9800     		.2byte	(.L62-.L56)/2
 975 00a4 C400     		.2byte	(.L54-.L56)/2
 976 00a6 9600     		.2byte	(.L61-.L56)/2
 977 00a8 C400     		.2byte	(.L54-.L56)/2
 978 00aa 9C00     		.2byte	(.L60-.L56)/2
 979 00ac C400     		.2byte	(.L54-.L56)/2
 980 00ae C400     		.2byte	(.L54-.L56)/2
 981 00b0 9400     		.2byte	(.L59-.L56)/2
 982 00b2 C400     		.2byte	(.L54-.L56)/2
 983 00b4 C400     		.2byte	(.L54-.L56)/2
 984 00b6 8C00     		.2byte	(.L58-.L56)/2
 985 00b8 8E00     		.2byte	(.L57-.L56)/2
 986 00ba C400     		.2byte	(.L54-.L56)/2
 987 00bc C400     		.2byte	(.L54-.L56)/2
 988 00be A000     		.2byte	(.L55-.L56)/2
 989              		.p2align 1
 990              	.L92:
 361:Core/Src/NOS_LIB_Driver/Src/WS2812B.c ****     {
 362:Core/Src/NOS_LIB_Driver/Src/WS2812B.c **** /* English upper case */
 363:Core/Src/NOS_LIB_Driver/Src/WS2812B.c **** case 'A':
 364:Core/Src/NOS_LIB_Driver/Src/WS2812B.c ****     return Eng_A;
 365:Core/Src/NOS_LIB_Driver/Src/WS2812B.c ****     break;
 366:Core/Src/NOS_LIB_Driver/Src/WS2812B.c **** case 'B':
 367:Core/Src/NOS_LIB_Driver/Src/WS2812B.c ****     return Eng_B;
 368:Core/Src/NOS_LIB_Driver/Src/WS2812B.c ****     break;
 369:Core/Src/NOS_LIB_Driver/Src/WS2812B.c **** case 'C':
 370:Core/Src/NOS_LIB_Driver/Src/WS2812B.c ****     return Eng_C;
 371:Core/Src/NOS_LIB_Driver/Src/WS2812B.c ****     break;
 372:Core/Src/NOS_LIB_Driver/Src/WS2812B.c **** case 'D':
 373:Core/Src/NOS_LIB_Driver/Src/WS2812B.c ****     return Eng_D;
 374:Core/Src/NOS_LIB_Driver/Src/WS2812B.c ****     break;
 375:Core/Src/NOS_LIB_Driver/Src/WS2812B.c **** case 'E':
 376:Core/Src/NOS_LIB_Driver/Src/WS2812B.c ****     return Eng_E;
 377:Core/Src/NOS_LIB_Driver/Src/WS2812B.c ****     break;
 378:Core/Src/NOS_LIB_Driver/Src/WS2812B.c **** case 'F':
 379:Core/Src/NOS_LIB_Driver/Src/WS2812B.c ****     return Eng_F;
ARM GAS  C:\Users\user\AppData\Local\Temp\ccD2C8ei.s 			page 26


 380:Core/Src/NOS_LIB_Driver/Src/WS2812B.c ****     break;
 381:Core/Src/NOS_LIB_Driver/Src/WS2812B.c **** case 'G':
 382:Core/Src/NOS_LIB_Driver/Src/WS2812B.c ****     return Eng_G;
 383:Core/Src/NOS_LIB_Driver/Src/WS2812B.c ****     break;
 384:Core/Src/NOS_LIB_Driver/Src/WS2812B.c **** case 'H':
 385:Core/Src/NOS_LIB_Driver/Src/WS2812B.c ****     return Eng_H;
 386:Core/Src/NOS_LIB_Driver/Src/WS2812B.c ****     break;
 387:Core/Src/NOS_LIB_Driver/Src/WS2812B.c **** case 'I':
 388:Core/Src/NOS_LIB_Driver/Src/WS2812B.c ****     return Eng_I;
 389:Core/Src/NOS_LIB_Driver/Src/WS2812B.c ****     break;
 390:Core/Src/NOS_LIB_Driver/Src/WS2812B.c **** case 'J':
 391:Core/Src/NOS_LIB_Driver/Src/WS2812B.c ****     return Eng_J;
 392:Core/Src/NOS_LIB_Driver/Src/WS2812B.c ****     break;
 393:Core/Src/NOS_LIB_Driver/Src/WS2812B.c **** case 'K':
 394:Core/Src/NOS_LIB_Driver/Src/WS2812B.c ****     return Eng_K;
 395:Core/Src/NOS_LIB_Driver/Src/WS2812B.c ****     break;
 396:Core/Src/NOS_LIB_Driver/Src/WS2812B.c **** case 'L':
 397:Core/Src/NOS_LIB_Driver/Src/WS2812B.c ****     return Eng_L;
 398:Core/Src/NOS_LIB_Driver/Src/WS2812B.c ****     break;
 399:Core/Src/NOS_LIB_Driver/Src/WS2812B.c **** case 'M':
 400:Core/Src/NOS_LIB_Driver/Src/WS2812B.c ****     return Eng_M;
 401:Core/Src/NOS_LIB_Driver/Src/WS2812B.c ****     break;
 402:Core/Src/NOS_LIB_Driver/Src/WS2812B.c **** case 'N':
 403:Core/Src/NOS_LIB_Driver/Src/WS2812B.c ****     return Eng_N;
 404:Core/Src/NOS_LIB_Driver/Src/WS2812B.c ****     break;
 405:Core/Src/NOS_LIB_Driver/Src/WS2812B.c **** case 'O':
 406:Core/Src/NOS_LIB_Driver/Src/WS2812B.c ****     return Eng_O;
 407:Core/Src/NOS_LIB_Driver/Src/WS2812B.c ****     break;
 408:Core/Src/NOS_LIB_Driver/Src/WS2812B.c **** case 'P':
 409:Core/Src/NOS_LIB_Driver/Src/WS2812B.c ****     return Eng_P;
 410:Core/Src/NOS_LIB_Driver/Src/WS2812B.c ****     break;
 411:Core/Src/NOS_LIB_Driver/Src/WS2812B.c **** case 'Q':
 412:Core/Src/NOS_LIB_Driver/Src/WS2812B.c ****     return Eng_Q;
 413:Core/Src/NOS_LIB_Driver/Src/WS2812B.c ****     break;
 414:Core/Src/NOS_LIB_Driver/Src/WS2812B.c **** case 'R':
 415:Core/Src/NOS_LIB_Driver/Src/WS2812B.c ****     return Eng_R;
 416:Core/Src/NOS_LIB_Driver/Src/WS2812B.c ****     break;
 417:Core/Src/NOS_LIB_Driver/Src/WS2812B.c **** case 'S':
 418:Core/Src/NOS_LIB_Driver/Src/WS2812B.c ****     return Eng_S;
 419:Core/Src/NOS_LIB_Driver/Src/WS2812B.c ****     break;
 420:Core/Src/NOS_LIB_Driver/Src/WS2812B.c **** case 'T':
 421:Core/Src/NOS_LIB_Driver/Src/WS2812B.c ****     return Eng_T;
 422:Core/Src/NOS_LIB_Driver/Src/WS2812B.c ****     break;
 423:Core/Src/NOS_LIB_Driver/Src/WS2812B.c **** case 'U':
 424:Core/Src/NOS_LIB_Driver/Src/WS2812B.c ****     return Eng_U;
 425:Core/Src/NOS_LIB_Driver/Src/WS2812B.c ****     break;
 426:Core/Src/NOS_LIB_Driver/Src/WS2812B.c **** case 'V':
 427:Core/Src/NOS_LIB_Driver/Src/WS2812B.c ****     return Eng_V;
 428:Core/Src/NOS_LIB_Driver/Src/WS2812B.c ****     break;
 429:Core/Src/NOS_LIB_Driver/Src/WS2812B.c **** case 'W':
 430:Core/Src/NOS_LIB_Driver/Src/WS2812B.c ****     return Eng_W;
 431:Core/Src/NOS_LIB_Driver/Src/WS2812B.c ****     break;
 432:Core/Src/NOS_LIB_Driver/Src/WS2812B.c **** case 'X':
 433:Core/Src/NOS_LIB_Driver/Src/WS2812B.c ****     return Eng_X;
 434:Core/Src/NOS_LIB_Driver/Src/WS2812B.c ****     break;
 435:Core/Src/NOS_LIB_Driver/Src/WS2812B.c **** case 'Y':
 436:Core/Src/NOS_LIB_Driver/Src/WS2812B.c ****     return Eng_Y;
ARM GAS  C:\Users\user\AppData\Local\Temp\ccD2C8ei.s 			page 27


 437:Core/Src/NOS_LIB_Driver/Src/WS2812B.c ****     break;
 438:Core/Src/NOS_LIB_Driver/Src/WS2812B.c **** case 'Z':
 439:Core/Src/NOS_LIB_Driver/Src/WS2812B.c ****     return Eng_Z;
 440:Core/Src/NOS_LIB_Driver/Src/WS2812B.c ****     break;
 441:Core/Src/NOS_LIB_Driver/Src/WS2812B.c **** /* English upper case */
 442:Core/Src/NOS_LIB_Driver/Src/WS2812B.c **** 
 443:Core/Src/NOS_LIB_Driver/Src/WS2812B.c **** /* English lower case */
 444:Core/Src/NOS_LIB_Driver/Src/WS2812B.c **** case 'u':
 445:Core/Src/NOS_LIB_Driver/Src/WS2812B.c ****     return Eng_u;
 446:Core/Src/NOS_LIB_Driver/Src/WS2812B.c ****     break;
 447:Core/Src/NOS_LIB_Driver/Src/WS2812B.c **** case 'v':
 448:Core/Src/NOS_LIB_Driver/Src/WS2812B.c ****     return Eng_v;
 449:Core/Src/NOS_LIB_Driver/Src/WS2812B.c ****     break;
 450:Core/Src/NOS_LIB_Driver/Src/WS2812B.c **** case 'a':
 451:Core/Src/NOS_LIB_Driver/Src/WS2812B.c ****     return Eng_a;
 452:Core/Src/NOS_LIB_Driver/Src/WS2812B.c ****     break;
 453:Core/Src/NOS_LIB_Driver/Src/WS2812B.c **** case 'c':
 454:Core/Src/NOS_LIB_Driver/Src/WS2812B.c ****     return Eng_c;
 455:Core/Src/NOS_LIB_Driver/Src/WS2812B.c ****     break;
 456:Core/Src/NOS_LIB_Driver/Src/WS2812B.c **** case 'r':
 457:Core/Src/NOS_LIB_Driver/Src/WS2812B.c ****     return Eng_r;
 458:Core/Src/NOS_LIB_Driver/Src/WS2812B.c ****     break;
 459:Core/Src/NOS_LIB_Driver/Src/WS2812B.c **** /* English lower case */
 460:Core/Src/NOS_LIB_Driver/Src/WS2812B.c **** 
 461:Core/Src/NOS_LIB_Driver/Src/WS2812B.c **** case 'm':
 462:Core/Src/NOS_LIB_Driver/Src/WS2812B.c ****     return Ukr_m;
 463:Core/Src/NOS_LIB_Driver/Src/WS2812B.c ****     break;
 464:Core/Src/NOS_LIB_Driver/Src/WS2812B.c **** case 'k':
 465:Core/Src/NOS_LIB_Driver/Src/WS2812B.c ****     return Ukr_k;
 466:Core/Src/NOS_LIB_Driver/Src/WS2812B.c ****     break;
 467:Core/Src/NOS_LIB_Driver/Src/WS2812B.c **** case 'd':
 468:Core/Src/NOS_LIB_Driver/Src/WS2812B.c ****     return Ukr_d;
 469:Core/Src/NOS_LIB_Driver/Src/WS2812B.c ****     break;    
 470:Core/Src/NOS_LIB_Driver/Src/WS2812B.c **** case 'o':
 471:Core/Src/NOS_LIB_Driver/Src/WS2812B.c ****     return Eng_o;
 472:Core/Src/NOS_LIB_Driver/Src/WS2812B.c ****     break;     
 473:Core/Src/NOS_LIB_Driver/Src/WS2812B.c ****  case 'g':
 474:Core/Src/NOS_LIB_Driver/Src/WS2812B.c ****     return Ukr_g;
 475:Core/Src/NOS_LIB_Driver/Src/WS2812B.c ****     break;       
 476:Core/Src/NOS_LIB_Driver/Src/WS2812B.c **** case 'y':
 477:Core/Src/NOS_LIB_Driver/Src/WS2812B.c ****     return Ukr_ch;
 478:Core/Src/NOS_LIB_Driver/Src/WS2812B.c ****     break;
 479:Core/Src/NOS_LIB_Driver/Src/WS2812B.c **** 
 480:Core/Src/NOS_LIB_Driver/Src/WS2812B.c **** /* Special symvols */
 481:Core/Src/NOS_LIB_Driver/Src/WS2812B.c **** case ' ':
 482:Core/Src/NOS_LIB_Driver/Src/WS2812B.c ****     return Space;
 483:Core/Src/NOS_LIB_Driver/Src/WS2812B.c ****     break;
 484:Core/Src/NOS_LIB_Driver/Src/WS2812B.c **** case '+':
 485:Core/Src/NOS_LIB_Driver/Src/WS2812B.c ****     return Plus;
 486:Core/Src/NOS_LIB_Driver/Src/WS2812B.c ****     break;
 487:Core/Src/NOS_LIB_Driver/Src/WS2812B.c **** case '-':
 488:Core/Src/NOS_LIB_Driver/Src/WS2812B.c ****     return Minus;
 489:Core/Src/NOS_LIB_Driver/Src/WS2812B.c ****     break;    
 490:Core/Src/NOS_LIB_Driver/Src/WS2812B.c **** case '/':
 491:Core/Src/NOS_LIB_Driver/Src/WS2812B.c ****     return Slash;
 492:Core/Src/NOS_LIB_Driver/Src/WS2812B.c ****     break;
 493:Core/Src/NOS_LIB_Driver/Src/WS2812B.c **** case '*':
ARM GAS  C:\Users\user\AppData\Local\Temp\ccD2C8ei.s 			page 28


 494:Core/Src/NOS_LIB_Driver/Src/WS2812B.c ****     return Celcium;
 495:Core/Src/NOS_LIB_Driver/Src/WS2812B.c ****     break;
 496:Core/Src/NOS_LIB_Driver/Src/WS2812B.c **** case '.':
 497:Core/Src/NOS_LIB_Driver/Src/WS2812B.c ****     return Dot;
 498:Core/Src/NOS_LIB_Driver/Src/WS2812B.c ****     break;
 499:Core/Src/NOS_LIB_Driver/Src/WS2812B.c **** case ':':
 500:Core/Src/NOS_LIB_Driver/Src/WS2812B.c ****     return DoubleDot;
 501:Core/Src/NOS_LIB_Driver/Src/WS2812B.c ****     break;
 502:Core/Src/NOS_LIB_Driver/Src/WS2812B.c **** 
 503:Core/Src/NOS_LIB_Driver/Src/WS2812B.c **** 
 504:Core/Src/NOS_LIB_Driver/Src/WS2812B.c **** 
 505:Core/Src/NOS_LIB_Driver/Src/WS2812B.c **** /* Special symvols */
 506:Core/Src/NOS_LIB_Driver/Src/WS2812B.c **** 
 507:Core/Src/NOS_LIB_Driver/Src/WS2812B.c **** /* Numbers */
 508:Core/Src/NOS_LIB_Driver/Src/WS2812B.c **** case '0':
 509:Core/Src/NOS_LIB_Driver/Src/WS2812B.c ****     return Num_0;
 510:Core/Src/NOS_LIB_Driver/Src/WS2812B.c ****     break;
 511:Core/Src/NOS_LIB_Driver/Src/WS2812B.c ****     case '1':
 512:Core/Src/NOS_LIB_Driver/Src/WS2812B.c ****     return Num_1;
 513:Core/Src/NOS_LIB_Driver/Src/WS2812B.c ****     break;
 514:Core/Src/NOS_LIB_Driver/Src/WS2812B.c ****     case '2':
 515:Core/Src/NOS_LIB_Driver/Src/WS2812B.c ****     return Num_2;
 516:Core/Src/NOS_LIB_Driver/Src/WS2812B.c ****     break;
 517:Core/Src/NOS_LIB_Driver/Src/WS2812B.c ****     case '3':
 518:Core/Src/NOS_LIB_Driver/Src/WS2812B.c ****     return Num_3;
 519:Core/Src/NOS_LIB_Driver/Src/WS2812B.c ****     break;
 520:Core/Src/NOS_LIB_Driver/Src/WS2812B.c ****     case '4':
 521:Core/Src/NOS_LIB_Driver/Src/WS2812B.c ****     return Num_4;
 522:Core/Src/NOS_LIB_Driver/Src/WS2812B.c ****     break;
 523:Core/Src/NOS_LIB_Driver/Src/WS2812B.c ****     case '5':
 524:Core/Src/NOS_LIB_Driver/Src/WS2812B.c ****     return Num_5;
 525:Core/Src/NOS_LIB_Driver/Src/WS2812B.c ****     break;
 526:Core/Src/NOS_LIB_Driver/Src/WS2812B.c ****     case '6':
 527:Core/Src/NOS_LIB_Driver/Src/WS2812B.c ****     return Num_6;
 528:Core/Src/NOS_LIB_Driver/Src/WS2812B.c ****     break;
 529:Core/Src/NOS_LIB_Driver/Src/WS2812B.c ****     case '7':
 530:Core/Src/NOS_LIB_Driver/Src/WS2812B.c ****     return Num_7;
 531:Core/Src/NOS_LIB_Driver/Src/WS2812B.c ****     break;
 532:Core/Src/NOS_LIB_Driver/Src/WS2812B.c ****     case '8':
 533:Core/Src/NOS_LIB_Driver/Src/WS2812B.c ****     return Num_8;
 534:Core/Src/NOS_LIB_Driver/Src/WS2812B.c ****     break;
 535:Core/Src/NOS_LIB_Driver/Src/WS2812B.c ****     case '9':
 536:Core/Src/NOS_LIB_Driver/Src/WS2812B.c ****     return Num_9;
 991              		.loc 1 536 12 view .LVU250
 992 00c0 3648     		ldr	r0, .L111
 993 00c2 7047     		bx	lr
 994              	.L90:
 368:Core/Src/NOS_LIB_Driver/Src/WS2812B.c **** case 'C':
 995              		.loc 1 368 5 is_stmt 1 view .LVU251
 370:Core/Src/NOS_LIB_Driver/Src/WS2812B.c ****     break;
 996              		.loc 1 370 5 view .LVU252
 370:Core/Src/NOS_LIB_Driver/Src/WS2812B.c ****     break;
 997              		.loc 1 370 12 is_stmt 0 view .LVU253
 998 00c4 3648     		ldr	r0, .L111+4
 999 00c6 7047     		bx	lr
 1000              	.L89:
 371:Core/Src/NOS_LIB_Driver/Src/WS2812B.c **** case 'D':
ARM GAS  C:\Users\user\AppData\Local\Temp\ccD2C8ei.s 			page 29


 1001              		.loc 1 371 5 is_stmt 1 view .LVU254
 373:Core/Src/NOS_LIB_Driver/Src/WS2812B.c ****     break;
 1002              		.loc 1 373 5 view .LVU255
 373:Core/Src/NOS_LIB_Driver/Src/WS2812B.c ****     break;
 1003              		.loc 1 373 12 is_stmt 0 view .LVU256
 1004 00c8 3648     		ldr	r0, .L111+8
 1005 00ca 7047     		bx	lr
 1006              	.L88:
 374:Core/Src/NOS_LIB_Driver/Src/WS2812B.c **** case 'E':
 1007              		.loc 1 374 5 is_stmt 1 view .LVU257
 376:Core/Src/NOS_LIB_Driver/Src/WS2812B.c ****     break;
 1008              		.loc 1 376 5 view .LVU258
 376:Core/Src/NOS_LIB_Driver/Src/WS2812B.c ****     break;
 1009              		.loc 1 376 12 is_stmt 0 view .LVU259
 1010 00cc 3648     		ldr	r0, .L111+12
 1011 00ce 7047     		bx	lr
 1012              	.L87:
 377:Core/Src/NOS_LIB_Driver/Src/WS2812B.c **** case 'F':
 1013              		.loc 1 377 5 is_stmt 1 view .LVU260
 379:Core/Src/NOS_LIB_Driver/Src/WS2812B.c ****     break;
 1014              		.loc 1 379 5 view .LVU261
 379:Core/Src/NOS_LIB_Driver/Src/WS2812B.c ****     break;
 1015              		.loc 1 379 12 is_stmt 0 view .LVU262
 1016 00d0 3648     		ldr	r0, .L111+16
 1017 00d2 7047     		bx	lr
 1018              	.L86:
 380:Core/Src/NOS_LIB_Driver/Src/WS2812B.c **** case 'G':
 1019              		.loc 1 380 5 is_stmt 1 view .LVU263
 382:Core/Src/NOS_LIB_Driver/Src/WS2812B.c ****     break;
 1020              		.loc 1 382 5 view .LVU264
 382:Core/Src/NOS_LIB_Driver/Src/WS2812B.c ****     break;
 1021              		.loc 1 382 12 is_stmt 0 view .LVU265
 1022 00d4 3648     		ldr	r0, .L111+20
 1023 00d6 7047     		bx	lr
 1024              	.L85:
 383:Core/Src/NOS_LIB_Driver/Src/WS2812B.c **** case 'H':
 1025              		.loc 1 383 5 is_stmt 1 view .LVU266
 385:Core/Src/NOS_LIB_Driver/Src/WS2812B.c ****     break;
 1026              		.loc 1 385 5 view .LVU267
 385:Core/Src/NOS_LIB_Driver/Src/WS2812B.c ****     break;
 1027              		.loc 1 385 12 is_stmt 0 view .LVU268
 1028 00d8 3648     		ldr	r0, .L111+24
 1029 00da 7047     		bx	lr
 1030              	.L84:
 386:Core/Src/NOS_LIB_Driver/Src/WS2812B.c **** case 'I':
 1031              		.loc 1 386 5 is_stmt 1 view .LVU269
 388:Core/Src/NOS_LIB_Driver/Src/WS2812B.c ****     break;
 1032              		.loc 1 388 5 view .LVU270
 388:Core/Src/NOS_LIB_Driver/Src/WS2812B.c ****     break;
 1033              		.loc 1 388 12 is_stmt 0 view .LVU271
 1034 00dc 3648     		ldr	r0, .L111+28
 1035 00de 7047     		bx	lr
 1036              	.L83:
 389:Core/Src/NOS_LIB_Driver/Src/WS2812B.c **** case 'J':
 1037              		.loc 1 389 5 is_stmt 1 view .LVU272
 391:Core/Src/NOS_LIB_Driver/Src/WS2812B.c ****     break;
 1038              		.loc 1 391 5 view .LVU273
ARM GAS  C:\Users\user\AppData\Local\Temp\ccD2C8ei.s 			page 30


 391:Core/Src/NOS_LIB_Driver/Src/WS2812B.c ****     break;
 1039              		.loc 1 391 12 is_stmt 0 view .LVU274
 1040 00e0 3648     		ldr	r0, .L111+32
 1041 00e2 7047     		bx	lr
 1042              	.L82:
 392:Core/Src/NOS_LIB_Driver/Src/WS2812B.c **** case 'K':
 1043              		.loc 1 392 5 is_stmt 1 view .LVU275
 394:Core/Src/NOS_LIB_Driver/Src/WS2812B.c ****     break;
 1044              		.loc 1 394 5 view .LVU276
 394:Core/Src/NOS_LIB_Driver/Src/WS2812B.c ****     break;
 1045              		.loc 1 394 12 is_stmt 0 view .LVU277
 1046 00e4 3648     		ldr	r0, .L111+36
 1047 00e6 7047     		bx	lr
 1048              	.L81:
 395:Core/Src/NOS_LIB_Driver/Src/WS2812B.c **** case 'L':
 1049              		.loc 1 395 5 is_stmt 1 view .LVU278
 397:Core/Src/NOS_LIB_Driver/Src/WS2812B.c ****     break;
 1050              		.loc 1 397 5 view .LVU279
 397:Core/Src/NOS_LIB_Driver/Src/WS2812B.c ****     break;
 1051              		.loc 1 397 12 is_stmt 0 view .LVU280
 1052 00e8 3648     		ldr	r0, .L111+40
 1053 00ea 7047     		bx	lr
 1054              	.L80:
 398:Core/Src/NOS_LIB_Driver/Src/WS2812B.c **** case 'M':
 1055              		.loc 1 398 5 is_stmt 1 view .LVU281
 400:Core/Src/NOS_LIB_Driver/Src/WS2812B.c ****     break;
 1056              		.loc 1 400 5 view .LVU282
 400:Core/Src/NOS_LIB_Driver/Src/WS2812B.c ****     break;
 1057              		.loc 1 400 12 is_stmt 0 view .LVU283
 1058 00ec 3648     		ldr	r0, .L111+44
 1059 00ee 7047     		bx	lr
 1060              	.L79:
 401:Core/Src/NOS_LIB_Driver/Src/WS2812B.c **** case 'N':
 1061              		.loc 1 401 5 is_stmt 1 view .LVU284
 403:Core/Src/NOS_LIB_Driver/Src/WS2812B.c ****     break;
 1062              		.loc 1 403 5 view .LVU285
 403:Core/Src/NOS_LIB_Driver/Src/WS2812B.c ****     break;
 1063              		.loc 1 403 12 is_stmt 0 view .LVU286
 1064 00f0 3648     		ldr	r0, .L111+48
 1065 00f2 7047     		bx	lr
 1066              	.L78:
 404:Core/Src/NOS_LIB_Driver/Src/WS2812B.c **** case 'O':
 1067              		.loc 1 404 5 is_stmt 1 view .LVU287
 406:Core/Src/NOS_LIB_Driver/Src/WS2812B.c ****     break;
 1068              		.loc 1 406 5 view .LVU288
 406:Core/Src/NOS_LIB_Driver/Src/WS2812B.c ****     break;
 1069              		.loc 1 406 12 is_stmt 0 view .LVU289
 1070 00f4 3648     		ldr	r0, .L111+52
 1071 00f6 7047     		bx	lr
 1072              	.L77:
 407:Core/Src/NOS_LIB_Driver/Src/WS2812B.c **** case 'P':
 1073              		.loc 1 407 5 is_stmt 1 view .LVU290
 409:Core/Src/NOS_LIB_Driver/Src/WS2812B.c ****     break;
 1074              		.loc 1 409 5 view .LVU291
 409:Core/Src/NOS_LIB_Driver/Src/WS2812B.c ****     break;
 1075              		.loc 1 409 12 is_stmt 0 view .LVU292
 1076 00f8 3648     		ldr	r0, .L111+56
ARM GAS  C:\Users\user\AppData\Local\Temp\ccD2C8ei.s 			page 31


 1077 00fa 7047     		bx	lr
 1078              	.L76:
 410:Core/Src/NOS_LIB_Driver/Src/WS2812B.c **** case 'Q':
 1079              		.loc 1 410 5 is_stmt 1 view .LVU293
 412:Core/Src/NOS_LIB_Driver/Src/WS2812B.c ****     break;
 1080              		.loc 1 412 5 view .LVU294
 412:Core/Src/NOS_LIB_Driver/Src/WS2812B.c ****     break;
 1081              		.loc 1 412 12 is_stmt 0 view .LVU295
 1082 00fc 3648     		ldr	r0, .L111+60
 1083 00fe 7047     		bx	lr
 1084              	.L75:
 413:Core/Src/NOS_LIB_Driver/Src/WS2812B.c **** case 'R':
 1085              		.loc 1 413 5 is_stmt 1 view .LVU296
 415:Core/Src/NOS_LIB_Driver/Src/WS2812B.c ****     break;
 1086              		.loc 1 415 5 view .LVU297
 415:Core/Src/NOS_LIB_Driver/Src/WS2812B.c ****     break;
 1087              		.loc 1 415 12 is_stmt 0 view .LVU298
 1088 0100 3648     		ldr	r0, .L111+64
 1089 0102 7047     		bx	lr
 1090              	.L74:
 416:Core/Src/NOS_LIB_Driver/Src/WS2812B.c **** case 'S':
 1091              		.loc 1 416 5 is_stmt 1 view .LVU299
 418:Core/Src/NOS_LIB_Driver/Src/WS2812B.c ****     break;
 1092              		.loc 1 418 5 view .LVU300
 418:Core/Src/NOS_LIB_Driver/Src/WS2812B.c ****     break;
 1093              		.loc 1 418 12 is_stmt 0 view .LVU301
 1094 0104 3648     		ldr	r0, .L111+68
 1095 0106 7047     		bx	lr
 1096              	.L73:
 419:Core/Src/NOS_LIB_Driver/Src/WS2812B.c **** case 'T':
 1097              		.loc 1 419 5 is_stmt 1 view .LVU302
 421:Core/Src/NOS_LIB_Driver/Src/WS2812B.c ****     break;
 1098              		.loc 1 421 5 view .LVU303
 421:Core/Src/NOS_LIB_Driver/Src/WS2812B.c ****     break;
 1099              		.loc 1 421 12 is_stmt 0 view .LVU304
 1100 0108 3648     		ldr	r0, .L111+72
 1101 010a 7047     		bx	lr
 1102              	.L72:
 422:Core/Src/NOS_LIB_Driver/Src/WS2812B.c **** case 'U':
 1103              		.loc 1 422 5 is_stmt 1 view .LVU305
 424:Core/Src/NOS_LIB_Driver/Src/WS2812B.c ****     break;
 1104              		.loc 1 424 5 view .LVU306
 424:Core/Src/NOS_LIB_Driver/Src/WS2812B.c ****     break;
 1105              		.loc 1 424 12 is_stmt 0 view .LVU307
 1106 010c 3648     		ldr	r0, .L111+76
 1107 010e 7047     		bx	lr
 1108              	.L71:
 425:Core/Src/NOS_LIB_Driver/Src/WS2812B.c **** case 'V':
 1109              		.loc 1 425 5 is_stmt 1 view .LVU308
 427:Core/Src/NOS_LIB_Driver/Src/WS2812B.c ****     break;
 1110              		.loc 1 427 5 view .LVU309
 427:Core/Src/NOS_LIB_Driver/Src/WS2812B.c ****     break;
 1111              		.loc 1 427 12 is_stmt 0 view .LVU310
 1112 0110 3648     		ldr	r0, .L111+80
 1113 0112 7047     		bx	lr
 1114              	.L70:
 428:Core/Src/NOS_LIB_Driver/Src/WS2812B.c **** case 'W':
ARM GAS  C:\Users\user\AppData\Local\Temp\ccD2C8ei.s 			page 32


 1115              		.loc 1 428 5 is_stmt 1 view .LVU311
 430:Core/Src/NOS_LIB_Driver/Src/WS2812B.c ****     break;
 1116              		.loc 1 430 5 view .LVU312
 430:Core/Src/NOS_LIB_Driver/Src/WS2812B.c ****     break;
 1117              		.loc 1 430 12 is_stmt 0 view .LVU313
 1118 0114 3648     		ldr	r0, .L111+84
 1119 0116 7047     		bx	lr
 1120              	.L69:
 431:Core/Src/NOS_LIB_Driver/Src/WS2812B.c **** case 'X':
 1121              		.loc 1 431 5 is_stmt 1 view .LVU314
 433:Core/Src/NOS_LIB_Driver/Src/WS2812B.c ****     break;
 1122              		.loc 1 433 5 view .LVU315
 433:Core/Src/NOS_LIB_Driver/Src/WS2812B.c ****     break;
 1123              		.loc 1 433 12 is_stmt 0 view .LVU316
 1124 0118 3648     		ldr	r0, .L111+88
 1125 011a 7047     		bx	lr
 1126              	.L68:
 434:Core/Src/NOS_LIB_Driver/Src/WS2812B.c **** case 'Y':
 1127              		.loc 1 434 5 is_stmt 1 view .LVU317
 436:Core/Src/NOS_LIB_Driver/Src/WS2812B.c ****     break;
 1128              		.loc 1 436 5 view .LVU318
 436:Core/Src/NOS_LIB_Driver/Src/WS2812B.c ****     break;
 1129              		.loc 1 436 12 is_stmt 0 view .LVU319
 1130 011c 3648     		ldr	r0, .L111+92
 1131 011e 7047     		bx	lr
 1132              	.L67:
 437:Core/Src/NOS_LIB_Driver/Src/WS2812B.c **** case 'Z':
 1133              		.loc 1 437 5 is_stmt 1 view .LVU320
 439:Core/Src/NOS_LIB_Driver/Src/WS2812B.c ****     break;
 1134              		.loc 1 439 5 view .LVU321
 439:Core/Src/NOS_LIB_Driver/Src/WS2812B.c ****     break;
 1135              		.loc 1 439 12 is_stmt 0 view .LVU322
 1136 0120 3648     		ldr	r0, .L111+96
 1137 0122 7047     		bx	lr
 1138              	.L58:
 440:Core/Src/NOS_LIB_Driver/Src/WS2812B.c **** /* English upper case */
 1139              		.loc 1 440 5 is_stmt 1 view .LVU323
 445:Core/Src/NOS_LIB_Driver/Src/WS2812B.c ****     break;
 1140              		.loc 1 445 5 view .LVU324
 445:Core/Src/NOS_LIB_Driver/Src/WS2812B.c ****     break;
 1141              		.loc 1 445 12 is_stmt 0 view .LVU325
 1142 0124 3648     		ldr	r0, .L111+100
 1143 0126 7047     		bx	lr
 1144              	.L57:
 446:Core/Src/NOS_LIB_Driver/Src/WS2812B.c **** case 'v':
 1145              		.loc 1 446 5 is_stmt 1 view .LVU326
 448:Core/Src/NOS_LIB_Driver/Src/WS2812B.c ****     break;
 1146              		.loc 1 448 5 view .LVU327
 448:Core/Src/NOS_LIB_Driver/Src/WS2812B.c ****     break;
 1147              		.loc 1 448 12 is_stmt 0 view .LVU328
 1148 0128 3648     		ldr	r0, .L111+104
 1149 012a 7047     		bx	lr
 1150              	.L66:
 449:Core/Src/NOS_LIB_Driver/Src/WS2812B.c **** case 'a':
 1151              		.loc 1 449 5 is_stmt 1 view .LVU329
 451:Core/Src/NOS_LIB_Driver/Src/WS2812B.c ****     break;
 1152              		.loc 1 451 5 view .LVU330
ARM GAS  C:\Users\user\AppData\Local\Temp\ccD2C8ei.s 			page 33


 451:Core/Src/NOS_LIB_Driver/Src/WS2812B.c ****     break;
 1153              		.loc 1 451 12 is_stmt 0 view .LVU331
 1154 012c 3648     		ldr	r0, .L111+108
 1155 012e 7047     		bx	lr
 1156              	.L65:
 452:Core/Src/NOS_LIB_Driver/Src/WS2812B.c **** case 'c':
 1157              		.loc 1 452 5 is_stmt 1 view .LVU332
 454:Core/Src/NOS_LIB_Driver/Src/WS2812B.c ****     break;
 1158              		.loc 1 454 5 view .LVU333
 454:Core/Src/NOS_LIB_Driver/Src/WS2812B.c ****     break;
 1159              		.loc 1 454 12 is_stmt 0 view .LVU334
 1160 0130 3648     		ldr	r0, .L111+112
 1161 0132 7047     		bx	lr
 1162              	.L59:
 455:Core/Src/NOS_LIB_Driver/Src/WS2812B.c **** case 'r':
 1163              		.loc 1 455 5 is_stmt 1 view .LVU335
 457:Core/Src/NOS_LIB_Driver/Src/WS2812B.c ****     break;
 1164              		.loc 1 457 5 view .LVU336
 457:Core/Src/NOS_LIB_Driver/Src/WS2812B.c ****     break;
 1165              		.loc 1 457 12 is_stmt 0 view .LVU337
 1166 0134 3648     		ldr	r0, .L111+116
 1167 0136 7047     		bx	lr
 1168              	.L61:
 458:Core/Src/NOS_LIB_Driver/Src/WS2812B.c **** /* English lower case */
 1169              		.loc 1 458 5 is_stmt 1 view .LVU338
 462:Core/Src/NOS_LIB_Driver/Src/WS2812B.c ****     break;
 1170              		.loc 1 462 5 view .LVU339
 462:Core/Src/NOS_LIB_Driver/Src/WS2812B.c ****     break;
 1171              		.loc 1 462 12 is_stmt 0 view .LVU340
 1172 0138 3648     		ldr	r0, .L111+120
 1173 013a 7047     		bx	lr
 1174              	.L62:
 463:Core/Src/NOS_LIB_Driver/Src/WS2812B.c **** case 'k':
 1175              		.loc 1 463 5 is_stmt 1 view .LVU341
 465:Core/Src/NOS_LIB_Driver/Src/WS2812B.c ****     break;
 1176              		.loc 1 465 5 view .LVU342
 465:Core/Src/NOS_LIB_Driver/Src/WS2812B.c ****     break;
 1177              		.loc 1 465 12 is_stmt 0 view .LVU343
 1178 013c 3648     		ldr	r0, .L111+124
 1179 013e 7047     		bx	lr
 1180              	.L64:
 466:Core/Src/NOS_LIB_Driver/Src/WS2812B.c **** case 'd':
 1181              		.loc 1 466 5 is_stmt 1 view .LVU344
 468:Core/Src/NOS_LIB_Driver/Src/WS2812B.c ****     break;    
 1182              		.loc 1 468 5 view .LVU345
 468:Core/Src/NOS_LIB_Driver/Src/WS2812B.c ****     break;    
 1183              		.loc 1 468 12 is_stmt 0 view .LVU346
 1184 0140 3648     		ldr	r0, .L111+128
 1185 0142 7047     		bx	lr
 1186              	.L60:
 469:Core/Src/NOS_LIB_Driver/Src/WS2812B.c **** case 'o':
 1187              		.loc 1 469 5 is_stmt 1 view .LVU347
 471:Core/Src/NOS_LIB_Driver/Src/WS2812B.c ****     break;     
 1188              		.loc 1 471 5 view .LVU348
 471:Core/Src/NOS_LIB_Driver/Src/WS2812B.c ****     break;     
 1189              		.loc 1 471 12 is_stmt 0 view .LVU349
 1190 0144 3648     		ldr	r0, .L111+132
ARM GAS  C:\Users\user\AppData\Local\Temp\ccD2C8ei.s 			page 34


 1191 0146 7047     		bx	lr
 1192              	.L63:
 472:Core/Src/NOS_LIB_Driver/Src/WS2812B.c ****  case 'g':
 1193              		.loc 1 472 5 is_stmt 1 view .LVU350
 474:Core/Src/NOS_LIB_Driver/Src/WS2812B.c ****     break;       
 1194              		.loc 1 474 5 view .LVU351
 474:Core/Src/NOS_LIB_Driver/Src/WS2812B.c ****     break;       
 1195              		.loc 1 474 12 is_stmt 0 view .LVU352
 1196 0148 3648     		ldr	r0, .L111+136
 1197 014a 7047     		bx	lr
 1198              	.L55:
 475:Core/Src/NOS_LIB_Driver/Src/WS2812B.c **** case 'y':
 1199              		.loc 1 475 5 is_stmt 1 view .LVU353
 477:Core/Src/NOS_LIB_Driver/Src/WS2812B.c ****     break;
 1200              		.loc 1 477 5 view .LVU354
 477:Core/Src/NOS_LIB_Driver/Src/WS2812B.c ****     break;
 1201              		.loc 1 477 12 is_stmt 0 view .LVU355
 1202 014c 3648     		ldr	r0, .L111+140
 1203 014e 7047     		bx	lr
 1204              	.L109:
 478:Core/Src/NOS_LIB_Driver/Src/WS2812B.c **** 
 1205              		.loc 1 478 5 is_stmt 1 view .LVU356
 482:Core/Src/NOS_LIB_Driver/Src/WS2812B.c ****     break;
 1206              		.loc 1 482 5 view .LVU357
 482:Core/Src/NOS_LIB_Driver/Src/WS2812B.c ****     break;
 1207              		.loc 1 482 12 is_stmt 0 view .LVU358
 1208 0150 3648     		ldr	r0, .L111+144
 1209 0152 7047     		bx	lr
 1210              	.L107:
 483:Core/Src/NOS_LIB_Driver/Src/WS2812B.c **** case '+':
 1211              		.loc 1 483 5 is_stmt 1 view .LVU359
 485:Core/Src/NOS_LIB_Driver/Src/WS2812B.c ****     break;
 1212              		.loc 1 485 5 view .LVU360
 485:Core/Src/NOS_LIB_Driver/Src/WS2812B.c ****     break;
 1213              		.loc 1 485 12 is_stmt 0 view .LVU361
 1214 0154 3648     		ldr	r0, .L111+148
 1215 0156 7047     		bx	lr
 1216              	.L106:
 486:Core/Src/NOS_LIB_Driver/Src/WS2812B.c **** case '-':
 1217              		.loc 1 486 5 is_stmt 1 view .LVU362
 488:Core/Src/NOS_LIB_Driver/Src/WS2812B.c ****     break;    
 1218              		.loc 1 488 5 view .LVU363
 488:Core/Src/NOS_LIB_Driver/Src/WS2812B.c ****     break;    
 1219              		.loc 1 488 12 is_stmt 0 view .LVU364
 1220 0158 3648     		ldr	r0, .L111+152
 1221 015a 7047     		bx	lr
 1222              	.L104:
 489:Core/Src/NOS_LIB_Driver/Src/WS2812B.c **** case '/':
 1223              		.loc 1 489 5 is_stmt 1 view .LVU365
 491:Core/Src/NOS_LIB_Driver/Src/WS2812B.c ****     break;
 1224              		.loc 1 491 5 view .LVU366
 491:Core/Src/NOS_LIB_Driver/Src/WS2812B.c ****     break;
 1225              		.loc 1 491 12 is_stmt 0 view .LVU367
 1226 015c 3648     		ldr	r0, .L111+156
 1227 015e 7047     		bx	lr
 1228              	.L108:
 492:Core/Src/NOS_LIB_Driver/Src/WS2812B.c **** case '*':
ARM GAS  C:\Users\user\AppData\Local\Temp\ccD2C8ei.s 			page 35


 1229              		.loc 1 492 5 is_stmt 1 view .LVU368
 494:Core/Src/NOS_LIB_Driver/Src/WS2812B.c ****     break;
 1230              		.loc 1 494 5 view .LVU369
 494:Core/Src/NOS_LIB_Driver/Src/WS2812B.c ****     break;
 1231              		.loc 1 494 12 is_stmt 0 view .LVU370
 1232 0160 3648     		ldr	r0, .L111+160
 1233 0162 7047     		bx	lr
 1234              	.L105:
 495:Core/Src/NOS_LIB_Driver/Src/WS2812B.c **** case '.':
 1235              		.loc 1 495 5 is_stmt 1 view .LVU371
 497:Core/Src/NOS_LIB_Driver/Src/WS2812B.c ****     break;
 1236              		.loc 1 497 5 view .LVU372
 497:Core/Src/NOS_LIB_Driver/Src/WS2812B.c ****     break;
 1237              		.loc 1 497 12 is_stmt 0 view .LVU373
 1238 0164 3648     		ldr	r0, .L111+164
 1239 0166 7047     		bx	lr
 1240              	.L93:
 498:Core/Src/NOS_LIB_Driver/Src/WS2812B.c **** case ':':
 1241              		.loc 1 498 5 is_stmt 1 view .LVU374
 500:Core/Src/NOS_LIB_Driver/Src/WS2812B.c ****     break;
 1242              		.loc 1 500 5 view .LVU375
 500:Core/Src/NOS_LIB_Driver/Src/WS2812B.c ****     break;
 1243              		.loc 1 500 12 is_stmt 0 view .LVU376
 1244 0168 3648     		ldr	r0, .L111+168
 1245 016a 7047     		bx	lr
 1246              	.L103:
 501:Core/Src/NOS_LIB_Driver/Src/WS2812B.c **** 
 1247              		.loc 1 501 5 is_stmt 1 view .LVU377
 509:Core/Src/NOS_LIB_Driver/Src/WS2812B.c ****     break;
 1248              		.loc 1 509 5 view .LVU378
 509:Core/Src/NOS_LIB_Driver/Src/WS2812B.c ****     break;
 1249              		.loc 1 509 12 is_stmt 0 view .LVU379
 1250 016c 3648     		ldr	r0, .L111+172
 1251 016e 7047     		bx	lr
 1252              	.L102:
 510:Core/Src/NOS_LIB_Driver/Src/WS2812B.c ****     case '1':
 1253              		.loc 1 510 5 is_stmt 1 view .LVU380
 512:Core/Src/NOS_LIB_Driver/Src/WS2812B.c ****     break;
 1254              		.loc 1 512 5 view .LVU381
 512:Core/Src/NOS_LIB_Driver/Src/WS2812B.c ****     break;
 1255              		.loc 1 512 12 is_stmt 0 view .LVU382
 1256 0170 3648     		ldr	r0, .L111+176
 1257 0172 7047     		bx	lr
 1258              	.L101:
 513:Core/Src/NOS_LIB_Driver/Src/WS2812B.c ****     case '2':
 1259              		.loc 1 513 5 is_stmt 1 view .LVU383
 515:Core/Src/NOS_LIB_Driver/Src/WS2812B.c ****     break;
 1260              		.loc 1 515 5 view .LVU384
 515:Core/Src/NOS_LIB_Driver/Src/WS2812B.c ****     break;
 1261              		.loc 1 515 12 is_stmt 0 view .LVU385
 1262 0174 3648     		ldr	r0, .L111+180
 1263 0176 7047     		bx	lr
 1264              	.L100:
 516:Core/Src/NOS_LIB_Driver/Src/WS2812B.c ****     case '3':
 1265              		.loc 1 516 5 is_stmt 1 view .LVU386
 518:Core/Src/NOS_LIB_Driver/Src/WS2812B.c ****     break;
 1266              		.loc 1 518 5 view .LVU387
ARM GAS  C:\Users\user\AppData\Local\Temp\ccD2C8ei.s 			page 36


 518:Core/Src/NOS_LIB_Driver/Src/WS2812B.c ****     break;
 1267              		.loc 1 518 12 is_stmt 0 view .LVU388
 1268 0178 3648     		ldr	r0, .L111+184
 1269 017a 7047     		bx	lr
 1270              	.L99:
 519:Core/Src/NOS_LIB_Driver/Src/WS2812B.c ****     case '4':
 1271              		.loc 1 519 5 is_stmt 1 view .LVU389
 521:Core/Src/NOS_LIB_Driver/Src/WS2812B.c ****     break;
 1272              		.loc 1 521 5 view .LVU390
 521:Core/Src/NOS_LIB_Driver/Src/WS2812B.c ****     break;
 1273              		.loc 1 521 12 is_stmt 0 view .LVU391
 1274 017c 3648     		ldr	r0, .L111+188
 1275 017e 7047     		bx	lr
 1276              	.L98:
 522:Core/Src/NOS_LIB_Driver/Src/WS2812B.c ****     case '5':
 1277              		.loc 1 522 5 is_stmt 1 view .LVU392
 524:Core/Src/NOS_LIB_Driver/Src/WS2812B.c ****     break;
 1278              		.loc 1 524 5 view .LVU393
 524:Core/Src/NOS_LIB_Driver/Src/WS2812B.c ****     break;
 1279              		.loc 1 524 12 is_stmt 0 view .LVU394
 1280 0180 3648     		ldr	r0, .L111+192
 1281 0182 7047     		bx	lr
 1282              	.L97:
 525:Core/Src/NOS_LIB_Driver/Src/WS2812B.c ****     case '6':
 1283              		.loc 1 525 5 is_stmt 1 view .LVU395
 527:Core/Src/NOS_LIB_Driver/Src/WS2812B.c ****     break;
 1284              		.loc 1 527 5 view .LVU396
 527:Core/Src/NOS_LIB_Driver/Src/WS2812B.c ****     break;
 1285              		.loc 1 527 12 is_stmt 0 view .LVU397
 1286 0184 3648     		ldr	r0, .L111+196
 1287 0186 7047     		bx	lr
 1288              	.L96:
 528:Core/Src/NOS_LIB_Driver/Src/WS2812B.c ****     case '7':
 1289              		.loc 1 528 5 is_stmt 1 view .LVU398
 530:Core/Src/NOS_LIB_Driver/Src/WS2812B.c ****     break;
 1290              		.loc 1 530 5 view .LVU399
 530:Core/Src/NOS_LIB_Driver/Src/WS2812B.c ****     break;
 1291              		.loc 1 530 12 is_stmt 0 view .LVU400
 1292 0188 3648     		ldr	r0, .L111+200
 1293 018a 7047     		bx	lr
 1294              	.L95:
 531:Core/Src/NOS_LIB_Driver/Src/WS2812B.c ****     case '8':
 1295              		.loc 1 531 5 is_stmt 1 view .LVU401
 533:Core/Src/NOS_LIB_Driver/Src/WS2812B.c ****     break;
 1296              		.loc 1 533 5 view .LVU402
 533:Core/Src/NOS_LIB_Driver/Src/WS2812B.c ****     break;
 1297              		.loc 1 533 12 is_stmt 0 view .LVU403
 1298 018c 3648     		ldr	r0, .L111+204
 1299 018e 7047     		bx	lr
 1300              	.L94:
 534:Core/Src/NOS_LIB_Driver/Src/WS2812B.c ****     case '9':
 1301              		.loc 1 534 5 is_stmt 1 view .LVU404
 1302              		.loc 1 536 5 view .LVU405
 1303              		.loc 1 536 12 is_stmt 0 view .LVU406
 1304 0190 3648     		ldr	r0, .L111+208
 1305 0192 7047     		bx	lr
 1306              	.L54:
ARM GAS  C:\Users\user\AppData\Local\Temp\ccD2C8ei.s 			page 37


 537:Core/Src/NOS_LIB_Driver/Src/WS2812B.c ****     break;
 1307              		.loc 1 537 5 is_stmt 1 view .LVU407
 538:Core/Src/NOS_LIB_Driver/Src/WS2812B.c **** /* Numbers */
 539:Core/Src/NOS_LIB_Driver/Src/WS2812B.c **** 
 540:Core/Src/NOS_LIB_Driver/Src/WS2812B.c ****     default:
 541:Core/Src/NOS_LIB_Driver/Src/WS2812B.c ****     return Space;
 1308              		.loc 1 541 5 view .LVU408
 1309              		.loc 1 541 12 is_stmt 0 view .LVU409
 1310 0194 2548     		ldr	r0, .L111+144
 1311 0196 7047     		bx	lr
 1312              	.L110:
 367:Core/Src/NOS_LIB_Driver/Src/WS2812B.c ****     break;
 1313              		.loc 1 367 12 view .LVU410
 1314 0198 3548     		ldr	r0, .L111+212
 542:Core/Src/NOS_LIB_Driver/Src/WS2812B.c ****         break;
 1315              		.loc 1 542 9 is_stmt 1 view .LVU411
 543:Core/Src/NOS_LIB_Driver/Src/WS2812B.c ****     }
 544:Core/Src/NOS_LIB_Driver/Src/WS2812B.c **** }
 1316              		.loc 1 544 1 is_stmt 0 view .LVU412
 1317 019a 7047     		bx	lr
 1318              	.L112:
 1319              		.align	2
 1320              	.L111:
 1321 019c 00000000 		.word	.LANCHOR53
 1322 01a0 00000000 		.word	.LANCHOR2
 1323 01a4 00000000 		.word	.LANCHOR3
 1324 01a8 00000000 		.word	.LANCHOR4
 1325 01ac 00000000 		.word	.LANCHOR5
 1326 01b0 00000000 		.word	.LANCHOR6
 1327 01b4 00000000 		.word	.LANCHOR7
 1328 01b8 00000000 		.word	.LANCHOR8
 1329 01bc 00000000 		.word	.LANCHOR9
 1330 01c0 00000000 		.word	.LANCHOR10
 1331 01c4 00000000 		.word	.LANCHOR11
 1332 01c8 00000000 		.word	.LANCHOR12
 1333 01cc 00000000 		.word	.LANCHOR13
 1334 01d0 00000000 		.word	.LANCHOR14
 1335 01d4 00000000 		.word	.LANCHOR15
 1336 01d8 00000000 		.word	.LANCHOR16
 1337 01dc 00000000 		.word	.LANCHOR17
 1338 01e0 00000000 		.word	.LANCHOR18
 1339 01e4 00000000 		.word	.LANCHOR19
 1340 01e8 00000000 		.word	.LANCHOR20
 1341 01ec 00000000 		.word	.LANCHOR21
 1342 01f0 00000000 		.word	.LANCHOR22
 1343 01f4 00000000 		.word	.LANCHOR23
 1344 01f8 00000000 		.word	.LANCHOR24
 1345 01fc 00000000 		.word	.LANCHOR25
 1346 0200 00000000 		.word	.LANCHOR26
 1347 0204 00000000 		.word	.LANCHOR27
 1348 0208 00000000 		.word	.LANCHOR28
 1349 020c 00000000 		.word	.LANCHOR29
 1350 0210 00000000 		.word	.LANCHOR30
 1351 0214 00000000 		.word	.LANCHOR31
 1352 0218 00000000 		.word	.LANCHOR32
 1353 021c 00000000 		.word	.LANCHOR33
 1354 0220 00000000 		.word	.LANCHOR34
ARM GAS  C:\Users\user\AppData\Local\Temp\ccD2C8ei.s 			page 38


 1355 0224 00000000 		.word	.LANCHOR35
 1356 0228 00000000 		.word	.LANCHOR36
 1357 022c 00000000 		.word	.LANCHOR0
 1358 0230 00000000 		.word	.LANCHOR37
 1359 0234 00000000 		.word	.LANCHOR38
 1360 0238 00000000 		.word	.LANCHOR39
 1361 023c 00000000 		.word	.LANCHOR40
 1362 0240 00000000 		.word	.LANCHOR41
 1363 0244 00000000 		.word	.LANCHOR42
 1364 0248 00000000 		.word	.LANCHOR43
 1365 024c 00000000 		.word	.LANCHOR44
 1366 0250 00000000 		.word	.LANCHOR45
 1367 0254 00000000 		.word	.LANCHOR46
 1368 0258 00000000 		.word	.LANCHOR47
 1369 025c 00000000 		.word	.LANCHOR48
 1370 0260 00000000 		.word	.LANCHOR49
 1371 0264 00000000 		.word	.LANCHOR50
 1372 0268 00000000 		.word	.LANCHOR51
 1373 026c 00000000 		.word	.LANCHOR52
 1374 0270 00000000 		.word	.LANCHOR1
 1375              		.cfi_endproc
 1376              	.LFE145:
 1378              		.section	.text.NOS_WS2812B_Matrix_SetSymvol,"ax",%progbits
 1379              		.align	1
 1380              		.global	NOS_WS2812B_Matrix_SetSymvol
 1381              		.syntax unified
 1382              		.thumb
 1383              		.thumb_func
 1384              		.fpu fpv4-sp-d16
 1386              	NOS_WS2812B_Matrix_SetSymvol:
 1387              	.LVL92:
 1388              	.LFB135:
 118:Core/Src/NOS_LIB_Driver/Src/WS2812B.c ****     uint8_t* buff = Symvol_GetBitMap(sym);
 1389              		.loc 1 118 1 is_stmt 1 view -0
 1390              		.cfi_startproc
 1391              		@ args = 0, pretend = 0, frame = 0
 1392              		@ frame_needed = 0, uses_anonymous_args = 0
 118:Core/Src/NOS_LIB_Driver/Src/WS2812B.c ****     uint8_t* buff = Symvol_GetBitMap(sym);
 1393              		.loc 1 118 1 is_stmt 0 view .LVU414
 1394 0000 38B5     		push	{r3, r4, r5, lr}
 1395              	.LCFI6:
 1396              		.cfi_def_cfa_offset 16
 1397              		.cfi_offset 3, -16
 1398              		.cfi_offset 4, -12
 1399              		.cfi_offset 5, -8
 1400              		.cfi_offset 14, -4
 1401 0002 0546     		mov	r5, r0
 1402 0004 1446     		mov	r4, r2
 119:Core/Src/NOS_LIB_Driver/Src/WS2812B.c ****     for(int i = 0; i < 5; i++)
 1403              		.loc 1 119 5 is_stmt 1 view .LVU415
 119:Core/Src/NOS_LIB_Driver/Src/WS2812B.c ****     for(int i = 0; i < 5; i++)
 1404              		.loc 1 119 21 is_stmt 0 view .LVU416
 1405 0006 0846     		mov	r0, r1
 1406              	.LVL93:
 119:Core/Src/NOS_LIB_Driver/Src/WS2812B.c ****     for(int i = 0; i < 5; i++)
 1407              		.loc 1 119 21 view .LVU417
 1408 0008 FFF7FEFF 		bl	Symvol_GetBitMap
ARM GAS  C:\Users\user\AppData\Local\Temp\ccD2C8ei.s 			page 39


 1409              	.LVL94:
 120:Core/Src/NOS_LIB_Driver/Src/WS2812B.c ****     {
 1410              		.loc 1 120 5 is_stmt 1 view .LVU418
 1411              	.LBB9:
 120:Core/Src/NOS_LIB_Driver/Src/WS2812B.c ****     {
 1412              		.loc 1 120 9 view .LVU419
 120:Core/Src/NOS_LIB_Driver/Src/WS2812B.c ****     {
 1413              		.loc 1 120 13 is_stmt 0 view .LVU420
 1414 000c 0023     		movs	r3, #0
 120:Core/Src/NOS_LIB_Driver/Src/WS2812B.c ****     {
 1415              		.loc 1 120 5 view .LVU421
 1416 000e 06E0     		b	.L114
 1417              	.LVL95:
 1418              	.L115:
 122:Core/Src/NOS_LIB_Driver/Src/WS2812B.c ****     }
 1419              		.loc 1 122 9 is_stmt 1 discriminator 3 view .LVU422
 122:Core/Src/NOS_LIB_Driver/Src/WS2812B.c ****     }
 1420              		.loc 1 122 15 is_stmt 0 discriminator 3 view .LVU423
 1421 0010 6969     		ldr	r1, [r5, #20]
 122:Core/Src/NOS_LIB_Driver/Src/WS2812B.c ****     }
 1422              		.loc 1 122 24 discriminator 3 view .LVU424
 1423 0012 04EB8402 		add	r2, r4, r4, lsl #2
 1424 0016 1144     		add	r1, r1, r2
 122:Core/Src/NOS_LIB_Driver/Src/WS2812B.c ****     }
 1425              		.loc 1 122 44 discriminator 3 view .LVU425
 1426 0018 C25C     		ldrb	r2, [r0, r3]	@ zero_extendqisi2
 122:Core/Src/NOS_LIB_Driver/Src/WS2812B.c ****     }
 1427              		.loc 1 122 38 discriminator 3 view .LVU426
 1428 001a CA54     		strb	r2, [r1, r3]
 120:Core/Src/NOS_LIB_Driver/Src/WS2812B.c ****     {
 1429              		.loc 1 120 27 is_stmt 1 discriminator 3 view .LVU427
 120:Core/Src/NOS_LIB_Driver/Src/WS2812B.c ****     {
 1430              		.loc 1 120 28 is_stmt 0 discriminator 3 view .LVU428
 1431 001c 0133     		adds	r3, r3, #1
 1432              	.LVL96:
 1433              	.L114:
 120:Core/Src/NOS_LIB_Driver/Src/WS2812B.c ****     {
 1434              		.loc 1 120 20 is_stmt 1 discriminator 1 view .LVU429
 120:Core/Src/NOS_LIB_Driver/Src/WS2812B.c ****     {
 1435              		.loc 1 120 5 is_stmt 0 discriminator 1 view .LVU430
 1436 001e 042B     		cmp	r3, #4
 1437 0020 F6DD     		ble	.L115
 1438              	.LBE9:
 124:Core/Src/NOS_LIB_Driver/Src/WS2812B.c **** 
 1439              		.loc 1 124 1 view .LVU431
 1440 0022 38BD     		pop	{r3, r4, r5, pc}
 124:Core/Src/NOS_LIB_Driver/Src/WS2812B.c **** 
 1441              		.loc 1 124 1 view .LVU432
 1442              		.cfi_endproc
 1443              	.LFE135:
 1445              		.section	.text.NOS_WS2812B_Matrix_PrintStaticString,"ax",%progbits
 1446              		.align	1
 1447              		.global	NOS_WS2812B_Matrix_PrintStaticString
 1448              		.syntax unified
 1449              		.thumb
 1450              		.thumb_func
 1451              		.fpu fpv4-sp-d16
ARM GAS  C:\Users\user\AppData\Local\Temp\ccD2C8ei.s 			page 40


 1453              	NOS_WS2812B_Matrix_PrintStaticString:
 1454              	.LVL97:
 1455              	.LFB136:
 127:Core/Src/NOS_LIB_Driver/Src/WS2812B.c ****     for(int i = startpos; i < startpos + lenght; i++)
 1456              		.loc 1 127 1 is_stmt 1 view -0
 1457              		.cfi_startproc
 1458              		@ args = 0, pretend = 0, frame = 0
 1459              		@ frame_needed = 0, uses_anonymous_args = 0
 127:Core/Src/NOS_LIB_Driver/Src/WS2812B.c ****     for(int i = startpos; i < startpos + lenght; i++)
 1460              		.loc 1 127 1 is_stmt 0 view .LVU434
 1461 0000 2DE9F041 		push	{r4, r5, r6, r7, r8, lr}
 1462              	.LCFI7:
 1463              		.cfi_def_cfa_offset 24
 1464              		.cfi_offset 4, -24
 1465              		.cfi_offset 5, -20
 1466              		.cfi_offset 6, -16
 1467              		.cfi_offset 7, -12
 1468              		.cfi_offset 8, -8
 1469              		.cfi_offset 14, -4
 1470 0004 8046     		mov	r8, r0
 1471 0006 0F46     		mov	r7, r1
 1472 0008 1546     		mov	r5, r2
 1473 000a 1E46     		mov	r6, r3
 128:Core/Src/NOS_LIB_Driver/Src/WS2812B.c ****     {
 1474              		.loc 1 128 5 is_stmt 1 view .LVU435
 1475              	.LBB10:
 128:Core/Src/NOS_LIB_Driver/Src/WS2812B.c ****     {
 1476              		.loc 1 128 9 view .LVU436
 1477              	.LVL98:
 128:Core/Src/NOS_LIB_Driver/Src/WS2812B.c ****     {
 1478              		.loc 1 128 13 is_stmt 0 view .LVU437
 1479 000c 1446     		mov	r4, r2
 128:Core/Src/NOS_LIB_Driver/Src/WS2812B.c ****     {
 1480              		.loc 1 128 5 view .LVU438
 1481 000e 08E0     		b	.L118
 1482              	.LVL99:
 1483              	.L119:
 130:Core/Src/NOS_LIB_Driver/Src/WS2812B.c ****     }
 1484              		.loc 1 130 9 is_stmt 1 discriminator 3 view .LVU439
 130:Core/Src/NOS_LIB_Driver/Src/WS2812B.c ****     }
 1485              		.loc 1 130 54 is_stmt 0 discriminator 3 view .LVU440
 1486 0010 A4EB050C 		sub	ip, r4, r5
 130:Core/Src/NOS_LIB_Driver/Src/WS2812B.c ****     }
 1487              		.loc 1 130 9 discriminator 3 view .LVU441
 1488 0014 E2B2     		uxtb	r2, r4
 1489 0016 17F80C10 		ldrb	r1, [r7, ip]	@ zero_extendqisi2
 1490 001a 4046     		mov	r0, r8
 1491 001c FFF7FEFF 		bl	NOS_WS2812B_Matrix_SetSymvol
 1492              	.LVL100:
 128:Core/Src/NOS_LIB_Driver/Src/WS2812B.c ****     {
 1493              		.loc 1 128 50 is_stmt 1 discriminator 3 view .LVU442
 128:Core/Src/NOS_LIB_Driver/Src/WS2812B.c ****     {
 1494              		.loc 1 128 51 is_stmt 0 discriminator 3 view .LVU443
 1495 0020 0134     		adds	r4, r4, #1
 1496              	.LVL101:
 1497              	.L118:
 128:Core/Src/NOS_LIB_Driver/Src/WS2812B.c ****     {
ARM GAS  C:\Users\user\AppData\Local\Temp\ccD2C8ei.s 			page 41


 1498              		.loc 1 128 27 is_stmt 1 discriminator 1 view .LVU444
 128:Core/Src/NOS_LIB_Driver/Src/WS2812B.c ****     {
 1499              		.loc 1 128 40 is_stmt 0 discriminator 1 view .LVU445
 1500 0022 7219     		adds	r2, r6, r5
 128:Core/Src/NOS_LIB_Driver/Src/WS2812B.c ****     {
 1501              		.loc 1 128 5 discriminator 1 view .LVU446
 1502 0024 A242     		cmp	r2, r4
 1503 0026 F3DC     		bgt	.L119
 128:Core/Src/NOS_LIB_Driver/Src/WS2812B.c ****     {
 1504              		.loc 1 128 5 discriminator 1 view .LVU447
 1505              	.LBE10:
 132:Core/Src/NOS_LIB_Driver/Src/WS2812B.c **** 
 1506              		.loc 1 132 1 view .LVU448
 1507 0028 BDE8F081 		pop	{r4, r5, r6, r7, r8, pc}
 132:Core/Src/NOS_LIB_Driver/Src/WS2812B.c **** 
 1508              		.loc 1 132 1 view .LVU449
 1509              		.cfi_endproc
 1510              	.LFE136:
 1512              		.global	__aeabi_ui2d
 1513              		.global	__aeabi_i2d
 1514              		.global	__aeabi_ddiv
 1515              		.global	__aeabi_d2uiz
 1516              		.global	__aeabi_dmul
 1517              		.global	__aeabi_dsub
 1518              		.section	.text.NOS_WS2812B_Matrix_PrintIntNumber,"ax",%progbits
 1519              		.align	1
 1520              		.global	NOS_WS2812B_Matrix_PrintIntNumber
 1521              		.syntax unified
 1522              		.thumb
 1523              		.thumb_func
 1524              		.fpu fpv4-sp-d16
 1526              	NOS_WS2812B_Matrix_PrintIntNumber:
 1527              	.LVL102:
 1528              	.LFB137:
 135:Core/Src/NOS_LIB_Driver/Src/WS2812B.c ****     
 1529              		.loc 1 135 1 is_stmt 1 view -0
 1530              		.cfi_startproc
 1531              		@ args = 0, pretend = 0, frame = 24
 1532              		@ frame_needed = 0, uses_anonymous_args = 0
 135:Core/Src/NOS_LIB_Driver/Src/WS2812B.c ****     
 1533              		.loc 1 135 1 is_stmt 0 view .LVU451
 1534 0000 2DE9F04F 		push	{r4, r5, r6, r7, r8, r9, r10, fp, lr}
 1535              	.LCFI8:
 1536              		.cfi_def_cfa_offset 36
 1537              		.cfi_offset 4, -36
 1538              		.cfi_offset 5, -32
 1539              		.cfi_offset 6, -28
 1540              		.cfi_offset 7, -24
 1541              		.cfi_offset 8, -20
 1542              		.cfi_offset 9, -16
 1543              		.cfi_offset 10, -12
 1544              		.cfi_offset 11, -8
 1545              		.cfi_offset 14, -4
 1546 0004 2DED048B 		vpush.64	{d8, d9}
 1547              	.LCFI9:
 1548              		.cfi_def_cfa_offset 52
 1549              		.cfi_offset 80, -52
ARM GAS  C:\Users\user\AppData\Local\Temp\ccD2C8ei.s 			page 42


 1550              		.cfi_offset 81, -48
 1551              		.cfi_offset 82, -44
 1552              		.cfi_offset 83, -40
 1553 0008 87B0     		sub	sp, sp, #28
 1554              	.LCFI10:
 1555              		.cfi_def_cfa_offset 80
 1556 000a 0190     		str	r0, [sp, #4]
 1557 000c 0C46     		mov	r4, r1
 1558 000e 9346     		mov	fp, r2
 137:Core/Src/NOS_LIB_Driver/Src/WS2812B.c ****     int a = 0;
 1559              		.loc 1 137 5 is_stmt 1 view .LVU452
 1560              	.LVL103:
 138:Core/Src/NOS_LIB_Driver/Src/WS2812B.c ****     int power = NOS_Math_GetNumberPower(num);
 1561              		.loc 1 138 5 view .LVU453
 139:Core/Src/NOS_LIB_Driver/Src/WS2812B.c ****     char buff[16];
 1562              		.loc 1 139 5 view .LVU454
 139:Core/Src/NOS_LIB_Driver/Src/WS2812B.c ****     char buff[16];
 1563              		.loc 1 139 17 is_stmt 0 view .LVU455
 1564 0010 0846     		mov	r0, r1
 1565              	.LVL104:
 139:Core/Src/NOS_LIB_Driver/Src/WS2812B.c ****     char buff[16];
 1566              		.loc 1 139 17 view .LVU456
 1567 0012 FFF7FEFF 		bl	NOS_Math_GetNumberPower
 1568              	.LVL105:
 140:Core/Src/NOS_LIB_Driver/Src/WS2812B.c **** 
 1569              		.loc 1 140 5 is_stmt 1 view .LVU457
 143:Core/Src/NOS_LIB_Driver/Src/WS2812B.c ****     {
 1570              		.loc 1 143 5 view .LVU458
 1571              	.LBB11:
 143:Core/Src/NOS_LIB_Driver/Src/WS2812B.c ****     {
 1572              		.loc 1 143 10 view .LVU459
 143:Core/Src/NOS_LIB_Driver/Src/WS2812B.c ****     {
 1573              		.loc 1 143 14 is_stmt 0 view .LVU460
 1574 0016 471E     		subs	r7, r0, #1
 1575              	.LVL106:
 143:Core/Src/NOS_LIB_Driver/Src/WS2812B.c ****     {
 1576              		.loc 1 143 14 view .LVU461
 1577              	.LBE11:
 138:Core/Src/NOS_LIB_Driver/Src/WS2812B.c ****     int power = NOS_Math_GetNumberPower(num);
 1578              		.loc 1 138 9 view .LVU462
 1579 0018 4FF0000A 		mov	r10, #0
 1580              	.LBB13:
 143:Core/Src/NOS_LIB_Driver/Src/WS2812B.c ****     {
 1581              		.loc 1 143 5 view .LVU463
 1582 001c 3FE0     		b	.L122
 1583              	.LVL107:
 1584              	.L123:
 1585              	.LBB12:
 145:Core/Src/NOS_LIB_Driver/Src/WS2812B.c ****         num = num - (buff[a] * pow(10,i));
 1586              		.loc 1 145 9 is_stmt 1 discriminator 3 view .LVU464
 145:Core/Src/NOS_LIB_Driver/Src/WS2812B.c ****         num = num - (buff[a] * pow(10,i));
 1587              		.loc 1 145 23 is_stmt 0 discriminator 3 view .LVU465
 1588 001e 2046     		mov	r0, r4
 1589 0020 FFF7FEFF 		bl	__aeabi_ui2d
 1590              	.LVL108:
 1591 0024 0446     		mov	r4, r0
 1592              	.LVL109:
ARM GAS  C:\Users\user\AppData\Local\Temp\ccD2C8ei.s 			page 43


 145:Core/Src/NOS_LIB_Driver/Src/WS2812B.c ****         num = num - (buff[a] * pow(10,i));
 1593              		.loc 1 145 23 discriminator 3 view .LVU466
 1594 0026 0D46     		mov	r5, r1
 145:Core/Src/NOS_LIB_Driver/Src/WS2812B.c ****         num = num - (buff[a] * pow(10,i));
 1595              		.loc 1 145 25 discriminator 3 view .LVU467
 1596 0028 3846     		mov	r0, r7
 1597 002a FFF7FEFF 		bl	__aeabi_i2d
 1598              	.LVL110:
 1599 002e 41EC180B 		vmov	d8, r0, r1
 1600 0032 9FED2F9B 		vldr.64	d9, .L127
 1601 0036 41EC110B 		vmov	d1, r0, r1
 1602 003a B0EE490A 		vmov.f32	s0, s18
 1603 003e F0EE690A 		vmov.f32	s1, s19
 1604 0042 FFF7FEFF 		bl	pow
 1605              	.LVL111:
 1606 0046 53EC102B 		vmov	r2, r3, d0
 145:Core/Src/NOS_LIB_Driver/Src/WS2812B.c ****         num = num - (buff[a] * pow(10,i));
 1607              		.loc 1 145 23 discriminator 3 view .LVU468
 1608 004a 2046     		mov	r0, r4
 1609 004c 2946     		mov	r1, r5
 1610 004e FFF7FEFF 		bl	__aeabi_ddiv
 1611              	.LVL112:
 145:Core/Src/NOS_LIB_Driver/Src/WS2812B.c ****         num = num - (buff[a] * pow(10,i));
 1612              		.loc 1 145 17 discriminator 3 view .LVU469
 1613 0052 FFF7FEFF 		bl	__aeabi_d2uiz
 1614              	.LVL113:
 1615 0056 C6B2     		uxtb	r6, r0
 1616 0058 06AB     		add	r3, sp, #24
 1617 005a 5344     		add	r3, r3, r10
 1618 005c 03F8106C 		strb	r6, [r3, #-16]
 146:Core/Src/NOS_LIB_Driver/Src/WS2812B.c ****         a++;
 1619              		.loc 1 146 9 is_stmt 1 discriminator 3 view .LVU470
 146:Core/Src/NOS_LIB_Driver/Src/WS2812B.c ****         a++;
 1620              		.loc 1 146 32 is_stmt 0 discriminator 3 view .LVU471
 1621 0060 B0EE481A 		vmov.f32	s2, s16
 1622 0064 F0EE681A 		vmov.f32	s3, s17
 1623 0068 B0EE490A 		vmov.f32	s0, s18
 1624 006c F0EE690A 		vmov.f32	s1, s19
 1625 0070 FFF7FEFF 		bl	pow
 1626              	.LVL114:
 1627 0074 59EC108B 		vmov	r8, r9, d0
 146:Core/Src/NOS_LIB_Driver/Src/WS2812B.c ****         a++;
 1628              		.loc 1 146 30 discriminator 3 view .LVU472
 1629 0078 3046     		mov	r0, r6
 1630 007a FFF7FEFF 		bl	__aeabi_i2d
 1631              	.LVL115:
 1632 007e 4246     		mov	r2, r8
 1633 0080 4B46     		mov	r3, r9
 1634 0082 FFF7FEFF 		bl	__aeabi_dmul
 1635              	.LVL116:
 1636 0086 0246     		mov	r2, r0
 1637 0088 0B46     		mov	r3, r1
 146:Core/Src/NOS_LIB_Driver/Src/WS2812B.c ****         a++;
 1638              		.loc 1 146 19 discriminator 3 view .LVU473
 1639 008a 2046     		mov	r0, r4
 1640 008c 2946     		mov	r1, r5
 1641 008e FFF7FEFF 		bl	__aeabi_dsub
ARM GAS  C:\Users\user\AppData\Local\Temp\ccD2C8ei.s 			page 44


 1642              	.LVL117:
 146:Core/Src/NOS_LIB_Driver/Src/WS2812B.c ****         a++;
 1643              		.loc 1 146 13 discriminator 3 view .LVU474
 1644 0092 FFF7FEFF 		bl	__aeabi_d2uiz
 1645              	.LVL118:
 1646 0096 0446     		mov	r4, r0
 1647              	.LVL119:
 147:Core/Src/NOS_LIB_Driver/Src/WS2812B.c ****     }
 1648              		.loc 1 147 9 is_stmt 1 discriminator 3 view .LVU475
 147:Core/Src/NOS_LIB_Driver/Src/WS2812B.c ****     }
 1649              		.loc 1 147 10 is_stmt 0 discriminator 3 view .LVU476
 1650 0098 0AF1010A 		add	r10, r10, #1
 1651              	.LVL120:
 147:Core/Src/NOS_LIB_Driver/Src/WS2812B.c ****     }
 1652              		.loc 1 147 10 discriminator 3 view .LVU477
 1653              	.LBE12:
 143:Core/Src/NOS_LIB_Driver/Src/WS2812B.c ****     {
 1654              		.loc 1 143 36 is_stmt 1 discriminator 3 view .LVU478
 143:Core/Src/NOS_LIB_Driver/Src/WS2812B.c ****     {
 1655              		.loc 1 143 37 is_stmt 0 discriminator 3 view .LVU479
 1656 009c 013F     		subs	r7, r7, #1
 1657              	.LVL121:
 1658              	.L122:
 143:Core/Src/NOS_LIB_Driver/Src/WS2812B.c ****     {
 1659              		.loc 1 143 29 is_stmt 1 discriminator 1 view .LVU480
 143:Core/Src/NOS_LIB_Driver/Src/WS2812B.c ****     {
 1660              		.loc 1 143 5 is_stmt 0 discriminator 1 view .LVU481
 1661 009e 002F     		cmp	r7, #0
 1662 00a0 BDDC     		bgt	.L123
 143:Core/Src/NOS_LIB_Driver/Src/WS2812B.c ****     {
 1663              		.loc 1 143 5 discriminator 1 view .LVU482
 1664              	.LBE13:
 150:Core/Src/NOS_LIB_Driver/Src/WS2812B.c **** 
 1665              		.loc 1 150 5 is_stmt 1 view .LVU483
 150:Core/Src/NOS_LIB_Driver/Src/WS2812B.c **** 
 1666              		.loc 1 150 19 is_stmt 0 view .LVU484
 1667 00a2 154B     		ldr	r3, .L127+8
 1668 00a4 A3FB0423 		umull	r2, r3, r3, r4
 1669 00a8 DB08     		lsrs	r3, r3, #3
 1670 00aa 03EB8303 		add	r3, r3, r3, lsl #2
 1671 00ae A4EB4303 		sub	r3, r4, r3, lsl #1
 150:Core/Src/NOS_LIB_Driver/Src/WS2812B.c **** 
 1672              		.loc 1 150 13 view .LVU485
 1673 00b2 06AA     		add	r2, sp, #24
 1674 00b4 5244     		add	r2, r2, r10
 1675 00b6 02F8103C 		strb	r3, [r2, #-16]
 152:Core/Src/NOS_LIB_Driver/Src/WS2812B.c ****     {
 1676              		.loc 1 152 5 is_stmt 1 view .LVU486
 1677              	.LBB14:
 152:Core/Src/NOS_LIB_Driver/Src/WS2812B.c ****     {
 1678              		.loc 1 152 9 view .LVU487
 1679              	.LVL122:
 152:Core/Src/NOS_LIB_Driver/Src/WS2812B.c ****     {
 1680              		.loc 1 152 13 is_stmt 0 view .LVU488
 1681 00ba 0024     		movs	r4, #0
 1682              	.LVL123:
 152:Core/Src/NOS_LIB_Driver/Src/WS2812B.c ****     {
ARM GAS  C:\Users\user\AppData\Local\Temp\ccD2C8ei.s 			page 45


 1683              		.loc 1 152 5 view .LVU489
 1684 00bc 0EE0     		b	.L124
 1685              	.LVL124:
 1686              	.L125:
 154:Core/Src/NOS_LIB_Driver/Src/WS2812B.c ****         NOS_WS2812B_Matrix_SetSymvol(matrix,buff[i],i + startpos);
 1687              		.loc 1 154 9 is_stmt 1 discriminator 3 view .LVU490
 154:Core/Src/NOS_LIB_Driver/Src/WS2812B.c ****         NOS_WS2812B_Matrix_SetSymvol(matrix,buff[i],i + startpos);
 1688              		.loc 1 154 17 is_stmt 0 discriminator 3 view .LVU491
 1689 00be 06AB     		add	r3, sp, #24
 1690 00c0 2344     		add	r3, r3, r4
 1691 00c2 13F8101C 		ldrb	r1, [r3, #-16]	@ zero_extendqisi2
 1692 00c6 3031     		adds	r1, r1, #48
 1693 00c8 C9B2     		uxtb	r1, r1
 1694 00ca 03F8101C 		strb	r1, [r3, #-16]
 155:Core/Src/NOS_LIB_Driver/Src/WS2812B.c ****     }
 1695              		.loc 1 155 9 is_stmt 1 discriminator 3 view .LVU492
 1696 00ce 0BEB0402 		add	r2, fp, r4
 1697 00d2 D2B2     		uxtb	r2, r2
 1698 00d4 0198     		ldr	r0, [sp, #4]
 1699 00d6 FFF7FEFF 		bl	NOS_WS2812B_Matrix_SetSymvol
 1700              	.LVL125:
 152:Core/Src/NOS_LIB_Driver/Src/WS2812B.c ****     {
 1701              		.loc 1 152 31 discriminator 3 view .LVU493
 152:Core/Src/NOS_LIB_Driver/Src/WS2812B.c ****     {
 1702              		.loc 1 152 32 is_stmt 0 discriminator 3 view .LVU494
 1703 00da 0134     		adds	r4, r4, #1
 1704              	.LVL126:
 1705              	.L124:
 152:Core/Src/NOS_LIB_Driver/Src/WS2812B.c ****     {
 1706              		.loc 1 152 20 is_stmt 1 discriminator 1 view .LVU495
 152:Core/Src/NOS_LIB_Driver/Src/WS2812B.c ****     {
 1707              		.loc 1 152 5 is_stmt 0 discriminator 1 view .LVU496
 1708 00dc A245     		cmp	r10, r4
 1709 00de EEDA     		bge	.L125
 1710              	.LBE14:
 157:Core/Src/NOS_LIB_Driver/Src/WS2812B.c **** 
 1711              		.loc 1 157 1 view .LVU497
 1712 00e0 07B0     		add	sp, sp, #28
 1713              	.LCFI11:
 1714              		.cfi_def_cfa_offset 52
 1715              		@ sp needed
 1716 00e2 BDEC048B 		vldm	sp!, {d8-d9}
 1717              	.LCFI12:
 1718              		.cfi_restore 82
 1719              		.cfi_restore 83
 1720              		.cfi_restore 80
 1721              		.cfi_restore 81
 1722              		.cfi_def_cfa_offset 36
 1723 00e6 BDE8F08F 		pop	{r4, r5, r6, r7, r8, r9, r10, fp, pc}
 1724              	.LVL127:
 1725              	.L128:
 157:Core/Src/NOS_LIB_Driver/Src/WS2812B.c **** 
 1726              		.loc 1 157 1 view .LVU498
 1727 00ea 00BFAFF3 		.align	3
 1727      0080
 1728              	.L127:
 1729 00f0 00000000 		.word	0
ARM GAS  C:\Users\user\AppData\Local\Temp\ccD2C8ei.s 			page 46


 1730 00f4 00002440 		.word	1076101120
 1731 00f8 CDCCCCCC 		.word	-858993459
 1732              		.cfi_endproc
 1733              	.LFE137:
 1735              		.section	.rodata.NOS_WS2812B_Matrix_PrintFloatNumber.str1.4,"aMS",%progbits,1
 1736              		.align	2
 1737              	.LC0:
 1738 0000 2E00     		.ascii	".\000"
 1739              		.section	.text.NOS_WS2812B_Matrix_PrintFloatNumber,"ax",%progbits
 1740              		.align	1
 1741              		.global	NOS_WS2812B_Matrix_PrintFloatNumber
 1742              		.syntax unified
 1743              		.thumb
 1744              		.thumb_func
 1745              		.fpu fpv4-sp-d16
 1747              	NOS_WS2812B_Matrix_PrintFloatNumber:
 1748              	.LVL128:
 1749              	.LFB138:
 160:Core/Src/NOS_LIB_Driver/Src/WS2812B.c ****     if(num > 0.0f)
 1750              		.loc 1 160 1 is_stmt 1 view -0
 1751              		.cfi_startproc
 1752              		@ args = 0, pretend = 0, frame = 0
 1753              		@ frame_needed = 0, uses_anonymous_args = 0
 161:Core/Src/NOS_LIB_Driver/Src/WS2812B.c ****     {
 1754              		.loc 1 161 5 view .LVU500
 161:Core/Src/NOS_LIB_Driver/Src/WS2812B.c ****     {
 1755              		.loc 1 161 7 is_stmt 0 view .LVU501
 1756 0000 B5EEC00A 		vcmpe.f32	s0, #0
 1757 0004 F1EE10FA 		vmrs	APSR_nzcv, FPSCR
 1758 0008 00DC     		bgt	.L137
 1759 000a 7047     		bx	lr
 1760              	.L137:
 160:Core/Src/NOS_LIB_Driver/Src/WS2812B.c ****     if(num > 0.0f)
 1761              		.loc 1 160 1 view .LVU502
 1762 000c 70B5     		push	{r4, r5, r6, lr}
 1763              	.LCFI13:
 1764              		.cfi_def_cfa_offset 16
 1765              		.cfi_offset 4, -16
 1766              		.cfi_offset 5, -12
 1767              		.cfi_offset 6, -8
 1768              		.cfi_offset 14, -4
 1769 000e 2DED028B 		vpush.64	{d8}
 1770              	.LCFI14:
 1771              		.cfi_def_cfa_offset 24
 1772              		.cfi_offset 80, -24
 1773              		.cfi_offset 81, -20
 1774 0012 0546     		mov	r5, r0
 1775 0014 0E46     		mov	r6, r1
 1776              	.LBB15:
 163:Core/Src/NOS_LIB_Driver/Src/WS2812B.c ****     float after = num - (float)before;
 1777              		.loc 1 163 5 is_stmt 1 view .LVU503
 163:Core/Src/NOS_LIB_Driver/Src/WS2812B.c ****     float after = num - (float)before;
 1778              		.loc 1 163 9 is_stmt 0 view .LVU504
 1779 0016 FDEEC08A 		vcvt.s32.f32	s17, s0
 1780              	.LVL129:
 164:Core/Src/NOS_LIB_Driver/Src/WS2812B.c ****     int af = after * 100;
 1781              		.loc 1 164 5 is_stmt 1 view .LVU505
ARM GAS  C:\Users\user\AppData\Local\Temp\ccD2C8ei.s 			page 47


 164:Core/Src/NOS_LIB_Driver/Src/WS2812B.c ****     int af = after * 100;
 1782              		.loc 1 164 25 is_stmt 0 view .LVU506
 1783 001a B8EEE88A 		vcvt.f32.s32	s16, s17
 164:Core/Src/NOS_LIB_Driver/Src/WS2812B.c ****     int af = after * 100;
 1784              		.loc 1 164 11 view .LVU507
 1785 001e 30EE488A 		vsub.f32	s16, s0, s16
 1786              	.LVL130:
 165:Core/Src/NOS_LIB_Driver/Src/WS2812B.c ****     int pow = NOS_Math_GetNumberPower(before);
 1787              		.loc 1 165 5 is_stmt 1 view .LVU508
 165:Core/Src/NOS_LIB_Driver/Src/WS2812B.c ****     int pow = NOS_Math_GetNumberPower(before);
 1788              		.loc 1 165 20 is_stmt 0 view .LVU509
 1789 0022 9FED120A 		vldr.32	s0, .L138
 1790              	.LVL131:
 165:Core/Src/NOS_LIB_Driver/Src/WS2812B.c ****     int pow = NOS_Math_GetNumberPower(before);
 1791              		.loc 1 165 20 view .LVU510
 1792 0026 28EE008A 		vmul.f32	s16, s16, s0
 1793              	.LVL132:
 165:Core/Src/NOS_LIB_Driver/Src/WS2812B.c ****     int pow = NOS_Math_GetNumberPower(before);
 1794              		.loc 1 165 9 view .LVU511
 1795 002a BDEEC88A 		vcvt.s32.f32	s16, s16
 1796              	.LVL133:
 166:Core/Src/NOS_LIB_Driver/Src/WS2812B.c ****     NOS_WS2812B_Matrix_PrintIntNumber(matrix,before,startpos,pow);
 1797              		.loc 1 166 5 is_stmt 1 view .LVU512
 166:Core/Src/NOS_LIB_Driver/Src/WS2812B.c ****     NOS_WS2812B_Matrix_PrintIntNumber(matrix,before,startpos,pow);
 1798              		.loc 1 166 15 is_stmt 0 view .LVU513
 1799 002e 18EE900A 		vmov	r0, s17	@ int
 1800              	.LVL134:
 166:Core/Src/NOS_LIB_Driver/Src/WS2812B.c ****     NOS_WS2812B_Matrix_PrintIntNumber(matrix,before,startpos,pow);
 1801              		.loc 1 166 15 view .LVU514
 1802 0032 FFF7FEFF 		bl	NOS_Math_GetNumberPower
 1803              	.LVL135:
 167:Core/Src/NOS_LIB_Driver/Src/WS2812B.c ****     NOS_WS2812B_Matrix_PrintStaticString(matrix,".",startpos + pow,1);
 1804              		.loc 1 167 5 is_stmt 1 view .LVU515
 1805 0036 C4B2     		uxtb	r4, r0
 1806 0038 2346     		mov	r3, r4
 1807 003a 3246     		mov	r2, r6
 1808 003c 18EE901A 		vmov	r1, s17	@ int
 1809 0040 2846     		mov	r0, r5
 1810              	.LVL136:
 167:Core/Src/NOS_LIB_Driver/Src/WS2812B.c ****     NOS_WS2812B_Matrix_PrintStaticString(matrix,".",startpos + pow,1);
 1811              		.loc 1 167 5 is_stmt 0 view .LVU516
 1812 0042 FFF7FEFF 		bl	NOS_WS2812B_Matrix_PrintIntNumber
 1813              	.LVL137:
 168:Core/Src/NOS_LIB_Driver/Src/WS2812B.c ****     NOS_WS2812B_Matrix_PrintIntNumber(matrix,af,startpos + pow + 1,2);
 1814              		.loc 1 168 5 is_stmt 1 view .LVU517
 1815 0046 3444     		add	r4, r4, r6
 1816 0048 E4B2     		uxtb	r4, r4
 1817 004a 0123     		movs	r3, #1
 1818 004c 2246     		mov	r2, r4
 1819 004e 0849     		ldr	r1, .L138+4
 1820 0050 2846     		mov	r0, r5
 1821 0052 FFF7FEFF 		bl	NOS_WS2812B_Matrix_PrintStaticString
 1822              	.LVL138:
 169:Core/Src/NOS_LIB_Driver/Src/WS2812B.c ****     }
 1823              		.loc 1 169 5 view .LVU518
 1824 0056 621C     		adds	r2, r4, #1
 1825 0058 0223     		movs	r3, #2
ARM GAS  C:\Users\user\AppData\Local\Temp\ccD2C8ei.s 			page 48


 1826 005a D2B2     		uxtb	r2, r2
 1827 005c 18EE101A 		vmov	r1, s16	@ int
 1828 0060 2846     		mov	r0, r5
 1829 0062 FFF7FEFF 		bl	NOS_WS2812B_Matrix_PrintIntNumber
 1830              	.LVL139:
 1831              	.LBE15:
 171:Core/Src/NOS_LIB_Driver/Src/WS2812B.c **** 
 1832              		.loc 1 171 1 is_stmt 0 view .LVU519
 1833 0066 BDEC028B 		vldm	sp!, {d8}
 1834              	.LCFI15:
 1835              		.cfi_restore 80
 1836              		.cfi_restore 81
 1837              		.cfi_def_cfa_offset 16
 1838              	.LVL140:
 171:Core/Src/NOS_LIB_Driver/Src/WS2812B.c **** 
 1839              		.loc 1 171 1 view .LVU520
 1840 006a 70BD     		pop	{r4, r5, r6, pc}
 1841              	.LVL141:
 1842              	.L139:
 171:Core/Src/NOS_LIB_Driver/Src/WS2812B.c **** 
 1843              		.loc 1 171 1 view .LVU521
 1844              		.align	2
 1845              	.L138:
 1846 006c 0000C842 		.word	1120403456
 1847 0070 00000000 		.word	.LC0
 1848              		.cfi_endproc
 1849              	.LFE138:
 1851              		.section	.text.NOS_WS2812B_Matrix_PrintRealTime,"ax",%progbits
 1852              		.align	1
 1853              		.global	NOS_WS2812B_Matrix_PrintRealTime
 1854              		.syntax unified
 1855              		.thumb
 1856              		.thumb_func
 1857              		.fpu fpv4-sp-d16
 1859              	NOS_WS2812B_Matrix_PrintRealTime:
 1860              	.LVL142:
 1861              	.LFB139:
 174:Core/Src/NOS_LIB_Driver/Src/WS2812B.c ****     int startpos = 0;
 1862              		.loc 1 174 1 is_stmt 1 view -0
 1863              		.cfi_startproc
 1864              		@ args = 0, pretend = 0, frame = 8
 1865              		@ frame_needed = 0, uses_anonymous_args = 0
 174:Core/Src/NOS_LIB_Driver/Src/WS2812B.c ****     int startpos = 0;
 1866              		.loc 1 174 1 is_stmt 0 view .LVU523
 1867 0000 2DE9F043 		push	{r4, r5, r6, r7, r8, r9, lr}
 1868              	.LCFI16:
 1869              		.cfi_def_cfa_offset 28
 1870              		.cfi_offset 4, -28
 1871              		.cfi_offset 5, -24
 1872              		.cfi_offset 6, -20
 1873              		.cfi_offset 7, -16
 1874              		.cfi_offset 8, -12
 1875              		.cfi_offset 9, -8
 1876              		.cfi_offset 14, -4
 1877 0004 83B0     		sub	sp, sp, #12
 1878              	.LCFI17:
 1879              		.cfi_def_cfa_offset 40
ARM GAS  C:\Users\user\AppData\Local\Temp\ccD2C8ei.s 			page 49


 1880 0006 0546     		mov	r5, r0
 1881 0008 02AB     		add	r3, sp, #8
 1882 000a 03E90600 		stmdb	r3, {r1, r2}
 175:Core/Src/NOS_LIB_Driver/Src/WS2812B.c ****     if(rt.format == Hour24)
 1883              		.loc 1 175 5 is_stmt 1 view .LVU524
 1884              	.LVL143:
 176:Core/Src/NOS_LIB_Driver/Src/WS2812B.c ****     {
 1885              		.loc 1 176 5 view .LVU525
 176:Core/Src/NOS_LIB_Driver/Src/WS2812B.c ****     {
 1886              		.loc 1 176 10 is_stmt 0 view .LVU526
 1887 000e 9DF80530 		ldrb	r3, [sp, #5]	@ zero_extendqisi2
 176:Core/Src/NOS_LIB_Driver/Src/WS2812B.c ****     {
 1888              		.loc 1 176 7 view .LVU527
 1889 0012 6BB3     		cbz	r3, .L147
 175:Core/Src/NOS_LIB_Driver/Src/WS2812B.c ****     if(rt.format == Hour24)
 1890              		.loc 1 175 9 view .LVU528
 1891 0014 4FF00009 		mov	r9, #0
 1892              	.L141:
 1893              	.LVL144:
 181:Core/Src/NOS_LIB_Driver/Src/WS2812B.c ****     {
 1894              		.loc 1 181 5 is_stmt 1 view .LVU529
 181:Core/Src/NOS_LIB_Driver/Src/WS2812B.c ****     {
 1895              		.loc 1 181 7 is_stmt 0 view .LVU530
 1896 0018 012B     		cmp	r3, #1
 1897 001a 4FD1     		bne	.L142
 183:Core/Src/NOS_LIB_Driver/Src/WS2812B.c ****         {   
 1898              		.loc 1 183 9 is_stmt 1 view .LVU531
 183:Core/Src/NOS_LIB_Driver/Src/WS2812B.c ****         {   
 1899              		.loc 1 183 14 is_stmt 0 view .LVU532
 1900 001c 9DF80240 		ldrb	r4, [sp, #2]	@ zero_extendqisi2
 183:Core/Src/NOS_LIB_Driver/Src/WS2812B.c ****         {   
 1901              		.loc 1 183 11 view .LVU533
 1902 0020 0C2C     		cmp	r4, #12
 1903 0022 28D9     		bls	.L143
 185:Core/Src/NOS_LIB_Driver/Src/WS2812B.c ****             NOS_WS2812B_Matrix_SetSymvol(matrix,(char)(rt.hour - 12) % 10 + 48,startpos + 1);
 1904              		.loc 1 185 13 is_stmt 1 view .LVU534
 185:Core/Src/NOS_LIB_Driver/Src/WS2812B.c ****             NOS_WS2812B_Matrix_SetSymvol(matrix,(char)(rt.hour - 12) % 10 + 48,startpos + 1);
 1905              		.loc 1 185 49 is_stmt 0 view .LVU535
 1906 0024 0C3C     		subs	r4, r4, #12
 1907 0026 E4B2     		uxtb	r4, r4
 185:Core/Src/NOS_LIB_Driver/Src/WS2812B.c ****             NOS_WS2812B_Matrix_SetSymvol(matrix,(char)(rt.hour - 12) % 10 + 48,startpos + 1);
 1908              		.loc 1 185 13 view .LVU536
 1909 0028 5FFA89F7 		uxtb	r7, r9
 1910 002c 584E     		ldr	r6, .L149
 1911 002e A6FB0436 		umull	r3, r6, r6, r4
 1912 0032 F608     		lsrs	r6, r6, #3
 1913 0034 3A46     		mov	r2, r7
 1914 0036 06F13001 		add	r1, r6, #48
 1915 003a 2846     		mov	r0, r5
 1916              	.LVL145:
 185:Core/Src/NOS_LIB_Driver/Src/WS2812B.c ****             NOS_WS2812B_Matrix_SetSymvol(matrix,(char)(rt.hour - 12) % 10 + 48,startpos + 1);
 1917              		.loc 1 185 13 view .LVU537
 1918 003c FFF7FEFF 		bl	NOS_WS2812B_Matrix_SetSymvol
 1919              	.LVL146:
 186:Core/Src/NOS_LIB_Driver/Src/WS2812B.c ****             NOS_WS2812B_Matrix_SetSymvol(matrix,'P',startpos + 8);
 1920              		.loc 1 186 13 is_stmt 1 view .LVU538
 1921 0040 06EB8606 		add	r6, r6, r6, lsl #2
ARM GAS  C:\Users\user\AppData\Local\Temp\ccD2C8ei.s 			page 50


 1922 0044 A4EB4606 		sub	r6, r4, r6, lsl #1
 1923 0048 06F13001 		add	r1, r6, #48
 1924 004c 7A1C     		adds	r2, r7, #1
 1925 004e C9B2     		uxtb	r1, r1
 1926 0050 2846     		mov	r0, r5
 1927 0052 FFF7FEFF 		bl	NOS_WS2812B_Matrix_SetSymvol
 1928              	.LVL147:
 187:Core/Src/NOS_LIB_Driver/Src/WS2812B.c ****             NOS_WS2812B_Matrix_SetSymvol(matrix,'M',startpos + 9);
 1929              		.loc 1 187 13 view .LVU539
 1930 0056 07F10802 		add	r2, r7, #8
 1931 005a 5021     		movs	r1, #80
 1932 005c 2846     		mov	r0, r5
 1933 005e FFF7FEFF 		bl	NOS_WS2812B_Matrix_SetSymvol
 1934              	.LVL148:
 188:Core/Src/NOS_LIB_Driver/Src/WS2812B.c ****         }
 1935              		.loc 1 188 13 view .LVU540
 1936 0062 07F10902 		add	r2, r7, #9
 1937 0066 4D21     		movs	r1, #77
 1938 0068 2846     		mov	r0, r5
 1939 006a FFF7FEFF 		bl	NOS_WS2812B_Matrix_SetSymvol
 1940              	.LVL149:
 1941 006e 44E0     		b	.L144
 1942              	.LVL150:
 1943              	.L147:
 178:Core/Src/NOS_LIB_Driver/Src/WS2812B.c ****     }
 1944              		.loc 1 178 18 is_stmt 0 view .LVU541
 1945 0070 4FF00109 		mov	r9, #1
 1946 0074 D0E7     		b	.L141
 1947              	.LVL151:
 1948              	.L143:
 192:Core/Src/NOS_LIB_Driver/Src/WS2812B.c ****             NOS_WS2812B_Matrix_SetSymvol(matrix,(char)(rt.hour) % 10 + 48,startpos + 1);
 1949              		.loc 1 192 13 is_stmt 1 view .LVU542
 1950 0076 5FFA89F7 		uxtb	r7, r9
 1951 007a 454E     		ldr	r6, .L149
 1952 007c A6FB0436 		umull	r3, r6, r6, r4
 1953 0080 F608     		lsrs	r6, r6, #3
 1954 0082 3A46     		mov	r2, r7
 1955 0084 06F13001 		add	r1, r6, #48
 1956 0088 2846     		mov	r0, r5
 1957              	.LVL152:
 192:Core/Src/NOS_LIB_Driver/Src/WS2812B.c ****             NOS_WS2812B_Matrix_SetSymvol(matrix,(char)(rt.hour) % 10 + 48,startpos + 1);
 1958              		.loc 1 192 13 is_stmt 0 view .LVU543
 1959 008a FFF7FEFF 		bl	NOS_WS2812B_Matrix_SetSymvol
 1960              	.LVL153:
 193:Core/Src/NOS_LIB_Driver/Src/WS2812B.c ****             NOS_WS2812B_Matrix_SetSymvol(matrix,'A',startpos + 8);
 1961              		.loc 1 193 13 is_stmt 1 view .LVU544
 1962 008e 06EB8601 		add	r1, r6, r6, lsl #2
 1963 0092 A4EB4101 		sub	r1, r4, r1, lsl #1
 1964 0096 3031     		adds	r1, r1, #48
 1965 0098 7A1C     		adds	r2, r7, #1
 1966 009a C9B2     		uxtb	r1, r1
 1967 009c 2846     		mov	r0, r5
 1968 009e FFF7FEFF 		bl	NOS_WS2812B_Matrix_SetSymvol
 1969              	.LVL154:
 194:Core/Src/NOS_LIB_Driver/Src/WS2812B.c ****             NOS_WS2812B_Matrix_SetSymvol(matrix,'M',startpos + 9);
 1970              		.loc 1 194 13 view .LVU545
 1971 00a2 07F10802 		add	r2, r7, #8
ARM GAS  C:\Users\user\AppData\Local\Temp\ccD2C8ei.s 			page 51


 1972 00a6 4121     		movs	r1, #65
 1973 00a8 2846     		mov	r0, r5
 1974 00aa FFF7FEFF 		bl	NOS_WS2812B_Matrix_SetSymvol
 1975              	.LVL155:
 195:Core/Src/NOS_LIB_Driver/Src/WS2812B.c ****         }
 1976              		.loc 1 195 13 view .LVU546
 1977 00ae 07F10902 		add	r2, r7, #9
 1978 00b2 4D21     		movs	r1, #77
 1979 00b4 2846     		mov	r0, r5
 1980 00b6 FFF7FEFF 		bl	NOS_WS2812B_Matrix_SetSymvol
 1981              	.LVL156:
 1982 00ba 1EE0     		b	.L144
 1983              	.LVL157:
 1984              	.L142:
 200:Core/Src/NOS_LIB_Driver/Src/WS2812B.c ****             NOS_WS2812B_Matrix_SetSymvol(matrix,(char)(rt.hour) % 10 + 48,startpos + 1);
 1985              		.loc 1 200 13 view .LVU547
 200:Core/Src/NOS_LIB_Driver/Src/WS2812B.c ****             NOS_WS2812B_Matrix_SetSymvol(matrix,(char)(rt.hour) % 10 + 48,startpos + 1);
 1986              		.loc 1 200 58 is_stmt 0 view .LVU548
 1987 00bc 9DF80260 		ldrb	r6, [sp, #2]	@ zero_extendqisi2
 200:Core/Src/NOS_LIB_Driver/Src/WS2812B.c ****             NOS_WS2812B_Matrix_SetSymvol(matrix,(char)(rt.hour) % 10 + 48,startpos + 1);
 1988              		.loc 1 200 13 view .LVU549
 1989 00c0 5FFA89F7 		uxtb	r7, r9
 1990 00c4 324C     		ldr	r4, .L149
 1991 00c6 A4FB0634 		umull	r3, r4, r4, r6
 1992 00ca E408     		lsrs	r4, r4, #3
 1993 00cc 3A46     		mov	r2, r7
 1994 00ce 04F13001 		add	r1, r4, #48
 1995 00d2 2846     		mov	r0, r5
 1996              	.LVL158:
 200:Core/Src/NOS_LIB_Driver/Src/WS2812B.c ****             NOS_WS2812B_Matrix_SetSymvol(matrix,(char)(rt.hour) % 10 + 48,startpos + 1);
 1997              		.loc 1 200 13 view .LVU550
 1998 00d4 FFF7FEFF 		bl	NOS_WS2812B_Matrix_SetSymvol
 1999              	.LVL159:
 201:Core/Src/NOS_LIB_Driver/Src/WS2812B.c ****             NOS_WS2812B_Matrix_SetSymvol(matrix,' ',startpos + 8);
 2000              		.loc 1 201 13 is_stmt 1 view .LVU551
 2001 00d8 04EB8404 		add	r4, r4, r4, lsl #2
 2002 00dc A6EB4404 		sub	r4, r6, r4, lsl #1
 2003 00e0 04F13001 		add	r1, r4, #48
 2004 00e4 7A1C     		adds	r2, r7, #1
 2005 00e6 C9B2     		uxtb	r1, r1
 2006 00e8 2846     		mov	r0, r5
 2007 00ea FFF7FEFF 		bl	NOS_WS2812B_Matrix_SetSymvol
 2008              	.LVL160:
 202:Core/Src/NOS_LIB_Driver/Src/WS2812B.c ****     }
 2009              		.loc 1 202 13 view .LVU552
 2010 00ee 07F10802 		add	r2, r7, #8
 2011 00f2 2021     		movs	r1, #32
 2012 00f4 2846     		mov	r0, r5
 2013 00f6 FFF7FEFF 		bl	NOS_WS2812B_Matrix_SetSymvol
 2014              	.LVL161:
 2015              	.L144:
 205:Core/Src/NOS_LIB_Driver/Src/WS2812B.c ****     NOS_WS2812B_Matrix_SetSymvol(matrix,(char)(rt.min%10) + 48,startpos + 4);
 2016              		.loc 1 205 5 view .LVU553
 205:Core/Src/NOS_LIB_Driver/Src/WS2812B.c ****     NOS_WS2812B_Matrix_SetSymvol(matrix,(char)(rt.min%10) + 48,startpos + 4);
 2017              		.loc 1 205 50 is_stmt 0 view .LVU554
 2018 00fa 9DF80380 		ldrb	r8, [sp, #3]	@ zero_extendqisi2
 205:Core/Src/NOS_LIB_Driver/Src/WS2812B.c ****     NOS_WS2812B_Matrix_SetSymvol(matrix,(char)(rt.min%10) + 48,startpos + 4);
ARM GAS  C:\Users\user\AppData\Local\Temp\ccD2C8ei.s 			page 52


 2019              		.loc 1 205 5 view .LVU555
 2020 00fe 5FFA89F6 		uxtb	r6, r9
 2021 0102 234C     		ldr	r4, .L149
 2022 0104 A4FB0837 		umull	r3, r7, r4, r8
 2023 0108 FF08     		lsrs	r7, r7, #3
 2024 010a 09F10302 		add	r2, r9, #3
 2025 010e 07F13001 		add	r1, r7, #48
 2026 0112 2846     		mov	r0, r5
 2027 0114 FFF7FEFF 		bl	NOS_WS2812B_Matrix_SetSymvol
 2028              	.LVL162:
 206:Core/Src/NOS_LIB_Driver/Src/WS2812B.c **** 
 2029              		.loc 1 206 5 is_stmt 1 view .LVU556
 2030 0118 07EB8707 		add	r7, r7, r7, lsl #2
 2031 011c A8EB4707 		sub	r7, r8, r7, lsl #1
 2032 0120 07F13001 		add	r1, r7, #48
 2033 0124 321D     		adds	r2, r6, #4
 2034 0126 C9B2     		uxtb	r1, r1
 2035 0128 2846     		mov	r0, r5
 2036 012a FFF7FEFF 		bl	NOS_WS2812B_Matrix_SetSymvol
 2037              	.LVL163:
 208:Core/Src/NOS_LIB_Driver/Src/WS2812B.c ****     NOS_WS2812B_Matrix_SetSymvol(matrix,(char)rt.sec%10 + 48,startpos + 7);
 2038              		.loc 1 208 5 view .LVU557
 208:Core/Src/NOS_LIB_Driver/Src/WS2812B.c ****     NOS_WS2812B_Matrix_SetSymvol(matrix,(char)rt.sec%10 + 48,startpos + 7);
 2039              		.loc 1 208 49 is_stmt 0 view .LVU558
 2040 012e 9DF80470 		ldrb	r7, [sp, #4]	@ zero_extendqisi2
 208:Core/Src/NOS_LIB_Driver/Src/WS2812B.c ****     NOS_WS2812B_Matrix_SetSymvol(matrix,(char)rt.sec%10 + 48,startpos + 7);
 2041              		.loc 1 208 5 view .LVU559
 2042 0132 A4FB0734 		umull	r3, r4, r4, r7
 2043 0136 E408     		lsrs	r4, r4, #3
 2044 0138 B21D     		adds	r2, r6, #6
 2045 013a 04F13001 		add	r1, r4, #48
 2046 013e 2846     		mov	r0, r5
 2047 0140 FFF7FEFF 		bl	NOS_WS2812B_Matrix_SetSymvol
 2048              	.LVL164:
 209:Core/Src/NOS_LIB_Driver/Src/WS2812B.c **** 
 2049              		.loc 1 209 5 is_stmt 1 view .LVU560
 2050 0144 04EB8401 		add	r1, r4, r4, lsl #2
 2051 0148 A7EB4101 		sub	r1, r7, r1, lsl #1
 2052 014c 3031     		adds	r1, r1, #48
 2053 014e F21D     		adds	r2, r6, #7
 2054 0150 C9B2     		uxtb	r1, r1
 2055 0152 2846     		mov	r0, r5
 2056 0154 FFF7FEFF 		bl	NOS_WS2812B_Matrix_SetSymvol
 2057              	.LVL165:
 211:Core/Src/NOS_LIB_Driver/Src/WS2812B.c ****     {
 2058              		.loc 1 211 5 view .LVU561
 211:Core/Src/NOS_LIB_Driver/Src/WS2812B.c ****     {
 2059              		.loc 1 211 7 is_stmt 0 view .LVU562
 2060 0158 17F0010F 		tst	r7, #1
 2061 015c 0CD1     		bne	.L145
 213:Core/Src/NOS_LIB_Driver/Src/WS2812B.c ****         NOS_WS2812B_Matrix_SetSymvol(matrix,':',startpos + 5);
 2062              		.loc 1 213 9 is_stmt 1 view .LVU563
 2063 015e B21C     		adds	r2, r6, #2
 2064 0160 3A21     		movs	r1, #58
 2065 0162 2846     		mov	r0, r5
 2066 0164 FFF7FEFF 		bl	NOS_WS2812B_Matrix_SetSymvol
 2067              	.LVL166:
ARM GAS  C:\Users\user\AppData\Local\Temp\ccD2C8ei.s 			page 53


 214:Core/Src/NOS_LIB_Driver/Src/WS2812B.c ****     }
 2068              		.loc 1 214 9 view .LVU564
 2069 0168 721D     		adds	r2, r6, #5
 2070 016a 3A21     		movs	r1, #58
 2071 016c 2846     		mov	r0, r5
 2072 016e FFF7FEFF 		bl	NOS_WS2812B_Matrix_SetSymvol
 2073              	.LVL167:
 2074              	.L140:
 221:Core/Src/NOS_LIB_Driver/Src/WS2812B.c **** 
 2075              		.loc 1 221 1 is_stmt 0 view .LVU565
 2076 0172 03B0     		add	sp, sp, #12
 2077              	.LCFI18:
 2078              		.cfi_remember_state
 2079              		.cfi_def_cfa_offset 28
 2080              		@ sp needed
 2081 0174 BDE8F083 		pop	{r4, r5, r6, r7, r8, r9, pc}
 2082              	.LVL168:
 2083              	.L145:
 2084              	.LCFI19:
 2085              		.cfi_restore_state
 218:Core/Src/NOS_LIB_Driver/Src/WS2812B.c ****         NOS_WS2812B_Matrix_SetSymvol(matrix,' ',startpos + 5);
 2086              		.loc 1 218 9 is_stmt 1 view .LVU566
 2087 0178 B21C     		adds	r2, r6, #2
 2088 017a 2021     		movs	r1, #32
 2089 017c 2846     		mov	r0, r5
 2090 017e FFF7FEFF 		bl	NOS_WS2812B_Matrix_SetSymvol
 2091              	.LVL169:
 219:Core/Src/NOS_LIB_Driver/Src/WS2812B.c ****     }
 2092              		.loc 1 219 9 view .LVU567
 2093 0182 721D     		adds	r2, r6, #5
 2094 0184 2021     		movs	r1, #32
 2095 0186 2846     		mov	r0, r5
 2096 0188 FFF7FEFF 		bl	NOS_WS2812B_Matrix_SetSymvol
 2097              	.LVL170:
 221:Core/Src/NOS_LIB_Driver/Src/WS2812B.c **** 
 2098              		.loc 1 221 1 is_stmt 0 view .LVU568
 2099 018c F1E7     		b	.L140
 2100              	.L150:
 2101 018e 00BF     		.align	2
 2102              	.L149:
 2103 0190 CDCCCCCC 		.word	-858993459
 2104              		.cfi_endproc
 2105              	.LFE139:
 2107              		.section	.text.NOS_WS2812B_Matrix_PrintTemperature,"ax",%progbits
 2108              		.align	1
 2109              		.global	NOS_WS2812B_Matrix_PrintTemperature
 2110              		.syntax unified
 2111              		.thumb
 2112              		.thumb_func
 2113              		.fpu fpv4-sp-d16
 2115              	NOS_WS2812B_Matrix_PrintTemperature:
 2116              	.LVL171:
 2117              	.LFB142:
 282:Core/Src/NOS_LIB_Driver/Src/WS2812B.c ****     if(temperature > 0)
 2118              		.loc 1 282 1 is_stmt 1 view -0
 2119              		.cfi_startproc
 2120              		@ args = 0, pretend = 0, frame = 0
ARM GAS  C:\Users\user\AppData\Local\Temp\ccD2C8ei.s 			page 54


 2121              		@ frame_needed = 0, uses_anonymous_args = 0
 282:Core/Src/NOS_LIB_Driver/Src/WS2812B.c ****     if(temperature > 0)
 2122              		.loc 1 282 1 is_stmt 0 view .LVU570
 2123 0000 38B5     		push	{r3, r4, r5, lr}
 2124              	.LCFI20:
 2125              		.cfi_def_cfa_offset 16
 2126              		.cfi_offset 3, -16
 2127              		.cfi_offset 4, -12
 2128              		.cfi_offset 5, -8
 2129              		.cfi_offset 14, -4
 2130 0002 0546     		mov	r5, r0
 283:Core/Src/NOS_LIB_Driver/Src/WS2812B.c ****     {
 2131              		.loc 1 283 5 is_stmt 1 view .LVU571
 283:Core/Src/NOS_LIB_Driver/Src/WS2812B.c ****     {
 2132              		.loc 1 283 7 is_stmt 0 view .LVU572
 2133 0004 0C1E     		subs	r4, r1, #0
 2134 0006 16DD     		ble	.L152
 285:Core/Src/NOS_LIB_Driver/Src/WS2812B.c ****     }
 2135              		.loc 1 285 8 is_stmt 1 view .LVU573
 2136 0008 0022     		movs	r2, #0
 2137 000a 2B21     		movs	r1, #43
 2138              	.LVL172:
 285:Core/Src/NOS_LIB_Driver/Src/WS2812B.c ****     }
 2139              		.loc 1 285 8 is_stmt 0 view .LVU574
 2140 000c FFF7FEFF 		bl	NOS_WS2812B_Matrix_SetSymvol
 2141              	.LVL173:
 2142              	.L153:
 292:Core/Src/NOS_LIB_Driver/Src/WS2812B.c ****        NOS_WS2812B_Matrix_SetSymvol(matrix,'C',4);
 2143              		.loc 1 292 8 is_stmt 1 view .LVU575
 2144 0010 0322     		movs	r2, #3
 2145 0012 2A21     		movs	r1, #42
 2146 0014 2846     		mov	r0, r5
 2147 0016 FFF7FEFF 		bl	NOS_WS2812B_Matrix_SetSymvol
 2148              	.LVL174:
 293:Core/Src/NOS_LIB_Driver/Src/WS2812B.c **** 
 2149              		.loc 1 293 8 view .LVU576
 2150 001a 0422     		movs	r2, #4
 2151 001c 4321     		movs	r1, #67
 2152 001e 2846     		mov	r0, r5
 2153 0020 FFF7FEFF 		bl	NOS_WS2812B_Matrix_SetSymvol
 2154              	.LVL175:
 295:Core/Src/NOS_LIB_Driver/Src/WS2812B.c ****     if(temperature < 0)
 2155              		.loc 1 295 5 view .LVU577
 296:Core/Src/NOS_LIB_Driver/Src/WS2812B.c ****     {
 2156              		.loc 1 296 5 view .LVU578
 296:Core/Src/NOS_LIB_Driver/Src/WS2812B.c ****     {
 2157              		.loc 1 296 7 is_stmt 0 view .LVU579
 2158 0024 002C     		cmp	r4, #0
 2159 0026 12DB     		blt	.L161
 306:Core/Src/NOS_LIB_Driver/Src/WS2812B.c ****     }
 2160              		.loc 1 306 9 is_stmt 1 view .LVU580
 306:Core/Src/NOS_LIB_Driver/Src/WS2812B.c ****     }
 2161              		.loc 1 306 17 is_stmt 0 view .LVU581
 2162 0028 E1B2     		uxtb	r1, r4
 2163              	.LVL176:
 2164              	.L157:
 308:Core/Src/NOS_LIB_Driver/Src/WS2812B.c **** }
ARM GAS  C:\Users\user\AppData\Local\Temp\ccD2C8ei.s 			page 55


 2165              		.loc 1 308 5 is_stmt 1 view .LVU582
 2166 002a 0223     		movs	r3, #2
 2167 002c 0122     		movs	r2, #1
 2168 002e 2846     		mov	r0, r5
 2169 0030 FFF7FEFF 		bl	NOS_WS2812B_Matrix_PrintIntNumber
 2170              	.LVL177:
 309:Core/Src/NOS_LIB_Driver/Src/WS2812B.c **** 
 2171              		.loc 1 309 1 is_stmt 0 view .LVU583
 2172 0034 38BD     		pop	{r3, r4, r5, pc}
 2173              	.LVL178:
 2174              	.L152:
 289:Core/Src/NOS_LIB_Driver/Src/WS2812B.c ****     }
 2175              		.loc 1 289 8 is_stmt 1 view .LVU584
 2176 0036 0022     		movs	r2, #0
 2177 0038 2D21     		movs	r1, #45
 2178              	.LVL179:
 289:Core/Src/NOS_LIB_Driver/Src/WS2812B.c ****     }
 2179              		.loc 1 289 8 is_stmt 0 view .LVU585
 2180 003a FFF7FEFF 		bl	NOS_WS2812B_Matrix_SetSymvol
 2181              	.LVL180:
 289:Core/Src/NOS_LIB_Driver/Src/WS2812B.c ****     }
 2182              		.loc 1 289 8 view .LVU586
 2183 003e E7E7     		b	.L153
 2184              	.LVL181:
 2185              	.L156:
 300:Core/Src/NOS_LIB_Driver/Src/WS2812B.c ****        counter++;
 2186              		.loc 1 300 8 is_stmt 1 view .LVU587
 300:Core/Src/NOS_LIB_Driver/Src/WS2812B.c ****        counter++;
 2187              		.loc 1 300 19 is_stmt 0 view .LVU588
 2188 0040 0134     		adds	r4, r4, #1
 2189              	.LVL182:
 300:Core/Src/NOS_LIB_Driver/Src/WS2812B.c ****        counter++;
 2190              		.loc 1 300 19 view .LVU589
 2191 0042 24B2     		sxth	r4, r4
 2192              	.LVL183:
 301:Core/Src/NOS_LIB_Driver/Src/WS2812B.c ****     }
 2193              		.loc 1 301 8 is_stmt 1 view .LVU590
 301:Core/Src/NOS_LIB_Driver/Src/WS2812B.c ****     }
 2194              		.loc 1 301 15 is_stmt 0 view .LVU591
 2195 0044 0131     		adds	r1, r1, #1
 2196              	.LVL184:
 301:Core/Src/NOS_LIB_Driver/Src/WS2812B.c ****     }
 2197              		.loc 1 301 15 view .LVU592
 2198 0046 C9B2     		uxtb	r1, r1
 2199              	.LVL185:
 2200              	.L154:
 298:Core/Src/NOS_LIB_Driver/Src/WS2812B.c ****     {
 2201              		.loc 1 298 10 is_stmt 1 view .LVU593
 2202 0048 002C     		cmp	r4, #0
 2203 004a F9DB     		blt	.L156
 2204 004c EDE7     		b	.L157
 2205              	.LVL186:
 2206              	.L161:
 295:Core/Src/NOS_LIB_Driver/Src/WS2812B.c ****     if(temperature < 0)
 2207              		.loc 1 295 13 is_stmt 0 view .LVU594
 2208 004e 0021     		movs	r1, #0
 2209 0050 FAE7     		b	.L154
ARM GAS  C:\Users\user\AppData\Local\Temp\ccD2C8ei.s 			page 56


 2210              		.cfi_endproc
 2211              	.LFE142:
 2213              		.section	.rodata.NOS_WS2812B_Matrix_PrintDetectorValue.str1.4,"aMS",%progbits,1
 2214              		.align	2
 2215              	.LC1:
 2216 0000 7553762F 		.ascii	"uSv/Hour\000"
 2216      486F7572 
 2216      00
 2217 0009 000000   		.align	2
 2218              	.LC2:
 2219 000c 6D6B3342 		.ascii	"mk3B/god\000"
 2219      2F676F64 
 2219      00
 2220 0015 000000   		.align	2
 2221              	.LC3:
 2222 0018 6D6B3342 		.ascii	"mk3B/yac\000"
 2222      2F796163 
 2222      00
 2223              		.section	.text.NOS_WS2812B_Matrix_PrintDetectorValue,"ax",%progbits
 2224              		.align	1
 2225              		.global	NOS_WS2812B_Matrix_PrintDetectorValue
 2226              		.syntax unified
 2227              		.thumb
 2228              		.thumb_func
 2229              		.fpu fpv4-sp-d16
 2231              	NOS_WS2812B_Matrix_PrintDetectorValue:
 2232              	.LVL187:
 2233              	.LFB143:
 312:Core/Src/NOS_LIB_Driver/Src/WS2812B.c ****        if(detector->value.data < 10.0f)
 2234              		.loc 1 312 1 is_stmt 1 view -0
 2235              		.cfi_startproc
 2236              		@ args = 8, pretend = 0, frame = 0
 2237              		@ frame_needed = 0, uses_anonymous_args = 0
 312:Core/Src/NOS_LIB_Driver/Src/WS2812B.c ****        if(detector->value.data < 10.0f)
 2238              		.loc 1 312 1 is_stmt 0 view .LVU596
 2239 0000 F8B5     		push	{r3, r4, r5, r6, r7, lr}
 2240              	.LCFI21:
 2241              		.cfi_def_cfa_offset 24
 2242              		.cfi_offset 3, -24
 2243              		.cfi_offset 4, -20
 2244              		.cfi_offset 5, -16
 2245              		.cfi_offset 6, -12
 2246              		.cfi_offset 7, -8
 2247              		.cfi_offset 14, -4
 2248 0002 0546     		mov	r5, r0
 2249 0004 0C46     		mov	r4, r1
 2250 0006 1646     		mov	r6, r2
 2251 0008 1F46     		mov	r7, r3
 313:Core/Src/NOS_LIB_Driver/Src/WS2812B.c ****        {
 2252              		.loc 1 313 8 is_stmt 1 view .LVU597
 313:Core/Src/NOS_LIB_Driver/Src/WS2812B.c ****        {
 2253              		.loc 1 313 26 is_stmt 0 view .LVU598
 2254 000a 91ED010A 		vldr.32	s0, [r1, #4]
 313:Core/Src/NOS_LIB_Driver/Src/WS2812B.c ****        {
 2255              		.loc 1 313 10 view .LVU599
 2256 000e F2EE047A 		vmov.f32	s15, #1.0e+1
 2257 0012 B4EEE70A 		vcmpe.f32	s0, s15
ARM GAS  C:\Users\user\AppData\Local\Temp\ccD2C8ei.s 			page 57


 2258 0016 F1EE10FA 		vmrs	APSR_nzcv, FPSCR
 2259 001a 21D5     		bpl	.L179
 315:Core/Src/NOS_LIB_Driver/Src/WS2812B.c ****           NOS_WS2812B_Matrix_PrintFloatNumber(matrix,detector->value.data,2);
 2260              		.loc 1 315 11 is_stmt 1 view .LVU600
 2261 001c 0122     		movs	r2, #1
 2262              	.LVL188:
 315:Core/Src/NOS_LIB_Driver/Src/WS2812B.c ****           NOS_WS2812B_Matrix_PrintFloatNumber(matrix,detector->value.data,2);
 2263              		.loc 1 315 11 is_stmt 0 view .LVU601
 2264 001e 2021     		movs	r1, #32
 2265              	.LVL189:
 315:Core/Src/NOS_LIB_Driver/Src/WS2812B.c ****           NOS_WS2812B_Matrix_PrintFloatNumber(matrix,detector->value.data,2);
 2266              		.loc 1 315 11 view .LVU602
 2267 0020 FFF7FEFF 		bl	NOS_WS2812B_Matrix_SetSymvol
 2268              	.LVL190:
 316:Core/Src/NOS_LIB_Driver/Src/WS2812B.c ****        }
 2269              		.loc 1 316 11 is_stmt 1 view .LVU603
 2270 0024 0221     		movs	r1, #2
 2271 0026 94ED010A 		vldr.32	s0, [r4, #4]
 2272 002a 2846     		mov	r0, r5
 2273 002c FFF7FEFF 		bl	NOS_WS2812B_Matrix_PrintFloatNumber
 2274              	.LVL191:
 2275              	.L165:
 323:Core/Src/NOS_LIB_Driver/Src/WS2812B.c ****        {
 2276              		.loc 1 323 8 view .LVU604
 2277 0030 012E     		cmp	r6, #1
 2278 0032 20D0     		beq	.L166
 2279 0034 022E     		cmp	r6, #2
 2280 0036 25D0     		beq	.L167
 2281 0038 B6B1     		cbz	r6, .L182
 2282              	.L168:
 338:Core/Src/NOS_LIB_Driver/Src/WS2812B.c ****        {
 2283              		.loc 1 338 8 view .LVU605
 338:Core/Src/NOS_LIB_Driver/Src/WS2812B.c ****        {
 2284              		.loc 1 338 26 is_stmt 0 view .LVU606
 2285 003a D4ED017A 		vldr.32	s15, [r4, #4]
 338:Core/Src/NOS_LIB_Driver/Src/WS2812B.c ****        {
 2286              		.loc 1 338 57 view .LVU607
 2287 003e 94ED027A 		vldr.32	s14, [r4, #8]
 338:Core/Src/NOS_LIB_Driver/Src/WS2812B.c ****        {
 2288              		.loc 1 338 10 view .LVU608
 2289 0042 F4EEC77A 		vcmpe.f32	s15, s14
 2290 0046 F1EE10FA 		vmrs	APSR_nzcv, FPSCR
 2291 004a 22DB     		blt	.L169
 338:Core/Src/NOS_LIB_Driver/Src/WS2812B.c ****        {
 2292              		.loc 1 338 112 discriminator 1 view .LVU609
 2293 004c 94ED037A 		vldr.32	s14, [r4, #12]
 338:Core/Src/NOS_LIB_Driver/Src/WS2812B.c ****        {
 2294              		.loc 1 338 63 discriminator 1 view .LVU610
 2295 0050 F4EEC77A 		vcmpe.f32	s15, s14
 2296 0054 F1EE10FA 		vmrs	APSR_nzcv, FPSCR
 2297 0058 1BD5     		bpl	.L169
 340:Core/Src/NOS_LIB_Driver/Src/WS2812B.c ****        }
 2298              		.loc 1 340 10 is_stmt 1 view .LVU611
 340:Core/Src/NOS_LIB_Driver/Src/WS2812B.c ****        }
 2299              		.loc 1 340 28 is_stmt 0 view .LVU612
 2300 005a 069B     		ldr	r3, [sp, #24]
 2301 005c EB60     		str	r3, [r5, #12]
ARM GAS  C:\Users\user\AppData\Local\Temp\ccD2C8ei.s 			page 58


 2302 005e 20E0     		b	.L162
 2303              	.LVL192:
 2304              	.L179:
 320:Core/Src/NOS_LIB_Driver/Src/WS2812B.c ****        }
 2305              		.loc 1 320 11 is_stmt 1 view .LVU613
 2306 0060 0121     		movs	r1, #1
 2307              	.LVL193:
 320:Core/Src/NOS_LIB_Driver/Src/WS2812B.c ****        }
 2308              		.loc 1 320 11 is_stmt 0 view .LVU614
 2309 0062 FFF7FEFF 		bl	NOS_WS2812B_Matrix_PrintFloatNumber
 2310              	.LVL194:
 320:Core/Src/NOS_LIB_Driver/Src/WS2812B.c ****        }
 2311              		.loc 1 320 11 view .LVU615
 2312 0066 E3E7     		b	.L165
 2313              	.L182:
 326:Core/Src/NOS_LIB_Driver/Src/WS2812B.c ****           break;
 2314              		.loc 1 326 11 is_stmt 1 view .LVU616
 2315 0068 0823     		movs	r3, #8
 2316 006a 0722     		movs	r2, #7
 2317 006c 0F49     		ldr	r1, .L183
 2318 006e 2846     		mov	r0, r5
 2319 0070 FFF7FEFF 		bl	NOS_WS2812B_Matrix_PrintStaticString
 2320              	.LVL195:
 327:Core/Src/NOS_LIB_Driver/Src/WS2812B.c ****         case Ukrainian:
 2321              		.loc 1 327 11 view .LVU617
 2322 0074 E1E7     		b	.L168
 2323              	.L166:
 329:Core/Src/NOS_LIB_Driver/Src/WS2812B.c ****           break;
 2324              		.loc 1 329 11 view .LVU618
 2325 0076 0823     		movs	r3, #8
 2326 0078 0722     		movs	r2, #7
 2327 007a 0D49     		ldr	r1, .L183+4
 2328 007c 2846     		mov	r0, r5
 2329 007e FFF7FEFF 		bl	NOS_WS2812B_Matrix_PrintStaticString
 2330              	.LVL196:
 330:Core/Src/NOS_LIB_Driver/Src/WS2812B.c ****         case Russian:
 2331              		.loc 1 330 11 view .LVU619
 2332 0082 DAE7     		b	.L168
 2333              	.L167:
 332:Core/Src/NOS_LIB_Driver/Src/WS2812B.c ****           break;
 2334              		.loc 1 332 11 view .LVU620
 2335 0084 0823     		movs	r3, #8
 2336 0086 0722     		movs	r2, #7
 2337 0088 0A49     		ldr	r1, .L183+8
 2338 008a 2846     		mov	r0, r5
 2339 008c FFF7FEFF 		bl	NOS_WS2812B_Matrix_PrintStaticString
 2340              	.LVL197:
 333:Core/Src/NOS_LIB_Driver/Src/WS2812B.c ****        default:
 2341              		.loc 1 333 11 view .LVU621
 2342 0090 D3E7     		b	.L168
 2343              	.L169:
 342:Core/Src/NOS_LIB_Driver/Src/WS2812B.c ****        {
 2344              		.loc 1 342 13 view .LVU622
 342:Core/Src/NOS_LIB_Driver/Src/WS2812B.c ****        {
 2345              		.loc 1 342 64 is_stmt 0 view .LVU623
 2346 0092 94ED037A 		vldr.32	s14, [r4, #12]
 342:Core/Src/NOS_LIB_Driver/Src/WS2812B.c ****        {
ARM GAS  C:\Users\user\AppData\Local\Temp\ccD2C8ei.s 			page 59


 2347              		.loc 1 342 16 view .LVU624
 2348 0096 F4EEC77A 		vcmpe.f32	s15, s14
 2349 009a F1EE10FA 		vmrs	APSR_nzcv, FPSCR
 2350 009e 01DB     		blt	.L180
 344:Core/Src/NOS_LIB_Driver/Src/WS2812B.c ****        }
 2351              		.loc 1 344 10 is_stmt 1 view .LVU625
 344:Core/Src/NOS_LIB_Driver/Src/WS2812B.c ****        }
 2352              		.loc 1 344 28 is_stmt 0 view .LVU626
 2353 00a0 EF60     		str	r7, [r5, #12]
 2354              	.L162:
 350:Core/Src/NOS_LIB_Driver/Src/WS2812B.c **** 
 2355              		.loc 1 350 1 view .LVU627
 2356 00a2 F8BD     		pop	{r3, r4, r5, r6, r7, pc}
 2357              	.LVL198:
 2358              	.L180:
 348:Core/Src/NOS_LIB_Driver/Src/WS2812B.c ****        }
 2359              		.loc 1 348 10 is_stmt 1 view .LVU628
 348:Core/Src/NOS_LIB_Driver/Src/WS2812B.c ****        }
 2360              		.loc 1 348 28 is_stmt 0 view .LVU629
 2361 00a4 079B     		ldr	r3, [sp, #28]
 2362 00a6 EB60     		str	r3, [r5, #12]
 350:Core/Src/NOS_LIB_Driver/Src/WS2812B.c **** 
 2363              		.loc 1 350 1 view .LVU630
 2364 00a8 FBE7     		b	.L162
 2365              	.L184:
 2366 00aa 00BF     		.align	2
 2367              	.L183:
 2368 00ac 00000000 		.word	.LC1
 2369 00b0 0C000000 		.word	.LC2
 2370 00b4 18000000 		.word	.LC3
 2371              		.cfi_endproc
 2372              	.LFE143:
 2374              		.global	Num_9
 2375              		.global	Num_8
 2376              		.global	Num_7
 2377              		.global	Num_6
 2378              		.global	Num_5
 2379              		.global	Num_4
 2380              		.global	Num_3
 2381              		.global	Num_2
 2382              		.global	Num_1
 2383              		.global	Num_0
 2384              		.global	Celcium
 2385              		.global	Multiply
 2386              		.global	Minus
 2387              		.global	Plus
 2388              		.global	Slash
 2389              		.global	DoubleDot
 2390              		.global	Dot
 2391              		.global	Space
 2392              		.global	Ukr_ch
 2393              		.global	Ukr_d
 2394              		.global	Ukr_g
 2395              		.global	Ukr_k
 2396              		.global	Ukr_m
 2397              		.global	Eng_r
 2398              		.global	Eng_o
ARM GAS  C:\Users\user\AppData\Local\Temp\ccD2C8ei.s 			page 60


 2399              		.global	Eng_u
 2400              		.global	Eng_v
 2401              		.global	Eng_c
 2402              		.global	Eng_a
 2403              		.global	Eng_Z
 2404              		.global	Eng_Y
 2405              		.global	Eng_X
 2406              		.global	Eng_W
 2407              		.global	Eng_V
 2408              		.global	Eng_U
 2409              		.global	Eng_T
 2410              		.global	Eng_S
 2411              		.global	Eng_R
 2412              		.global	Eng_Q
 2413              		.global	Eng_P
 2414              		.global	Eng_O
 2415              		.global	Eng_N
 2416              		.global	Eng_M
 2417              		.global	Eng_L
 2418              		.global	Eng_K
 2419              		.global	Eng_J
 2420              		.global	Eng_I
 2421              		.global	Eng_H
 2422              		.global	Eng_G
 2423              		.global	Eng_F
 2424              		.global	Eng_E
 2425              		.global	Eng_D
 2426              		.global	Eng_C
 2427              		.global	Eng_B
 2428              		.global	Eng_A
 2429              		.section	.bss.Space,"aw",%nobits
 2430              		.align	2
 2431              		.set	.LANCHOR0,. + 0
 2434              	Space:
 2435 0000 00000000 		.space	5
 2435      00
 2436              		.section	.data.Celcium,"aw"
 2437              		.align	2
 2438              		.set	.LANCHOR40,. + 0
 2441              	Celcium:
 2442 0000 0000040A 		.ascii	"\000\000\004\012\004"
 2442      04
 2443              		.section	.data.Dot,"aw"
 2444              		.align	2
 2445              		.set	.LANCHOR41,. + 0
 2448              	Dot:
 2449 0000 00008000 		.ascii	"\000\000\200\000\000"
 2449      00
 2450              		.section	.data.DoubleDot,"aw"
 2451              		.align	2
 2452              		.set	.LANCHOR42,. + 0
 2455              	DoubleDot:
 2456 0000 00004400 		.ascii	"\000\000D\000\000"
 2456      00
 2457              		.section	.data.Eng_A,"aw"
 2458              		.align	2
 2459              		.set	.LANCHOR53,. + 0
ARM GAS  C:\Users\user\AppData\Local\Temp\ccD2C8ei.s 			page 61


 2462              	Eng_A:
 2463 0000 FC121212 		.ascii	"\374\022\022\022\374"
 2463      FC
 2464              		.section	.data.Eng_B,"aw"
 2465              		.align	2
 2466              		.set	.LANCHOR1,. + 0
 2469              	Eng_B:
 2470 0000 FE929292 		.ascii	"\376\222\222\222l"
 2470      6C
 2471              		.section	.data.Eng_C,"aw"
 2472              		.align	2
 2473              		.set	.LANCHOR2,. + 0
 2476              	Eng_C:
 2477 0000 7C828282 		.ascii	"|\202\202\202D"
 2477      44
 2478              		.section	.data.Eng_D,"aw"
 2479              		.align	2
 2480              		.set	.LANCHOR3,. + 0
 2483              	Eng_D:
 2484 0000 FE828282 		.ascii	"\376\202\202\202|"
 2484      7C
 2485              		.section	.data.Eng_E,"aw"
 2486              		.align	2
 2487              		.set	.LANCHOR4,. + 0
 2490              	Eng_E:
 2491 0000 FE929292 		.ascii	"\376\222\222\222\202"
 2491      82
 2492              		.section	.data.Eng_F,"aw"
 2493              		.align	2
 2494              		.set	.LANCHOR5,. + 0
 2497              	Eng_F:
 2498 0000 FE121212 		.ascii	"\376\022\022\022\002"
 2498      02
 2499              		.section	.data.Eng_G,"aw"
 2500              		.align	2
 2501              		.set	.LANCHOR6,. + 0
 2504              	Eng_G:
 2505 0000 7C829292 		.ascii	"|\202\222\222t"
 2505      74
 2506              		.section	.data.Eng_H,"aw"
 2507              		.align	2
 2508              		.set	.LANCHOR7,. + 0
 2511              	Eng_H:
 2512 0000 FE101010 		.ascii	"\376\020\020\020\376"
 2512      FE
 2513              		.section	.data.Eng_I,"aw"
 2514              		.align	2
 2515              		.set	.LANCHOR8,. + 0
 2518              	Eng_I:
 2519 0000 0082FE82 		.ascii	"\000\202\376\202\000"
 2519      00
 2520              		.section	.data.Eng_J,"aw"
 2521              		.align	2
 2522              		.set	.LANCHOR9,. + 0
 2525              	Eng_J:
 2526 0000 40808080 		.ascii	"@\200\200\200~"
 2526      7E
ARM GAS  C:\Users\user\AppData\Local\Temp\ccD2C8ei.s 			page 62


 2527              		.section	.data.Eng_K,"aw"
 2528              		.align	2
 2529              		.set	.LANCHOR10,. + 0
 2532              	Eng_K:
 2533 0000 FE102844 		.ascii	"\376\020(D\202"
 2533      82
 2534              		.section	.data.Eng_L,"aw"
 2535              		.align	2
 2536              		.set	.LANCHOR11,. + 0
 2539              	Eng_L:
 2540 0000 FE808080 		.ascii	"\376\200\200\200\200"
 2540      80
 2541              		.section	.data.Eng_M,"aw"
 2542              		.align	2
 2543              		.set	.LANCHOR12,. + 0
 2546              	Eng_M:
 2547 0000 FE040804 		.ascii	"\376\004\010\004\376"
 2547      FE
 2548              		.section	.data.Eng_N,"aw"
 2549              		.align	2
 2550              		.set	.LANCHOR13,. + 0
 2553              	Eng_N:
 2554 0000 FE081020 		.ascii	"\376\010\020 \376"
 2554      FE
 2555              		.section	.data.Eng_O,"aw"
 2556              		.align	2
 2557              		.set	.LANCHOR14,. + 0
 2560              	Eng_O:
 2561 0000 7C828282 		.ascii	"|\202\202\202|"
 2561      7C
 2562              		.section	.data.Eng_P,"aw"
 2563              		.align	2
 2564              		.set	.LANCHOR15,. + 0
 2567              	Eng_P:
 2568 0000 FE121212 		.ascii	"\376\022\022\022\014"
 2568      0C
 2569              		.section	.data.Eng_Q,"aw"
 2570              		.align	2
 2571              		.set	.LANCHOR16,. + 0
 2574              	Eng_Q:
 2575 0000 7C82A242 		.ascii	"|\202\242B\274"
 2575      BC
 2576              		.section	.data.Eng_R,"aw"
 2577              		.align	2
 2578              		.set	.LANCHOR17,. + 0
 2581              	Eng_R:
 2582 0000 FE123252 		.ascii	"\376\0222R\214"
 2582      8C
 2583              		.section	.data.Eng_S,"aw"
 2584              		.align	2
 2585              		.set	.LANCHOR18,. + 0
 2588              	Eng_S:
 2589 0000 4C929292 		.ascii	"L\222\222\222d"
 2589      64
 2590              		.section	.data.Eng_T,"aw"
 2591              		.align	2
 2592              		.set	.LANCHOR19,. + 0
ARM GAS  C:\Users\user\AppData\Local\Temp\ccD2C8ei.s 			page 63


 2595              	Eng_T:
 2596 0000 0202FE02 		.ascii	"\002\002\376\002\002"
 2596      02
 2597              		.section	.data.Eng_U,"aw"
 2598              		.align	2
 2599              		.set	.LANCHOR20,. + 0
 2602              	Eng_U:
 2603 0000 7E808080 		.ascii	"~\200\200\200~"
 2603      7E
 2604              		.section	.data.Eng_V,"aw"
 2605              		.align	2
 2606              		.set	.LANCHOR21,. + 0
 2609              	Eng_V:
 2610 0000 3E408040 		.ascii	">@\200@>"
 2610      3E
 2611              		.section	.data.Eng_W,"aw"
 2612              		.align	2
 2613              		.set	.LANCHOR22,. + 0
 2616              	Eng_W:
 2617 0000 7E807880 		.ascii	"~\200x\200~"
 2617      7E
 2618              		.section	.data.Eng_X,"aw"
 2619              		.align	2
 2620              		.set	.LANCHOR23,. + 0
 2623              	Eng_X:
 2624 0000 C6281028 		.ascii	"\306(\020(\306"
 2624      C6
 2625              		.section	.data.Eng_Y,"aw"
 2626              		.align	2
 2627              		.set	.LANCHOR24,. + 0
 2630              	Eng_Y:
 2631 0000 0204F804 		.ascii	"\002\004\370\004\002"
 2631      02
 2632              		.section	.data.Eng_Z,"aw"
 2633              		.align	2
 2634              		.set	.LANCHOR25,. + 0
 2637              	Eng_Z:
 2638 0000 C2A2928A 		.ascii	"\302\242\222\212\206"
 2638      86
 2639              		.section	.data.Eng_a,"aw"
 2640              		.align	2
 2641              		.set	.LANCHOR28,. + 0
 2644              	Eng_a:
 2645 0000 40A8A8A8 		.ascii	"@\250\250\250p"
 2645      70
 2646              		.section	.data.Eng_c,"aw"
 2647              		.align	2
 2648              		.set	.LANCHOR29,. + 0
 2651              	Eng_c:
 2652 0000 70888888 		.ascii	"p\210\210\210\000"
 2652      00
 2653              		.section	.data.Eng_o,"aw"
 2654              		.align	2
 2655              		.set	.LANCHOR34,. + 0
 2658              	Eng_o:
 2659 0000 70888888 		.ascii	"p\210\210\210p"
 2659      70
ARM GAS  C:\Users\user\AppData\Local\Temp\ccD2C8ei.s 			page 64


 2660              		.section	.data.Eng_r,"aw"
 2661              		.align	2
 2662              		.set	.LANCHOR30,. + 0
 2665              	Eng_r:
 2666 0000 F8100808 		.ascii	"\370\020\010\010\010"
 2666      08
 2667              		.section	.data.Eng_u,"aw"
 2668              		.align	2
 2669              		.set	.LANCHOR26,. + 0
 2672              	Eng_u:
 2673 0000 78808080 		.ascii	"x\200\200\200x"
 2673      78
 2674              		.section	.data.Eng_v,"aw"
 2675              		.align	2
 2676              		.set	.LANCHOR27,. + 0
 2679              	Eng_v:
 2680 0000 38408040 		.ascii	"8@\200@8"
 2680      38
 2681              		.section	.data.Minus,"aw"
 2682              		.align	2
 2683              		.set	.LANCHOR38,. + 0
 2686              	Minus:
 2687 0000 10101010 		.ascii	"\020\020\020\020\020"
 2687      10
 2688              		.section	.data.Multiply,"aw"
 2689              		.align	2
 2692              	Multiply:
 2693 0000 44281028 		.ascii	"D(\020(D"
 2693      44
 2694              		.section	.data.Num_0,"aw"
 2695              		.align	2
 2696              		.set	.LANCHOR43,. + 0
 2699              	Num_0:
 2700 0000 7CA2928A 		.ascii	"|\242\222\212|"
 2700      7C
 2701              		.section	.data.Num_1,"aw"
 2702              		.align	2
 2703              		.set	.LANCHOR44,. + 0
 2706              	Num_1:
 2707 0000 8884FE80 		.ascii	"\210\204\376\200\200"
 2707      80
 2708              		.section	.data.Num_2,"aw"
 2709              		.align	2
 2710              		.set	.LANCHOR45,. + 0
 2713              	Num_2:
 2714 0000 84C2A292 		.ascii	"\204\302\242\222\214"
 2714      8C
 2715              		.section	.data.Num_3,"aw"
 2716              		.align	2
 2717              		.set	.LANCHOR46,. + 0
 2720              	Num_3:
 2721 0000 44929292 		.ascii	"D\222\222\222l"
 2721      6C
 2722              		.section	.data.Num_4,"aw"
 2723              		.align	2
 2724              		.set	.LANCHOR47,. + 0
 2727              	Num_4:
ARM GAS  C:\Users\user\AppData\Local\Temp\ccD2C8ei.s 			page 65


 2728 0000 0E101010 		.ascii	"\016\020\020\020\376"
 2728      FE
 2729              		.section	.data.Num_5,"aw"
 2730              		.align	2
 2731              		.set	.LANCHOR48,. + 0
 2734              	Num_5:
 2735 0000 8E929292 		.ascii	"\216\222\222\222b"
 2735      62
 2736              		.section	.data.Num_6,"aw"
 2737              		.align	2
 2738              		.set	.LANCHOR49,. + 0
 2741              	Num_6:
 2742 0000 7C929292 		.ascii	"|\222\222\222d"
 2742      64
 2743              		.section	.data.Num_7,"aw"
 2744              		.align	2
 2745              		.set	.LANCHOR50,. + 0
 2748              	Num_7:
 2749 0000 0202F20A 		.ascii	"\002\002\362\012\006"
 2749      06
 2750              		.section	.data.Num_8,"aw"
 2751              		.align	2
 2752              		.set	.LANCHOR51,. + 0
 2755              	Num_8:
 2756 0000 6C929292 		.ascii	"l\222\222\222l"
 2756      6C
 2757              		.section	.data.Num_9,"aw"
 2758              		.align	2
 2759              		.set	.LANCHOR52,. + 0
 2762              	Num_9:
 2763 0000 4C929292 		.ascii	"L\222\222\222|"
 2763      7C
 2764              		.section	.data.Plus,"aw"
 2765              		.align	2
 2766              		.set	.LANCHOR37,. + 0
 2769              	Plus:
 2770 0000 10107C10 		.ascii	"\020\020|\020\020"
 2770      10
 2771              		.section	.data.Slash,"aw"
 2772              		.align	2
 2773              		.set	.LANCHOR39,. + 0
 2776              	Slash:
 2777 0000 40201008 		.ascii	"@ \020\010\004"
 2777      04
 2778              		.section	.data.Ukr_ch,"aw"
 2779              		.align	2
 2780              		.set	.LANCHOR36,. + 0
 2783              	Ukr_ch:
 2784 0000 18202020 		.ascii	"\030   \370"
 2784      F8
 2785              		.section	.data.Ukr_d,"aw"
 2786              		.align	2
 2787              		.set	.LANCHOR33,. + 0
 2790              	Ukr_d:
 2791 0000 C0784878 		.ascii	"\300xHx\300"
 2791      C0
 2792              		.section	.data.Ukr_g,"aw"
ARM GAS  C:\Users\user\AppData\Local\Temp\ccD2C8ei.s 			page 66


 2793              		.align	2
 2794              		.set	.LANCHOR35,. + 0
 2797              	Ukr_g:
 2798 0000 F8080808 		.ascii	"\370\010\010\010\000"
 2798      00
 2799              		.section	.data.Ukr_k,"aw"
 2800              		.align	2
 2801              		.set	.LANCHOR32,. + 0
 2804              	Ukr_k:
 2805 0000 F8205088 		.ascii	"\370 P\210\000"
 2805      00
 2806              		.section	.data.Ukr_m,"aw"
 2807              		.align	2
 2808              		.set	.LANCHOR31,. + 0
 2811              	Ukr_m:
 2812 0000 F8102010 		.ascii	"\370\020 \020\370"
 2812      F8
 2813              		.text
 2814              	.Letext0:
 2815              		.file 2 "c:\\users\\user\\appdata\\roaming\\code\\user\\globalstorage\\bmd.stm32-for-vscode\\@xpac
 2816              		.file 3 "c:\\users\\user\\appdata\\roaming\\code\\user\\globalstorage\\bmd.stm32-for-vscode\\@xpac
 2817              		.file 4 "Core/Src/NOS_LIB_Driver/Inc/NOS_Typedefs.h"
 2818              		.file 5 "Core/Src/NOS_LIB_Driver/Inc/CharLib(7x5).h"
 2819              		.file 6 "Core/Src/NOS_LIB_Driver/Inc/NOS_Math.h"
 2820              		.file 7 "<built-in>"
ARM GAS  C:\Users\user\AppData\Local\Temp\ccD2C8ei.s 			page 67


DEFINED SYMBOLS
                            *ABS*:0000000000000000 WS2812B.c
C:\Users\user\AppData\Local\Temp\ccD2C8ei.s:18     .text.NOS_WS2812B_Matrix_BaseInit:0000000000000000 $t
C:\Users\user\AppData\Local\Temp\ccD2C8ei.s:26     .text.NOS_WS2812B_Matrix_BaseInit:0000000000000000 NOS_WS2812B_Matrix_BaseInit
C:\Users\user\AppData\Local\Temp\ccD2C8ei.s:47     .text.NOS_WS2812B_Matrix_FullInit:0000000000000000 $t
C:\Users\user\AppData\Local\Temp\ccD2C8ei.s:54     .text.NOS_WS2812B_Matrix_FullInit:0000000000000000 NOS_WS2812B_Matrix_FullInit
C:\Users\user\AppData\Local\Temp\ccD2C8ei.s:93     .text.NOS_WS2812B_Matrix_SetPixel:0000000000000000 $t
C:\Users\user\AppData\Local\Temp\ccD2C8ei.s:100    .text.NOS_WS2812B_Matrix_SetPixel:0000000000000000 NOS_WS2812B_Matrix_SetPixel
C:\Users\user\AppData\Local\Temp\ccD2C8ei.s:213    .text.NOS_WS2812B_Matrix_SetPixel:0000000000000084 $d
C:\Users\user\AppData\Local\Temp\ccD2C8ei.s:218    .text.GetPixelPos:0000000000000000 $t
C:\Users\user\AppData\Local\Temp\ccD2C8ei.s:225    .text.GetPixelPos:0000000000000000 GetPixelPos
C:\Users\user\AppData\Local\Temp\ccD2C8ei.s:258    .text.NOS_WS2812B_Matrix_Update:0000000000000000 $t
C:\Users\user\AppData\Local\Temp\ccD2C8ei.s:265    .text.NOS_WS2812B_Matrix_Update:0000000000000000 NOS_WS2812B_Matrix_Update
C:\Users\user\AppData\Local\Temp\ccD2C8ei.s:578    .text.NOS_WS2812B_Matrix_Update:0000000000000140 $d
C:\Users\user\AppData\Local\Temp\ccD2C8ei.s:583    .text.NOS_WS2812B_SetPixelColor:0000000000000000 $t
C:\Users\user\AppData\Local\Temp\ccD2C8ei.s:590    .text.NOS_WS2812B_SetPixelColor:0000000000000000 NOS_WS2812B_SetPixelColor
C:\Users\user\AppData\Local\Temp\ccD2C8ei.s:613    .text.NOS_WS2812B_EffectRainbow:0000000000000000 $t
C:\Users\user\AppData\Local\Temp\ccD2C8ei.s:620    .text.NOS_WS2812B_EffectRainbow:0000000000000000 NOS_WS2812B_EffectRainbow
C:\Users\user\AppData\Local\Temp\ccD2C8ei.s:849    .text.NOS_WS2812B_EffectEngineHandler:0000000000000000 $t
C:\Users\user\AppData\Local\Temp\ccD2C8ei.s:856    .text.NOS_WS2812B_EffectEngineHandler:0000000000000000 NOS_WS2812B_EffectEngineHandler
C:\Users\user\AppData\Local\Temp\ccD2C8ei.s:876    .text.Symvol_GetBitMap:0000000000000000 $t
C:\Users\user\AppData\Local\Temp\ccD2C8ei.s:883    .text.Symvol_GetBitMap:0000000000000000 Symvol_GetBitMap
C:\Users\user\AppData\Local\Temp\ccD2C8ei.s:899    .text.Symvol_GetBitMap:000000000000000c $d
C:\Users\user\AppData\Local\Temp\ccD2C8ei.s:989    .text.Symvol_GetBitMap:00000000000000c0 $t
C:\Users\user\AppData\Local\Temp\ccD2C8ei.s:1321   .text.Symvol_GetBitMap:000000000000019c $d
C:\Users\user\AppData\Local\Temp\ccD2C8ei.s:1379   .text.NOS_WS2812B_Matrix_SetSymvol:0000000000000000 $t
C:\Users\user\AppData\Local\Temp\ccD2C8ei.s:1386   .text.NOS_WS2812B_Matrix_SetSymvol:0000000000000000 NOS_WS2812B_Matrix_SetSymvol
C:\Users\user\AppData\Local\Temp\ccD2C8ei.s:1446   .text.NOS_WS2812B_Matrix_PrintStaticString:0000000000000000 $t
C:\Users\user\AppData\Local\Temp\ccD2C8ei.s:1453   .text.NOS_WS2812B_Matrix_PrintStaticString:0000000000000000 NOS_WS2812B_Matrix_PrintStaticString
C:\Users\user\AppData\Local\Temp\ccD2C8ei.s:1519   .text.NOS_WS2812B_Matrix_PrintIntNumber:0000000000000000 $t
C:\Users\user\AppData\Local\Temp\ccD2C8ei.s:1526   .text.NOS_WS2812B_Matrix_PrintIntNumber:0000000000000000 NOS_WS2812B_Matrix_PrintIntNumber
C:\Users\user\AppData\Local\Temp\ccD2C8ei.s:1729   .text.NOS_WS2812B_Matrix_PrintIntNumber:00000000000000f0 $d
C:\Users\user\AppData\Local\Temp\ccD2C8ei.s:1736   .rodata.NOS_WS2812B_Matrix_PrintFloatNumber.str1.4:0000000000000000 $d
C:\Users\user\AppData\Local\Temp\ccD2C8ei.s:1740   .text.NOS_WS2812B_Matrix_PrintFloatNumber:0000000000000000 $t
C:\Users\user\AppData\Local\Temp\ccD2C8ei.s:1747   .text.NOS_WS2812B_Matrix_PrintFloatNumber:0000000000000000 NOS_WS2812B_Matrix_PrintFloatNumber
C:\Users\user\AppData\Local\Temp\ccD2C8ei.s:1846   .text.NOS_WS2812B_Matrix_PrintFloatNumber:000000000000006c $d
C:\Users\user\AppData\Local\Temp\ccD2C8ei.s:1852   .text.NOS_WS2812B_Matrix_PrintRealTime:0000000000000000 $t
C:\Users\user\AppData\Local\Temp\ccD2C8ei.s:1859   .text.NOS_WS2812B_Matrix_PrintRealTime:0000000000000000 NOS_WS2812B_Matrix_PrintRealTime
C:\Users\user\AppData\Local\Temp\ccD2C8ei.s:2103   .text.NOS_WS2812B_Matrix_PrintRealTime:0000000000000190 $d
C:\Users\user\AppData\Local\Temp\ccD2C8ei.s:2108   .text.NOS_WS2812B_Matrix_PrintTemperature:0000000000000000 $t
C:\Users\user\AppData\Local\Temp\ccD2C8ei.s:2115   .text.NOS_WS2812B_Matrix_PrintTemperature:0000000000000000 NOS_WS2812B_Matrix_PrintTemperature
C:\Users\user\AppData\Local\Temp\ccD2C8ei.s:2214   .rodata.NOS_WS2812B_Matrix_PrintDetectorValue.str1.4:0000000000000000 $d
C:\Users\user\AppData\Local\Temp\ccD2C8ei.s:2224   .text.NOS_WS2812B_Matrix_PrintDetectorValue:0000000000000000 $t
C:\Users\user\AppData\Local\Temp\ccD2C8ei.s:2231   .text.NOS_WS2812B_Matrix_PrintDetectorValue:0000000000000000 NOS_WS2812B_Matrix_PrintDetectorValue
C:\Users\user\AppData\Local\Temp\ccD2C8ei.s:2368   .text.NOS_WS2812B_Matrix_PrintDetectorValue:00000000000000ac $d
C:\Users\user\AppData\Local\Temp\ccD2C8ei.s:2762   .data.Num_9:0000000000000000 Num_9
C:\Users\user\AppData\Local\Temp\ccD2C8ei.s:2755   .data.Num_8:0000000000000000 Num_8
C:\Users\user\AppData\Local\Temp\ccD2C8ei.s:2748   .data.Num_7:0000000000000000 Num_7
C:\Users\user\AppData\Local\Temp\ccD2C8ei.s:2741   .data.Num_6:0000000000000000 Num_6
C:\Users\user\AppData\Local\Temp\ccD2C8ei.s:2734   .data.Num_5:0000000000000000 Num_5
C:\Users\user\AppData\Local\Temp\ccD2C8ei.s:2727   .data.Num_4:0000000000000000 Num_4
C:\Users\user\AppData\Local\Temp\ccD2C8ei.s:2720   .data.Num_3:0000000000000000 Num_3
C:\Users\user\AppData\Local\Temp\ccD2C8ei.s:2713   .data.Num_2:0000000000000000 Num_2
C:\Users\user\AppData\Local\Temp\ccD2C8ei.s:2706   .data.Num_1:0000000000000000 Num_1
C:\Users\user\AppData\Local\Temp\ccD2C8ei.s:2699   .data.Num_0:0000000000000000 Num_0
C:\Users\user\AppData\Local\Temp\ccD2C8ei.s:2441   .data.Celcium:0000000000000000 Celcium
C:\Users\user\AppData\Local\Temp\ccD2C8ei.s:2692   .data.Multiply:0000000000000000 Multiply
ARM GAS  C:\Users\user\AppData\Local\Temp\ccD2C8ei.s 			page 68


C:\Users\user\AppData\Local\Temp\ccD2C8ei.s:2686   .data.Minus:0000000000000000 Minus
C:\Users\user\AppData\Local\Temp\ccD2C8ei.s:2769   .data.Plus:0000000000000000 Plus
C:\Users\user\AppData\Local\Temp\ccD2C8ei.s:2776   .data.Slash:0000000000000000 Slash
C:\Users\user\AppData\Local\Temp\ccD2C8ei.s:2455   .data.DoubleDot:0000000000000000 DoubleDot
C:\Users\user\AppData\Local\Temp\ccD2C8ei.s:2448   .data.Dot:0000000000000000 Dot
C:\Users\user\AppData\Local\Temp\ccD2C8ei.s:2434   .bss.Space:0000000000000000 Space
C:\Users\user\AppData\Local\Temp\ccD2C8ei.s:2783   .data.Ukr_ch:0000000000000000 Ukr_ch
C:\Users\user\AppData\Local\Temp\ccD2C8ei.s:2790   .data.Ukr_d:0000000000000000 Ukr_d
C:\Users\user\AppData\Local\Temp\ccD2C8ei.s:2797   .data.Ukr_g:0000000000000000 Ukr_g
C:\Users\user\AppData\Local\Temp\ccD2C8ei.s:2804   .data.Ukr_k:0000000000000000 Ukr_k
C:\Users\user\AppData\Local\Temp\ccD2C8ei.s:2811   .data.Ukr_m:0000000000000000 Ukr_m
C:\Users\user\AppData\Local\Temp\ccD2C8ei.s:2665   .data.Eng_r:0000000000000000 Eng_r
C:\Users\user\AppData\Local\Temp\ccD2C8ei.s:2658   .data.Eng_o:0000000000000000 Eng_o
C:\Users\user\AppData\Local\Temp\ccD2C8ei.s:2672   .data.Eng_u:0000000000000000 Eng_u
C:\Users\user\AppData\Local\Temp\ccD2C8ei.s:2679   .data.Eng_v:0000000000000000 Eng_v
C:\Users\user\AppData\Local\Temp\ccD2C8ei.s:2651   .data.Eng_c:0000000000000000 Eng_c
C:\Users\user\AppData\Local\Temp\ccD2C8ei.s:2644   .data.Eng_a:0000000000000000 Eng_a
C:\Users\user\AppData\Local\Temp\ccD2C8ei.s:2637   .data.Eng_Z:0000000000000000 Eng_Z
C:\Users\user\AppData\Local\Temp\ccD2C8ei.s:2630   .data.Eng_Y:0000000000000000 Eng_Y
C:\Users\user\AppData\Local\Temp\ccD2C8ei.s:2623   .data.Eng_X:0000000000000000 Eng_X
C:\Users\user\AppData\Local\Temp\ccD2C8ei.s:2616   .data.Eng_W:0000000000000000 Eng_W
C:\Users\user\AppData\Local\Temp\ccD2C8ei.s:2609   .data.Eng_V:0000000000000000 Eng_V
C:\Users\user\AppData\Local\Temp\ccD2C8ei.s:2602   .data.Eng_U:0000000000000000 Eng_U
C:\Users\user\AppData\Local\Temp\ccD2C8ei.s:2595   .data.Eng_T:0000000000000000 Eng_T
C:\Users\user\AppData\Local\Temp\ccD2C8ei.s:2588   .data.Eng_S:0000000000000000 Eng_S
C:\Users\user\AppData\Local\Temp\ccD2C8ei.s:2581   .data.Eng_R:0000000000000000 Eng_R
C:\Users\user\AppData\Local\Temp\ccD2C8ei.s:2574   .data.Eng_Q:0000000000000000 Eng_Q
C:\Users\user\AppData\Local\Temp\ccD2C8ei.s:2567   .data.Eng_P:0000000000000000 Eng_P
C:\Users\user\AppData\Local\Temp\ccD2C8ei.s:2560   .data.Eng_O:0000000000000000 Eng_O
C:\Users\user\AppData\Local\Temp\ccD2C8ei.s:2553   .data.Eng_N:0000000000000000 Eng_N
C:\Users\user\AppData\Local\Temp\ccD2C8ei.s:2546   .data.Eng_M:0000000000000000 Eng_M
C:\Users\user\AppData\Local\Temp\ccD2C8ei.s:2539   .data.Eng_L:0000000000000000 Eng_L
C:\Users\user\AppData\Local\Temp\ccD2C8ei.s:2532   .data.Eng_K:0000000000000000 Eng_K
C:\Users\user\AppData\Local\Temp\ccD2C8ei.s:2525   .data.Eng_J:0000000000000000 Eng_J
C:\Users\user\AppData\Local\Temp\ccD2C8ei.s:2518   .data.Eng_I:0000000000000000 Eng_I
C:\Users\user\AppData\Local\Temp\ccD2C8ei.s:2511   .data.Eng_H:0000000000000000 Eng_H
C:\Users\user\AppData\Local\Temp\ccD2C8ei.s:2504   .data.Eng_G:0000000000000000 Eng_G
C:\Users\user\AppData\Local\Temp\ccD2C8ei.s:2497   .data.Eng_F:0000000000000000 Eng_F
C:\Users\user\AppData\Local\Temp\ccD2C8ei.s:2490   .data.Eng_E:0000000000000000 Eng_E
C:\Users\user\AppData\Local\Temp\ccD2C8ei.s:2483   .data.Eng_D:0000000000000000 Eng_D
C:\Users\user\AppData\Local\Temp\ccD2C8ei.s:2476   .data.Eng_C:0000000000000000 Eng_C
C:\Users\user\AppData\Local\Temp\ccD2C8ei.s:2469   .data.Eng_B:0000000000000000 Eng_B
C:\Users\user\AppData\Local\Temp\ccD2C8ei.s:2462   .data.Eng_A:0000000000000000 Eng_A
C:\Users\user\AppData\Local\Temp\ccD2C8ei.s:2430   .bss.Space:0000000000000000 $d
C:\Users\user\AppData\Local\Temp\ccD2C8ei.s:2437   .data.Celcium:0000000000000000 $d
C:\Users\user\AppData\Local\Temp\ccD2C8ei.s:2444   .data.Dot:0000000000000000 $d
C:\Users\user\AppData\Local\Temp\ccD2C8ei.s:2451   .data.DoubleDot:0000000000000000 $d
C:\Users\user\AppData\Local\Temp\ccD2C8ei.s:2458   .data.Eng_A:0000000000000000 $d
C:\Users\user\AppData\Local\Temp\ccD2C8ei.s:2465   .data.Eng_B:0000000000000000 $d
C:\Users\user\AppData\Local\Temp\ccD2C8ei.s:2472   .data.Eng_C:0000000000000000 $d
C:\Users\user\AppData\Local\Temp\ccD2C8ei.s:2479   .data.Eng_D:0000000000000000 $d
C:\Users\user\AppData\Local\Temp\ccD2C8ei.s:2486   .data.Eng_E:0000000000000000 $d
C:\Users\user\AppData\Local\Temp\ccD2C8ei.s:2493   .data.Eng_F:0000000000000000 $d
C:\Users\user\AppData\Local\Temp\ccD2C8ei.s:2500   .data.Eng_G:0000000000000000 $d
C:\Users\user\AppData\Local\Temp\ccD2C8ei.s:2507   .data.Eng_H:0000000000000000 $d
C:\Users\user\AppData\Local\Temp\ccD2C8ei.s:2514   .data.Eng_I:0000000000000000 $d
C:\Users\user\AppData\Local\Temp\ccD2C8ei.s:2521   .data.Eng_J:0000000000000000 $d
ARM GAS  C:\Users\user\AppData\Local\Temp\ccD2C8ei.s 			page 69


C:\Users\user\AppData\Local\Temp\ccD2C8ei.s:2528   .data.Eng_K:0000000000000000 $d
C:\Users\user\AppData\Local\Temp\ccD2C8ei.s:2535   .data.Eng_L:0000000000000000 $d
C:\Users\user\AppData\Local\Temp\ccD2C8ei.s:2542   .data.Eng_M:0000000000000000 $d
C:\Users\user\AppData\Local\Temp\ccD2C8ei.s:2549   .data.Eng_N:0000000000000000 $d
C:\Users\user\AppData\Local\Temp\ccD2C8ei.s:2556   .data.Eng_O:0000000000000000 $d
C:\Users\user\AppData\Local\Temp\ccD2C8ei.s:2563   .data.Eng_P:0000000000000000 $d
C:\Users\user\AppData\Local\Temp\ccD2C8ei.s:2570   .data.Eng_Q:0000000000000000 $d
C:\Users\user\AppData\Local\Temp\ccD2C8ei.s:2577   .data.Eng_R:0000000000000000 $d
C:\Users\user\AppData\Local\Temp\ccD2C8ei.s:2584   .data.Eng_S:0000000000000000 $d
C:\Users\user\AppData\Local\Temp\ccD2C8ei.s:2591   .data.Eng_T:0000000000000000 $d
C:\Users\user\AppData\Local\Temp\ccD2C8ei.s:2598   .data.Eng_U:0000000000000000 $d
C:\Users\user\AppData\Local\Temp\ccD2C8ei.s:2605   .data.Eng_V:0000000000000000 $d
C:\Users\user\AppData\Local\Temp\ccD2C8ei.s:2612   .data.Eng_W:0000000000000000 $d
C:\Users\user\AppData\Local\Temp\ccD2C8ei.s:2619   .data.Eng_X:0000000000000000 $d
C:\Users\user\AppData\Local\Temp\ccD2C8ei.s:2626   .data.Eng_Y:0000000000000000 $d
C:\Users\user\AppData\Local\Temp\ccD2C8ei.s:2633   .data.Eng_Z:0000000000000000 $d
C:\Users\user\AppData\Local\Temp\ccD2C8ei.s:2640   .data.Eng_a:0000000000000000 $d
C:\Users\user\AppData\Local\Temp\ccD2C8ei.s:2647   .data.Eng_c:0000000000000000 $d
C:\Users\user\AppData\Local\Temp\ccD2C8ei.s:2654   .data.Eng_o:0000000000000000 $d
C:\Users\user\AppData\Local\Temp\ccD2C8ei.s:2661   .data.Eng_r:0000000000000000 $d
C:\Users\user\AppData\Local\Temp\ccD2C8ei.s:2668   .data.Eng_u:0000000000000000 $d
C:\Users\user\AppData\Local\Temp\ccD2C8ei.s:2675   .data.Eng_v:0000000000000000 $d
C:\Users\user\AppData\Local\Temp\ccD2C8ei.s:2682   .data.Minus:0000000000000000 $d
C:\Users\user\AppData\Local\Temp\ccD2C8ei.s:2689   .data.Multiply:0000000000000000 $d
C:\Users\user\AppData\Local\Temp\ccD2C8ei.s:2695   .data.Num_0:0000000000000000 $d
C:\Users\user\AppData\Local\Temp\ccD2C8ei.s:2702   .data.Num_1:0000000000000000 $d
C:\Users\user\AppData\Local\Temp\ccD2C8ei.s:2709   .data.Num_2:0000000000000000 $d
C:\Users\user\AppData\Local\Temp\ccD2C8ei.s:2716   .data.Num_3:0000000000000000 $d
C:\Users\user\AppData\Local\Temp\ccD2C8ei.s:2723   .data.Num_4:0000000000000000 $d
C:\Users\user\AppData\Local\Temp\ccD2C8ei.s:2730   .data.Num_5:0000000000000000 $d
C:\Users\user\AppData\Local\Temp\ccD2C8ei.s:2737   .data.Num_6:0000000000000000 $d
C:\Users\user\AppData\Local\Temp\ccD2C8ei.s:2744   .data.Num_7:0000000000000000 $d
C:\Users\user\AppData\Local\Temp\ccD2C8ei.s:2751   .data.Num_8:0000000000000000 $d
C:\Users\user\AppData\Local\Temp\ccD2C8ei.s:2758   .data.Num_9:0000000000000000 $d
C:\Users\user\AppData\Local\Temp\ccD2C8ei.s:2765   .data.Plus:0000000000000000 $d
C:\Users\user\AppData\Local\Temp\ccD2C8ei.s:2772   .data.Slash:0000000000000000 $d
C:\Users\user\AppData\Local\Temp\ccD2C8ei.s:2779   .data.Ukr_ch:0000000000000000 $d
C:\Users\user\AppData\Local\Temp\ccD2C8ei.s:2786   .data.Ukr_d:0000000000000000 $d
C:\Users\user\AppData\Local\Temp\ccD2C8ei.s:2793   .data.Ukr_g:0000000000000000 $d
C:\Users\user\AppData\Local\Temp\ccD2C8ei.s:2800   .data.Ukr_k:0000000000000000 $d
C:\Users\user\AppData\Local\Temp\ccD2C8ei.s:2807   .data.Ukr_m:0000000000000000 $d

UNDEFINED SYMBOLS
NOS_Math_NormalizeValue
__aeabi_ui2d
__aeabi_i2d
__aeabi_ddiv
__aeabi_d2uiz
__aeabi_dmul
__aeabi_dsub
NOS_Math_GetNumberPower
pow
